(dp0
Vhttps://www.reddit.com/r/buildapc/comments/14ylcw/build_help_this_probably_gets_asked_a_lot_but/
p1
(lp2
I5
aI1
aI2
aI1
aI3
aI3
aI1
aI1
aI1
asVhttps://www.reddit.com/r/rock/comments/vt3mx/because_accordion/
p3
(lp4
I0
aI1
aI1
aI1
aI4
aI1
asVhttps://www.reddit.com/r/teclast/comments/3gmf1k/teclast_x98fixing_error_0xc0000225/
p5
(lp6
I4
aI1
aI1
aI1
aI1
aI2
aI1
aI1
aI1
aI2
aI2
aI1
aI2
aI1
aI2
aI2
asVhttps://www.reddit.com/r/trees/comments/14otha/anyone_clean_a_bowl_with_a_selfcleaning_oven/
p7
(lp8
I4
aI1
aI3
aI2
aI4
aI1
aI1
aI1
asVhttps://www.reddit.com/r/buildapcforme/comments/3i05e9/livingroom_pc/
p9
(lp10
I21
aI2
aI2
aI15
aI3
aI3
asVhttps://www.reddit.com/r/oblivion/comments/1qp1qg/new_to_oblivion_skyrim_was_the_first_es_game_i/
p11
(lp12
I2
aI18
aI18
aI20
aI1
aI3
aI1
aI2
aI4
aI4
aI4
aI4
aI1
aI2
aI3
aI16
aI6
aI2
aI3
aI2
aI3
aI2
aI2
aI3
aI2
aI3
aI4
aI2
aI4
aI1
aI2
asVhttps://www.reddit.com/r/shittyadvice/comments/10qzqz/not_very_popular_at_work_right_now/
p13
(lp14
I5
aI1
aI1
aI2
aI5
aI4
aI2
aI2
aI2
aI3
aI2
aI3
aI1
aI2
aI1
aI2
aI2
aI1
asVhttps://www.reddit.com/r/dayz/comments/2155i7/where_to_find_pistol_mags/
p15
(lp16
I2
aI3
aI1
aI1
aI2
aI1
aI1
asVhttps://www.reddit.com/r/legaladvice/comments/2qg6bb/neighbours_left_me_an_angry_letter_and_threatened/
p17
(lp18
I22
aI6
aI3
aI5
aI2
aI2
aI1
aI1
aI1
aI3
aI4
aI1
aI1
aI3
aI9
aI4
aI1
aI5
aI2
aI1
aI8
aI4
aI1
aI3
aI3
aI20
aI2
aI1
aI4
aI2
aI13
aI3
aI1
aI1
aI4
aI3
aI2
aI5
aI1
aI3
aI1
asVhttps://www.reddit.com/r/picrequests/comments/1iabie/can_you_help_me_remove_this_smudge_on_this_old_pic/
p19
(lp20
I1
aI1
aI1
aI1
aI1
aI1
asVhttps://www.reddit.com/r/stlouisblues/comments/1ua960/gifs_1214_kings_blues_blues_win_50/
p21
(lp22
I1
aI1
aI3
aI1
aI3
aI6
aI1
aI1
aI1
aI1
aI1
aI5
aI1
aI2
aI1
aI9
aI2
aI1
aI3
aI1
aI3
asVhttps://www.reddit.com/r/pkmntcg/comments/oqxk0/looking_for_1st_edition_base_set_cards/
p23
(lp24
I6
aI3
aI1
aI2
aI2
aI1
asVhttps://www.reddit.com/r/fireemblem/comments/31wprt/possibility_of_same_sex_marriages_in_fe14/
p25
(lp26
I5
aI1
aI1
aI2
aI22
aI2
aI2
aI3
aI21
aI10
aI1
aI3
aI2
aI1
aI3
aI2
aI3
aI2
aI1
aI5
aI1
aI5
aI2
aI1
aI9
aI2
aI3
aI2
aI9
aI3
aI3
aI2
aI14
aI2
aI5
aI11
aI3
aI11
aI1
aI14
aI1
asVhttps://www.reddit.com/r/cigars/comments/4fvjk5/beer_and_cigars_contest_entry_tatuaje_tattoo_and/
p27
(lp28
I30
aI2
aI4
aI6
aI4
aI2
aI3
aI3
aI5
aI3
aI3
asVhttps://www.reddit.com/r/britishproblems/comments/1giqbd/just_walked_past_a_group_of_youths_proclaiming/
p29
(lp30
I3
aI1
aI1
aI2
aI4
aI1
aI1
aI2
aI1
aI1
aI2
aI1
aI1
aI1
aI2
aI1
aI2
aI2
aI3
aI1
aI1
aI1
aI1
aI1
aI1
aI1
asVhttps://www.reddit.com/r/makinghiphop/comments/2t0kur/discuss_how_do_you_guys_compose_good_melodies/
p31
(lp32
I7
aI19
aI18
aI3
aI4
aI1
aI2
aI2
aI8
aI1
aI1
aI8
aI6
aI3
aI1
aI6
aI5
aI4
aI1
aI1
aI2
aI1
aI1
aI3
aI1
aI2
aI1
asVhttps://www.reddit.com/r/nihilism/comments/1qjn6i/a_really_nice_quote_i_came_across_sums_up_my/
p33
(lp34
I5
aI1
aI3
aI2
aI3
aI7
aI5
aI3
aI1
aI1
aI6
aI1
aI4
aI1
aI4
aI2
aI3
aI3
aI1
aI6
aI10
asVhttps://www.reddit.com/r/learnprogramming/comments/13jevc/java_how_to_improve_performance_of_arraylist/
p35
(lp36
I5
aI7
aI4
aI4
aI4
aI3
aI3
aI4
asVhttps://www.reddit.com/r/gamecollecting/comments/2uxzyo/been_playing_games_since_the_late_1980s_still/
p37
(lp38
I6
aI10
aI1
aI3
aI3
aI3
aI5
aI2
aI2
aI6
aI2
aI4
aI3
asVhttps://www.reddit.com/r/summonerschool/comments/1dzwxr/what_do_you_do_as_an_adc_when_your_team_is_behind/
p39
(lp40
I4
aI8
aI1
aI5
aI3
aI1
aI4
aI1
aI5
aI2
aI9
aI2
aI2
aI3
aI3
aI1
aI2
aI1
asVhttps://www.reddit.com/r/conspiro/comments/1vfgak/the_doctor_who_claimed_there_was_a_link_between/
p41
(lp42
I2
aI1
aI2
aI2
aI7
aI1
aI2
aI1
aI1
aI3
aI1
aI3
aI1
aI1
aI1
aI11
aI4
aI1
aI1
aI1
aI2
aI6
aI1
aI1
aI3
aI1
aI1
aI1
aI2
aI1
aI4
aI25
aI1
aI3
aI3
aI1
aI1
aI4
aI1
aI1
aI2
asVhttps://www.reddit.com/r/seduction/comments/2g3rb6/my_experience_with_edm_shows/
p43
(lp44
I17
aI1
aI14
aI4
aI4
aI1
aI2
aI3
aI2
aI12
aI13
aI4
aI7
aI2
aI2
aI1
aI3
aI1
aI7
aI3
aI2
aI1
aI7
aI3
aI2
asVhttps://www.reddit.com/r/buildapc/comments/2g13n8/build_help_best_budget_motherboard_for_the/
p45
(lp46
I2
aI2
aI1
aI1
aI3
aI2
aI1
asVhttps://www.reddit.com/r/AskReddit/comments/20bl8l/reddit_what_is_one_taste_good_or_bad_that_you/
p47
(lp48
I0
aI4
aI1
aI1
aI3
aI3
aI1
aI3
aI1
aI2
aI2
aI1
aI2
aI3
aI4
aI2
aI1
aI1
aI1
aI3
aI4
aI1
aI2
aI1
aI2
aI1
aI1
aI2
aI3
aI4
asVhttps://www.reddit.com/r/pcmasterrace/comments/351t8o/need_help_with_gaming_laptop_under_1000_this/
p49
(lp50
I11
aI1
aI2
aI2
aI3
aI1
aI4
aI1
aI3
aI3
aI1
aI2
aI3
aI5
aI3
aI2
aI2
aI3
aI4
aI1
aI4
aI2
aI2
aI4
aI1
aI3
aI2
aI2
aI2
aI1
aI1
aI2
aI2
aI1
aI8
aI1
aI12
aI3
aI6
aI4
asVhttps://www.reddit.com/r/relationship_advice/comments/qcobj/fwb_and_i_have_feelings_for_each_other_now/
p51
(lp52
I7
aI14
aI2
aI1
aI1
aI3
aI11
aI3
aI4
aI1
aI2
aI3
aI1
aI3
aI1
aI4
aI3
aI14
aI9
aI1
aI2
asVhttps://www.reddit.com/r/learnprogramming/comments/1xw309/php_in_shell_question_how_to_reload_from_the/
p53
(lp54
I9
aI1
aI3
aI1
aI1
aI1
aI2
asVhttps://www.reddit.com/r/windowsphone/comments/1akc9l/lumia_920_glass_replacement/
p55
(lp56
I5
aI2
aI1
aI2
aI3
aI2
aI2
asVhttps://www.reddit.com/r/counting/comments/2lj4yz/time_counting_thread_20000_am/
p57
(lp58
I0
aI1
aI1
aI1
aI1
aI1
aI1
aI1
aI1
aI1
aI1
asVhttps://www.reddit.com/r/polyamory/comments/r61z9/how_do_you_define_primary_partner_do_you_think/
p59
(lp60
I4
aI7
aI5
aI2
aI8
aI4
aI4
aI7
aI2
aI2
aI4
aI5
aI5
aI5
aI1
aI2
aI2
aI1
aI3
aI3
aI7
aI3
aI1
aI6
aI2
asVhttps://www.reddit.com/r/askportland/comments/3wutrg/parking_for_visitors/
p61
(lp62
I7
aI4
aI6
aI9
aI1
aI8
aI4
aI1
aI2
asVhttps://www.reddit.com/r/dailyprogrammer_ideas/comments/39rm5g/alice_through_the_looking_glass/
p63
(lp64
I14
aI2
aI4
aI2
aI4
aI2
asVhttps://www.reddit.com/r/TalesFromRetail/comments/1xf2kq/the_bowie_knife/
p65
(lp66
I17
aI6
aI2
aI2
aI3
aI1
aI4
aI1
aI2
aI1
aI4
aI1
aI1
aI4
asVhttps://www.reddit.com/r/jailbreak/comments/1jmtse/upgrade_to_70_then_back_to_612/
p67
(lp68
I1
aI4
aI3
aI2
aI4
aI3
aI15
aI7
aI5
asVhttps://www.reddit.com/r/science/comments/gdft3/is_the_earth_6000_years_old/
p69
(lp70
I0
aI1
aI3
aI1
aI5
aI1
aI1
aI1
aI2
asVhttps://www.reddit.com/r/offmychest/comments/3aj98m/if_youre_aggravated_by_something_please_dont_vent/
p71
(lp72
I17
aI4
aI6
aI4
aI3
aI5
asVhttps://www.reddit.com/r/ftm/comments/44ajoa/fantastic_friday_interesting_images_february_05/
p73
(lp74
I2
aI2
aI2
aI2
aI1
aI2
aI3
aI2
asVhttps://www.reddit.com/r/Juve/comments/2pcn5o/well_face_borussia_dortmund_thoughts/
p75
(lp76
I0
aI1
aI7
aI4
aI4
aI4
aI3
aI2
aI9
aI5
aI2
aI4
aI3
aI4
aI6
aI7
aI3
aI1
aI2
aI2
aI2
aI1
aI6
aI1
aI3
aI7
aI3
aI5
aI3
aI1
aI3
aI1
aI1
aI3
aI2
aI5
aI3
aI1
asVhttps://www.reddit.com/r/darksouls3/comments/4fjxhy/tips_for_mercenary_load_out/
p77
(lp78
I4
aI2
aI5
aI7
aI1
aI12
asVhttps://www.reddit.com/r/blackops3/comments/4jjrff/new_everything_apparently/
p79
(lp80
I2
aI3
aI2
aI1
aI1
aI1
aI1
asVhttps://www.reddit.com/r/loremasters/comments/28pr5n/need_some_feedback_on_the_main_plot_of_my_campaign/
p81
(lp82
I41
aI8
aI10
aI3
aI8
aI2
aI1
aI4
aI1
aI1
aI1
aI2
aI2
aI3
aI4
aI2
aI3
aI1
aI4
aI5
aI6
aI5
aI2
asVhttps://www.reddit.com/r/formula1/comments/4jmsiw/dutch_max_got_wasted_last_night/
p83
(lp84
I0
aI5
aI4
aI2
aI1
aI3
aI1
aI1
aI2
aI2
aI1
aI1
aI2
aI2
aI1
aI3
aI1
aI3
aI2
aI1
aI1
asVhttps://www.reddit.com/r/hardware/comments/1d3fni/i_have_a_unique_problem_and_i_am_looking_for_a/
p85
(lp86
I10
aI3
aI2
aI1
aI3
aI1
aI2
aI3
asVhttps://www.reddit.com/r/bloodborne/comments/4fn86y/none_of_my_friends_can_summon_me_but_i_can_summon/
p87
(lp88
I10
aI3
aI1
aI3
aI4
aI1
aI1
aI2
aI2
aI1
aI2
aI2
aI5
aI4
aI3
aI3
aI4
aI1
asVhttps://www.reddit.com/r/teslore/comments/1v5ugj/a_last_lecture_on_sithis/
p89
(lp90
I56
aI6
aI2
aI3
aI3
aI4
aI10
aI1
aI3
aI8
aI6
aI2
aI7
aI1
aI2
aI2
asVhttps://www.reddit.com/r/buildapc/comments/3c3xwu/troubleshooting_bios_splash_screen_disabled_by/
p91
(lp92
I5
aI1
aI1
aI1
aI3
aI2
asVhttps://www.reddit.com/r/Guildwars2/comments/35niq1/eles_minor_trait_versus_mesmers_minor_trait/
p93
(lp94
I5
aI2
aI1
asVhttps://www.reddit.com/r/karate/comments/kz88r/shamo_an_awesome_manga_about_karate_that_you_guys/
p95
(lp96
I4
aI2
aI1
aI2
aI1
aI1
aI7
aI3
aI4
aI2
asVhttps://www.reddit.com/r/Nikon/comments/4ebr2l/artistic_wideangle_lens_for_d7200/
p97
(lp98
I5
aI2
aI4
aI2
aI3
aI2
aI2
aI3
aI4
aI1
asVhttps://www.reddit.com/r/pcmasterracents/comments/48u618/minecraft_server/
p99
(lp100
I2
aI2
aI1
aI1
aI1
aI1
aI2
asVhttps://www.reddit.com/r/fantasyfootball/comments/2dqiot/about_to_draft_in_a_20_team_league/
p101
(lp102
I1
aI2
aI1
aI2
aI1
aI1
aI3
aI4
aI1
asVhttps://www.reddit.com/r/exjw/comments/r5b28/time_to_come_out_as_exjw/
p103
(lp104
I20
aI31
aI3
aI2
aI11
aI2
aI2
aI1
aI1
aI2
asVhttps://www.reddit.com/r/weddingplanning/comments/4aymd3/psa_gta_brides_nordstrom_warehouse_sale_march/
p105
(lp106
I11
aI1
aI2
aI2
aI2
aI2
aI2
aI1
aI1
aI2
asVhttps://www.reddit.com/r/bipolar/comments/4g0j4h/im_so_thankful_for_nice_pharmacists/
p107
(lp108
I10
aI4
aI2
aI7
aI2
aI11
aI3
aI2
aI2
aI4
aI6
aI5
aI6
aI3
aI4
aI2
aI1
aI3
aI2
aI1
aI3
aI5
aI1
aI3
aI3
aI3
aI4
asVhttps://www.reddit.com/r/motorcycles/comments/17r8mm/water_in_oil_on_my_oil_cooled_bike/
p109
(lp110
I8
aI8
aI4
aI2
aI2
aI1
aI2
aI1
aI6
aI2
aI3
aI2
aI11
aI1
asVhttps://www.reddit.com/r/politics/comments/16c68q/big_donors_hope_to_challenge_nra_on_gun_control/
p111
(lp112
I0
aI1
aI1
aI1
aI7
aI1
aI1
aI3
asVhttps://www.reddit.com/r/keto/comments/15adwk/started_last_saturday_223_today_im_216_thats/
p113
(lp114
I8
aI4
aI17
aI7
aI3
aI1
aI2
aI3
aI14
aI6
aI2
aI2
aI2
aI3
aI6
aI1
asVhttps://www.reddit.com/r/MechanicAdvice/comments/3w7dfn/windows_wont_defog/
p115
(lp116
I7
aI1
aI2
aI6
aI4
aI8
aI5
aI6
aI4
aI7
aI4
aI1
aI1
aI5
aI2
aI2
aI2
aI4
aI1
aI1
asVhttps://www.reddit.com/r/linux/comments/1rraow/such_useful_error_messages_we_get_these_days/
p117
(lp118
I0
aI1
aI1
aI1
aI1
aI1
aI4
aI1
aI1
aI1
aI8
aI1
asVhttps://www.reddit.com/r/buildapc/comments/2afmpk/build_help_pc_upgrading/
p119
(lp120
I6
aI2
aI2
aI2
aI1
aI1
aI1
asVhttps://www.reddit.com/r/buildapc/comments/2b10qe/build_help_and_build_ready_im_seeking_help_with/
p121
(lp122
I1
aI4
aI6
aI3
aI5
aI1
aI3
asVhttps://www.reddit.com/r/GetStudying/comments/46a0av/cant_grasp_simple_math_homework/
p123
(lp124
I15
aI6
aI2
aI5
aI2
aI2
aI17
aI3
aI3
aI8
aI6
aI5
aI9
aI3
aI15
aI8
aI5
aI1
asVhttps://www.reddit.com/r/houston/comments/4jenwx/photography_of_houston/
p125
(lp126
I3
aI6
aI1
aI1
aI2
aI3
aI1
aI1
aI3
aI3
aI2
aI2
aI4
aI4
asVhttps://www.reddit.com/r/fantasyhockey/comments/1phm5l/not_busy_all_day_will_answer_any_and_all_questions/
p127
(lp128
I0
aI3
aI1
aI4
aI1
aI2
aI4
aI3
aI4
aI9
aI2
aI3
aI1
aI3
aI3
aI1
aI2
aI4
aI2
aI3
aI1
aI3
aI1
aI2
aI2
aI2
aI1
aI3
aI1
aI1
aI3
aI2
aI2
aI4
aI3
aI2
aI2
aI3
aI3
aI3
aI2
asVhttps://www.reddit.com/r/sales/comments/4jboyd/i_just_finished_reading_my_first_sales_book_and/
p129
(lp130
I11
aI22
aI4
aI3
aI2
aI1
aI5
aI1
aI7
aI3
aI47
aI2
aI2
asVhttps://www.reddit.com/r/fatestaynight/comments/3h5f1b/fhollow_ataraxia_voice_patch_question/
p131
(lp132
I4
aI2
aI2
aI1
aI2
aI3
aI3
aI6
aI3
aI2
aI2
aI3
aI5
aI6
aI5
aI1
aI3
aI2
aI2
aI1
aI10
aI5
aI1
aI2
aI4
aI1
aI4
aI1
aI1
aI2
aI1
asVhttps://www.reddit.com/r/OSU/comments/2mi0p4/got_a_jaywalking_ticket_is_it_worth_it_to_contest/
p133
(lp134
I2
aI2
aI2
aI1
aI1
aI1
aI1
aI1
aI1
aI2
aI1
aI1
aI1
aI1
aI3
aI1
aI1
asVhttps://www.reddit.com/r/offmychest/comments/2p37rx/i_am_on_the_look_out_for_another_manwhile_with_my/
p135
(lp136
I25
aI10
aI8
aI4
aI5
aI7
aI4
aI2
aI6
asVhttps://www.reddit.com/r/opieandanthony/comments/2sy4na/burr_cumia_and_norton_would_have_been_the_perfect/
p137
(lp138
I3
aI4
aI1
aI1
aI2
aI3
aI2
aI1
aI5
aI12
aI3
aI4
aI1
aI1
aI1
aI2
aI2
aI1
aI3
aI3
aI1
aI6
aI6
aI2
aI1
aI5
aI1
aI3
aI1
aI1
aI3
aI3
aI2
aI2
aI1
aI5
aI7
aI5
aI1
aI1
asVhttps://www.reddit.com/r/ota/comments/4agn5d/hauppauge_new_4x_atsc_tuner_card_99/
p139
(lp140
I1
aI8
aI3
aI4
aI2
aI7
aI6
asVhttps://www.reddit.com/r/design_critiques/comments/31l9ka/logobusiness_cardswebsite_design_student_in_final/
p141
(lp142
I4
aI12
aI8
aI12
aI11
aI8
aI7
asVhttps://www.reddit.com/r/techsupport/comments/1ia3vt/laptop_seems_weaker_than_it_should_be/
p143
(lp144
I7
aI2
aI3
aI5
aI4
aI2
aI1
aI4
aI3
asVhttps://www.reddit.com/r/synthesizers/comments/22mrsf/inside_of_pocket_piano_gr_uses_the_same_pcb_as/
p145
(lp146
I4
aI1
aI3
aI1
aI2
aI2
aI5
aI4
aI1
aI1
aI3
asVhttps://www.reddit.com/r/casualiama/comments/4f9l1e/super_knowledgeable_on_plants_fashion_and_strange/
p147
(lp148
I1
aI1
aI2
aI1
aI3
aI3
aI1
aI1
aI3
aI2
aI1
aI5
aI2
aI6
aI1
aI3
aI6
aI3
aI1
aI2
aI2
aI3
aI3
aI4
aI1
aI2
aI2
aI2
aI2
aI2
aI3
aI2
aI2
aI2
aI4
aI2
aI3
aI2
aI1
aI1
aI4
asVhttps://www.reddit.com/r/gaming/comments/yq9cl/dark_souls_pc_controls_are_funky/
p149
(lp150
I2
aI3
aI1
aI3
aI2
aI2
aI5
asVhttps://www.reddit.com/r/guns/comments/2lox2o/talk_me_out_of_a_ruger_ar556/
p151
(lp152
I3
aI1
aI2
aI3
aI2
aI3
aI4
aI4
aI1
aI2
aI2
aI1
aI2
aI1
aI4
aI1
aI1
aI1
aI3
aI2
aI1
aI2
aI1
aI1
aI2
aI3
aI1
aI1
aI3
aI5
aI3
aI1
aI3
aI2
aI1
aI4
aI2
aI2
aI2
asVhttps://www.reddit.com/r/keto/comments/1sewkc/thinking_about_trying_keto/
p153
(lp154
I7
aI3
aI4
aI1
aI1
aI4
aI9
aI1
aI1
aI6
aI4
aI9
aI2
aI1
asVhttps://www.reddit.com/r/audioengineering/comments/4iyyr2/plugin_chain_or_track_effects/
p155
(lp156
I10
aI6
aI6
aI5
aI5
aI3
aI2
aI3
aI5
aI5
aI2
aI4
aI5
aI6
aI2
aI3
aI1
aI6
aI3
aI6
aI2
aI1
aI3
asVhttps://www.reddit.com/r/leagueoflegends/comments/3gexqm/lunity_the_bounty_hunter/
p157
(lp158
I0
aI1
aI1
aI1
aI1
aI1
aI1
aI1
aI1
aI1
aI1
asVhttps://www.reddit.com/r/cpp_questions/comments/43b0bh/difference_between_const_string_s_string_and/
p159
(lp160
I9
aI4
aI7
aI4
aI5
aI3
aI6
aI6
aI3
aI4
aI5
aI4
aI3
asVhttps://www.reddit.com/r/NoStupidQuestions/comments/49vjo5/i_accidentally_left_my_laundry_in_the_washing/
p161
(lp162
I3
aI2
aI4
aI6
aI2
aI4
aI4
aI3
aI1
aI5
aI3
aI3
aI2
aI1
aI1
aI3
aI5
aI2
aI2
aI1
aI2
aI2
aI3
aI3
aI4
aI3
aI2
aI1
aI5
aI1
aI4
aI2
aI3
aI2
aI3
aI3
asVhttps://www.reddit.com/r/relationships/comments/3fwitf/me_20_f_with_my_friends_20sf_of_about_a_year_i/
p163
(lp164
I46
aI2
aI4
aI3
aI5
aI7
aI6
aI6
asVhttps://www.reddit.com/r/bipolar/comments/39hfh6/mixed_state_what_does_it_mean_to_you/
p165
(lp166
I4
aI6
aI6
aI1
aI2
aI1
aI1
aI3
aI1
aI1
aI2
asVhttps://www.reddit.com/r/politics/comments/4hhb4b/for_top_federal_contractors_investments_in/
p167
(lp168
I0
aI3
aI2
aI3
aI6
aI11
aI2
aI1
aI1
asVhttps://www.reddit.com/r/ultimate/comments/43qnuz/up_line_flick_vs_lefty_backhand/
p169
(lp170
I2
aI7
aI8
aI2
aI4
aI3
aI3
aI2
aI3
aI2
aI3
aI6
aI1
aI9
aI3
aI1
aI1
aI2
aI1
aI1
aI2
aI3
aI7
aI1
aI3
aI2
asVhttps://www.reddit.com/r/windows8/comments/1lln1p/need_help_with_games_on_windows_8/
p171
(lp172
I6
aI2
aI3
aI1
aI1
aI1
aI2
aI1
aI1
aI4
aI1
aI2
aI14
asVhttps://www.reddit.com/r/darksouls3/comments/40cskn/question_about_socalled_fanservice/
p173
(lp174
I4
aI11
aI2
aI10
aI5
aI6
aI4
aI1
aI7
aI2
aI7
aI3
aI3
aI1
aI2
aI1
aI7
aI21
aI9
aI3
aI1
aI1
aI11
aI4
aI1
aI3
aI3
aI11
aI2
aI6
aI1
aI2
aI1
aI2
aI1
aI3
aI1
aI1
aI1
aI4
aI1
asVhttps://www.reddit.com/r/Charadefensesquad/comments/4jh0ir/chara_did_kill_someone/
p175
(lp176
I1
aI6
aI1
aI10
aI2
aI7
aI2
aI5
aI2
aI11
aI1
aI2
aI19
asVhttps://www.reddit.com/r/tarnation/comments/35m2xp/anyone_on_elder_scrolls_online/
p177
(lp178
I0
aI2
aI1
aI2
aI3
aI1
aI2
aI1
aI2
aI2
aI1
aI2
asVhttps://www.reddit.com/r/ffxiv/comments/nfgpb/cant_log_in_to_ffxiv/
p179
(lp180
I3
aI3
aI3
aI2
aI1
aI3
aI2
aI1
aI2
aI3
asVhttps://www.reddit.com/r/mathriddles/comments/31bwr3/the_magic_chessboard/
p181
(lp182
I1
aI2
aI1
aI3
aI1
aI5
aI2
aI1
aI1
aI5
aI2
asVhttps://www.reddit.com/r/sticker/comments/s633l/thanks_to_user_caseyl_for_those_dope_stickers/
p183
(lp184
I0
aI2
aI2
aI1
aI1
aI1
aI1
aI2
aI2
aI2
aI3
aI1
aI1
aI2
asVhttps://www.reddit.com/r/ffxiv/comments/1ljuxe/got_in/
p185
(lp186
I1
aI3
aI1
aI1
aI1
aI1
aI1
aI2
aI1
aI1
aI3
aI1
aI2
asVhttps://www.reddit.com/r/slashdiablo/comments/463x39/ft_crafter_pack_40_ral_40_p_amethyst/
p187
(lp188
I2
aI1
aI1
aI1
aI1
aI1
aI1
aI2
aI1
aI1
aI2
asVhttps://www.reddit.com/r/pcmasterrace/comments/2ntwgv/so_i_showed_my_mom_a_4k_resolution_tv_at_the/
p189
(lp190
I11
aI1
aI1
aI2
aI10
aI1
aI3
aI2
aI1
aI1
aI3
aI1
aI1
aI2
aI1
aI5
aI1
aI8
aI1
aI5
aI2
aI3
aI2
aI1
aI2
aI1
aI4
aI1
aI1
aI1
aI2
aI1
aI2
aI2
aI1
aI1
aI1
aI4
aI2
asVhttps://www.reddit.com/r/Steam/comments/39mnsy/non_steam_game_compatibility_with_steam_link/
p191
(lp192
I2
aI1
aI1
aI1
aI2
aI3
aI1
asVhttps://www.reddit.com/r/networking/comments/27puqu/so_what_do_you_guys_think_about_the_juniper_and/
p193
(lp194
I4
aI7
aI3
aI2
aI2
aI9
aI3
aI2
aI5
aI6
aI1
aI3
aI1
aI3
aI3
aI2
aI3
aI2
aI2
aI1
aI2
aI10
asVhttps://www.reddit.com/r/casualiama/comments/1cwgu0/i_just_want_to_be_the_center_of_attention_for_a/
p195
(lp196
I2
aI1
aI1
aI1
aI3
aI1
aI3
aI1
aI1
aI4
aI1
aI2
aI1
aI3
aI1
aI3
aI1
aI2
aI1
aI1
aI2
aI1
aI1
aI2
aI2
asVhttps://www.reddit.com/r/explainlikeimfive/comments/20hg9k/eli5_how_do_airplanes_not_show_up_everywhere_on/
p197
(lp198
I0
aI2
aI2
asVhttps://www.reddit.com/r/buildapcforme/comments/4bslx4/hey_all_i_require_assistance_in_upgradingbuilding/
p199
(lp200
I39
aI16
aI7
aI15
aI5
aI1
aI7
aI6
aI2
aI1
aI1
aI1
aI4
aI1
aI1
asVhttps://www.reddit.com/r/chemistry/comments/1983z2/chemistry_work_reu_for_summer/
p201
(lp202
I6
aI6
aI2
aI4
aI1
aI5
aI4
aI3
aI2
aI2
aI3
aI1
aI1
asVhttps://www.reddit.com/r/PrettyLittleLiars/comments/3etxrj/your_friend_and_ally_the_painting_and_charles/
p203
(lp204
I8
aI5
aI4
aI2
aI4
aI3
aI2
aI3
aI5
aI2
aI2
aI2
aI1
aI4
aI2
aI2
aI4
aI3
aI1
aI1
aI2
aI5
aI3
aI2
aI2
aI1
aI1
asVhttps://www.reddit.com/r/lgg2/comments/37u2c4/wifi_cant_go_above_42_mbit/
p205
(lp206
I1
aI2
aI1
aI3
aI2
aI2
aI1
aI2
asVhttps://www.reddit.com/r/leagueoflegends/comments/28ww7w/tips_on_how_to_play_against_fiora/
p207
(lp208
I1
aI2
aI4
aI2
aI3
aI1
aI4
aI3
aI10
asVhttps://www.reddit.com/r/leagueoflegends/comments/1pfegm/drop_the_d1bomb_and_get_1k_karma/
p209
(lp210
I7
aI5
aI1
aI3
aI4
aI8
aI8
aI4
aI5
asVhttps://www.reddit.com/r/relationship_advice/comments/i37nf/2_year_dating_anniversary_coming_up_yet_im_going/
p211
(lp212
I8
aI3
aI3
aI2
aI7
aI4
aI9
aI5
asVhttps://www.reddit.com/r/madisonwi/comments/3c6y6y/weekly_catchall_july_05_2015/
p213
(lp214
I66
aI2
aI2
aI2
aI4
aI8
aI12
aI2
aI3
aI3
aI1
aI1
aI1
aI2
aI1
aI1
aI3
aI1
aI1
aI1
aI3
aI5
asVhttps://www.reddit.com/r/AskReddit/comments/1at5ow/what_book_do_you_think_is_beautifully_written/
p215
(lp216
I1
aI2
aI3
aI2
aI5
aI1
aI3
aI3
aI2
aI2
aI1
aI2
aI1
aI2
aI1
aI1
aI1
aI1
asVhttps://www.reddit.com/r/starcraft/comments/2nej87/anybody_from_logitech_g_or_myi_here/
p217
(lp218
I7
aI3
aI1
aI1
aI1
aI1
aI1
aI1
aI2
asVhttps://www.reddit.com/r/feedthebeast/comments/2xpngt/help_me_i_just_want_to_find_an_origin_valley/
p219
(lp220
I6
aI2
aI3
aI5
aI1
aI3
aI3
aI2
aI2
aI1
asVhttps://www.reddit.com/r/WouldYouRather/comments/2fcldn/wyr_always_have_a_wasp_within_15_feet_of_you_or/
p221
(lp222
I0
aI7
aI3
aI4
aI1
aI1
aI2
aI2
aI3
aI3
aI4
aI2
aI3
aI1
aI4
aI5
aI1
aI3
aI2
aI2
aI1
aI1
aI3
aI5
aI3
aI4
aI2
aI1
aI1
aI3
aI3
aI1
aI1
aI4
aI3
aI2
aI2
aI4
aI3
asVhttps://www.reddit.com/r/minecraftsuggestions/comments/4lkmjl/named_items_dont_despawn/
p223
(lp224
I0
aI1
aI4
aI1
aI6
aI1
aI2
aI3
aI2
aI2
aI3
asVhttps://www.reddit.com/r/PS3/comments/1p0pwq/how_can_i_listen_to_game_audio_with_bluetooth/
p225
(lp226
I5
aI2
aI4
aI3
aI2
aI4
aI1
aI1
aI2
asVhttps://www.reddit.com/r/bakchodi/comments/1ewiap/saar_muslims_suxxawar_gr8_nation_belaang_2/
p227
(lp228
I1
aI2
aI1
aI1
aI1
aI5
aI9
aI13
aI1
aI2
aI2
aI1
aI3
aI1
aI1
aI2
aI2
asVhttps://www.reddit.com/r/stopdrinking/comments/221tiw/well_this_might_be_it_about_to_hit_bottom_bottom/
p229
(lp230
I30
aI8
aI2
aI6
aI2
aI8
aI5
aI5
aI4
aI3
aI2
aI6
aI2
aI20
aI3
aI9
aI2
aI4
aI9
aI5
aI4
aI3
aI2
aI5
aI4
aI3
aI5
aI11
aI4
aI1
aI2
aI2
aI11
aI3
aI2
aI4
asVhttps://www.reddit.com/r/dreamcast/comments/4f3yct/mod_request/
p231
(lp232
I8
aI4
aI2
aI3
aI3
aI1
aI2
asVhttps://www.reddit.com/r/LetsNotMeet/comments/1m7acm/how_my_dad_convinced_me_never_to_hitchhike/
p233
(lp234
I27
aI2
aI2
aI3
aI2
aI3
aI2
aI2
aI6
aI1
aI2
aI3
aI1
aI1
aI5
aI2
aI1
aI1
aI1
aI5
aI3
aI2
aI1
aI1
aI4
aI1
aI3
aI2
aI2
asVhttps://www.reddit.com/r/steroids/comments/1mpn03/lab_results_baseline_can_you_interpret_if_okay/
p235
(lp236
I5
aI1
aI6
aI2
aI4
aI2
asVhttps://www.reddit.com/r/NHLHUT/comments/3ybp3f/mov_kreider_vs_thornton_upgrade_possibility/
p237
(lp238
I5
aI1
aI3
aI1
aI1
aI1
aI2
aI1
aI1
aI2
aI2
aI2
aI1
aI2
aI2
aI1
asVhttps://www.reddit.com/r/ecigclassifieds/comments/250bpe/mvp_v2/
p239
(lp240
I1
aI2
aI1
aI3
aI1
aI2
aI1
asVhttps://www.reddit.com/r/saplings/comments/3c2666/advice_acquiring_dealerpickup/
p241
(lp242
I6
aI3
aI3
aI13
aI4
aI5
aI2
aI9
aI3
aI4
aI3
aI2
aI5
aI2
aI1
aI2
aI5
asVhttps://www.reddit.com/r/AskReddit/comments/whdiq/is_admiring_someone_off_facebook_creepy/
p243
(lp244
I14
aI1
aI4
aI5
aI2
aI2
aI6
aI6
aI8
aI4
aI5
aI3
asVhttps://www.reddit.com/r/TumblrInAction/comments/2kc134/a_lesson_in_sjw_biology/
p245
(lp246
I0
aI2
aI6
aI1
aI1
aI6
aI5
aI4
aI2
aI2
aI1
aI1
aI3
aI1
aI2
aI6
aI3
aI1
aI4
aI1
aI1
aI3
aI4
aI5
aI1
aI2
aI1
aI2
aI2
aI1
aI2
aI3
aI1
aI11
aI2
aI4
aI1
aI9
aI2
aI2
asVhttps://www.reddit.com/r/wow/comments/4i28qi/your_game_account_showing_korea_kr_account/
p247
(lp248
I7
aI2
aI3
aI1
aI2
aI3
aI2
aI2
asVhttps://www.reddit.com/r/rupaulsdragrace/comments/36xmbc/now_that_the_duggars_are_off_tlc_maybe_rdr_can/
p249
(lp250
I1
aI1
aI1
aI1
aI1
aI1
aI2
aI3
aI1
aI1
aI1
aI1
aI3
aI3
aI1
asVhttps://www.reddit.com/r/prowrestling/comments/jos4q/is_the_money_in_the_bank_briefcase_really_a_good/
p251
(lp252
I17
aI2
aI2
aI6
aI14
aI4
aI2
aI4
aI2
aI1
aI2
aI4
aI4
aI1
aI2
aI1
aI6
aI3
aI3
aI4
aI2
aI8
aI3
aI2
aI2
asVhttps://www.reddit.com/r/DestinyTheGame/comments/2qkek2/explaining_destiny_to_your_so_parents/
p253
(lp254
I21
aI2
aI2
aI1
aI1
aI2
aI4
aI1
aI1
aI6
aI4
aI2
aI4
aI1
aI4
asVhttps://www.reddit.com/r/britishproblems/comments/4ilzux/this_very_british_problems_tv_program_is_shit/
p255
(lp256
I1
aI2
aI2
aI1
aI1
aI1
aI2
aI1
aI1
aI2
aI1
aI1
aI1
aI1
aI1
aI2
aI3
aI1
aI6
aI2
aI2
aI3
aI2
aI1
aI1
aI2
aI1
aI1
aI5
aI2
aI1
aI1
aI2
aI1
aI2
aI1
aI1
aI1
aI2
aI1
asVhttps://www.reddit.com/r/politics/comments/hoxjn/ok_downvote_if_this_is_stupid_but_i_do_it_to/
p257
(lp258
I9
aI2
aI4
aI2
aI4
aI6
aI5
aI1
aI5
aI8
aI7
aI1
asVhttps://www.reddit.com/r/depression/comments/4lm0xz/you_know_you_live_a_sad_existence_when/
p259
(lp260
I3
aI5
aI2
aI1
aI8
aI1
aI4
aI1
aI2
aI1
aI1
aI1
aI4
aI1
aI1
aI13
aI1
aI2
aI2
aI3
aI1
aI1
aI1
aI7
aI6
aI2
aI3
aI2
aI3
aI3
aI1
aI2
aI2
aI2
aI1
aI2
aI1
aI2
asVhttps://www.reddit.com/r/XMenRP/comments/2e8gmj/dinner_218/
p261
(lp262
I8
aI3
aI4
aI2
aI1
aI2
aI1
aI2
aI2
aI1
aI1
aI1
aI1
aI7
aI1
aI2
aI1
aI2
aI1
aI1
aI1
aI3
aI1
aI1
aI1
aI4
aI2
aI1
aI3
aI2
aI3
aI1
aI2
aI3
aI1
aI1
aI1
aI2
aI2
aI5
aI3
asVhttps://www.reddit.com/r/pcmasterrace/comments/35uz52/i_dont_play_by_your_surround_rules_nvidia/
p263
(lp264
I0
aI3
aI1
aI2
aI2
aI3
aI2
aI1
aI2
aI2
aI1
aI3
aI1
aI4
aI1
aI6
aI2
aI1
aI1
aI6
aI2
aI2
aI2
aI2
aI2
aI1
aI1
aI1
aI3
aI1
asVhttps://www.reddit.com/r/CrusaderKings/comments/2vxvko/question_on_culture_conversion_english_culture/
p265
(lp266
I2
aI2
aI1
aI9
aI1
aI5
aI3
asVhttps://www.reddit.com/r/buildapc/comments/3amzre/build_ready_second_build_woo/
p267
(lp268
I24
aI1
aI1
aI2
aI2
aI3
aI2
aI1
aI2
aI1
aI1
aI1
aI3
aI2
aI3
aI2
aI6
aI1
aI2
aI2
aI1
aI3
asVhttps://www.reddit.com/r/running/comments/oclfu/been_running_for_3_months_little_or_no_progress/
p269
(lp270
I9
aI4
aI6
aI9
aI25
aI5
aI1
aI11
aI2
aI7
aI2
aI2
aI2
aI4
aI4
aI1
aI2
aI8
aI5
aI18
aI2
aI2
aI2
aI1
aI5
aI2
aI2
aI2
aI7
aI12
aI11
aI24
aI6
aI4
aI1
aI3
aI1
asVhttps://www.reddit.com/r/WhoWouldWinVerse/comments/4cbyp5/super_tantrum/
p271
(lp272
I5
aI3
aI2
aI3
aI2
aI3
aI2
aI2
aI1
aI3
aI6
aI4
aI4
aI2
aI3
aI3
aI2
aI4
aI4
aI10
aI6
aI3
aI2
aI2
aI4
aI3
aI5
aI5
aI4
aI3
aI4
aI3
aI7
aI7
aI3
aI1
aI2
aI4
aI7
aI5
aI8
asVhttps://www.reddit.com/r/Fitness/comments/yogjv/hello_fittit_i_am_looking_for_advice_on_weight/
p273
(lp274
I23
aI3
aI17
aI8
aI2
aI2
aI3
aI2
aI1
aI3
aI3
aI2
asVhttps://www.reddit.com/r/cpp_questions/comments/2k6wa6/fsteam_think/
p275
(lp276
I7
aI3
aI1
aI1
aI1
aI2
aI1
aI1
aI2
aI3
aI2
aI1
asVhttps://www.reddit.com/r/techsupport/comments/2gbg5d/how_can_i_boot_my_pc_into_bios/
p277
(lp278
I1
aI2
aI2
aI1
aI1
aI2
aI1
aI2
asVhttps://www.reddit.com/r/diablo3/comments/2r147m/i_feel_like_i_really_suck/
p279
(lp280
I3
aI1
aI2
aI2
aI1
aI2
aI5
aI1
aI1
aI1
aI17
asVhttps://www.reddit.com/r/truegaming/comments/3icl63/jrpgs_of_the_type_popular_in_the_late_90s_and/
p281
(lp282
I52
aI3
aI7
aI11
aI15
aI5
aI13
aI6
aI4
aI3
aI4
aI7
aI8
aI5
aI2
aI5
aI6
aI2
aI4
aI2
aI3
aI2
aI2
aI1
aI22
aI2
aI1
aI2
aI2
aI1
aI6
aI4
aI2
aI7
aI6
aI3
aI3
aI14
aI18
aI3
aI4
asVhttps://www.reddit.com/r/xboxone/comments/3795w4/due_to_winning_your_xbox_live_reputation_has/
p283
(lp284
I14
aI1
aI5
aI2
aI1
aI7
aI3
aI8
aI1
aI1
aI7
aI4
aI1
aI3
aI4
aI1
aI2
aI2
aI3
aI3
aI4
aI4
aI1
aI2
aI1
asVhttps://www.reddit.com/r/cigars/comments/q2q03/could_use_some_help_remembering_an_old_fav/
p285
(lp286
I9
aI3
aI3
aI3
aI2
aI2
asVhttps://www.reddit.com/r/buildapc/comments/2akgqz/discussion_non_modular_psus/
p287
(lp288
I3
aI1
aI3
aI2
aI7
aI1
aI1
aI1
aI2
aI1
aI2
aI2
aI2
aI3
aI2
aI1
aI2
aI3
aI4
asVhttps://www.reddit.com/r/pathofexile/comments/1906i8/login_screen_lags_me_bad_any_way_to_fix_this/
p289
(lp290
I2
aI1
aI4
aI3
aI1
aI1
aI1
asVhttps://www.reddit.com/r/buildapc/comments/2z15gi/troubleshooting_im_on_the_verge_of_a_mental/
p291
(lp292
I8
aI2
aI2
aI3
aI4
aI4
aI9
aI8
aI9
aI4
aI7
aI1
aI13
asVhttps://www.reddit.com/r/roguelikes/comments/4im8e6/dcss_need_help_with_my_2rune_mibe/
p293
(lp294
I24
aI20
aI11
aI9
aI4
aI12
aI12
aI12
aI14
aI12
aI2
aI9
aI2
aI4
asVhttps://www.reddit.com/r/personalfinance/comments/2yabw2/just_got_hired_at_my_first_jobwhat_should_i_know/
p295
(lp296
I7
aI14
aI1
aI15
aI6
aI11
aI3
aI6
aI5
aI1
aI4
aI2
aI3
aI2
aI1
aI2
aI4
aI2
aI2
aI2
aI1
aI4
aI1
aI1
aI5
aI2
aI3
aI1
aI2
aI3
aI2
asVhttps://www.reddit.com/r/wardrobepurge/comments/29up04/sell_dresses_shoes_and_tops_sizes_xss/
p297
(lp298
I9
aI3
aI1
aI2
aI2
aI3
aI1
aI2
asVhttps://www.reddit.com/r/dogecoin/comments/2pic6g/help_my_broken_wallet_cant_update/
p299
(lp300
I6
aI1
aI3
aI16
aI9
aI1
aI1
aI2
aI7
aI3
aI1
aI1
aI1
aI1
aI1
aI1
aI1
asVhttps://www.reddit.com/r/heroesofthestorm/comments/3dx6rs/somethings_odd_about_the_map_rotation/
p301
(lp302
I3
aI4
aI1
aI1
aI1
aI4
aI1
aI1
aI1
aI1
aI4
aI2
aI3
aI1
aI1
aI8
asVhttps://www.reddit.com/r/wheelanddeal/comments/28px2z/ps3_ng_15m/
p303
(lp304
I5
aI2
aI1
aI6
aI2
aI6
aI1
aI3
aI1
aI2
aI1
asVhttps://www.reddit.com/r/jailbreak/comments/2ljviy/my_remaining_jailbreak_issues_care_to_help_out_if/
p305
(lp306
I28
aI5
aI3
aI6
aI25
aI11
aI2
aI5
aI3
aI15
aI1
aI1
aI4
aI2
asVhttps://www.reddit.com/r/DestinyTheGame/comments/2x8l5o/suggestion_an_exotic_vendor_not_xur/
p307
(lp308
I15
aI1
aI2
aI1
aI4
aI7
aI2
aI3
aI1
aI4
aI3
aI3
aI2
aI3
aI4
aI6
aI13
aI5
aI15
asVhttps://www.reddit.com/r/Drugs/comments/3fludd/curious_what_every_bodies_personal_relationship/
p309
(lp310
I1
aI1
aI5
aI2
aI1
aI3
aI7
aI5
aI1
aI2
aI4
aI12
aI3
aI4
aI3
aI5
aI2
aI3
aI1
aI7
aI5
aI3
aI2
aI2
aI2
aI1
aI2
aI2
aI29
aI2
aI1
aI2
aI1
aI3
aI7
aI1
aI8
aI2
aI3
aI5
aI1
asVhttps://www.reddit.com/r/legaladvice/comments/2hk56h/federal_production_of_child_pornography_charge/
p311
(lp312
I9
aI4
aI5
aI7
aI4
aI7
aI9
aI3
aI5
aI1
aI2
aI6
aI2
aI4
asVhttps://www.reddit.com/r/puns/comments/1zts00/a_friend_and_i_were_talking_about_a_book/
p313
(lp314
I0
aI2
aI1
aI3
aI1
aI2
aI3
aI1
asVhttps://www.reddit.com/r/coolermaster/comments/1h30gi/is_there_a_program_for_controlling_fan_speeds_for/
p315
(lp316
I2
aI1
aI3
aI5
aI3
aI2
aI3
aI1
asVhttps://www.reddit.com/r/matheducation/comments/4iuuvh/i_have_a_simple_math_question_and_dont_know_where/
p317
(lp318
I3
aI2
aI1
aI7
aI3
aI5
aI5
aI4
aI16
aI4
aI1
aI6
aI1
aI2
aI3
aI1
aI2
asVhttps://www.reddit.com/r/Rainbow6/comments/4daitq/psa_if_you_keep_receiving_connection_error_switch/
p319
(lp320
I3
aI1
aI2
aI2
aI1
aI1
aI2
aI2
aI1
aI3
aI1
aI4
aI3
aI4
aI7
aI7
asVhttps://www.reddit.com/r/findareddit/comments/1k8z3n/a_subreddit_to_ask_about_how_it_is_to_work_at_a/
p321
(lp322
I2
aI2
aI2
aI1
aI4
aI3
aI3
aI2
aI3
asVhttps://www.reddit.com/r/thedivision/comments/4ce834/got_dz50_already_have_a_number_of_best_in_class/
p323
(lp324
I10
aI5
aI1
aI2
aI2
aI6
aI3
aI4
aI3
aI3
aI1
aI2
aI2
aI1
aI1
aI2
aI2
aI3
aI4
aI3
asVhttps://www.reddit.com/r/whowouldwin/comments/27m29d/tug_of_war_magneto_vs_luke_skywalker/
p325
(lp326
I4
aI6
aI4
aI1
aI4
aI4
aI2
aI3
aI1
aI9
aI1
aI2
aI2
aI4
aI2
aI1
aI1
aI1
aI3
aI1
aI3
aI3
aI1
aI3
aI1
aI2
aI1
aI1
aI1
asVhttps://www.reddit.com/r/DestinyTheGame/comments/3gm2hw/prison_of_elders_retirement_home/
p327
(lp328
I11
aI5
aI4
aI1
aI6
aI5
aI2
aI20
aI4
aI2
aI5
aI3
aI3
aI3
aI5
aI1
aI2
aI1
aI1
aI1
aI1
aI1
aI1
aI2
aI3
aI1
aI2
aI1
aI3
aI1
aI1
aI1
aI1
aI1
aI2
aI2
aI1
aI1
aI1
aI1
aI2
asVhttps://www.reddit.com/r/atheism/comments/dv7d6/need_some_help_here/
p329
(lp330
I2
aI2
aI6
aI1
aI4
aI1
aI3
aI4
aI2
aI2
asVhttps://www.reddit.com/r/createthisworld/comments/4gaaqg/the_outcast_legions_of_vord/
p331
(lp332
I41
aI2
aI7
aI2
aI3
aI2
aI3
aI1
aI1
aI4
aI2
aI1
asVhttps://www.reddit.com/r/YGOBinders/comments/498ado/dave_dzs_trade_binder_h_ulti_effect_veilers/
p333
(lp334
sVhttps://www.reddit.com/r/dayz/comments/11ebf0/been_on_an_extended_dayz_break_where_do_you_get/
p335
(lp336
I0
aI1
aI1
aI1
aI1
aI1
asVhttps://www.reddit.com/r/bleach/comments/16xgg2/reading_chap_510_and_we_saw_as_nodt_steal/
p337
(lp338
I4
aI2
aI2
aI2
aI1
aI3
aI2
aI1
aI1
aI1
aI1
aI1
aI1
asVhttps://www.reddit.com/r/rockhounds/comments/rytez/getting_ready_for_the_spring_show/
p339
(lp340
I6
aI1
aI1
aI2
aI1
aI2
aI2
asVhttps://www.reddit.com/r/civ/comments/1ku71e/warmonger_changes_id_like_to_see/
p341
(lp342
I11
aI1
aI1
aI3
aI1
aI1
asVhttps://www.reddit.com/r/relationships/comments/2192js/i_f22_want_to_move_back_home_to_europe_in_the/
p343
(lp344
I30
aI11
aI3
aI5
aI8
aI1
aI15
aI15
aI1
aI2
aI4
aI2
aI6
aI1
aI10
aI1
aI9
asVhttps://www.reddit.com/r/bourbon/comments/20zo93/what_would_be_the_difference_in_taste_between_a/
p345
(lp346
I3
aI1
aI4
aI1
aI2
aI9
aI3
aI5
aI2
aI2
aI1
aI3
aI3
aI2
aI2
aI1
aI3
aI6
aI5
aI2
aI2
aI7
aI3
aI3
aI1
aI11
aI5
aI11
aI10
aI9
asVhttps://www.reddit.com/r/buildapc/comments/2akcng/build_ready_ready_to_go_for_it_looking_for/
p347
(lp348
I3
aI3
aI4
aI2
aI1
aI2
aI1
aI17
aI3
asVhttps://www.reddit.com/r/skyrimmods/comments/1kqg1q/looking_for_some_clarification/
p349
(lp350
I6
aI5
aI2
aI5
aI5
aI10
aI7
aI6
aI3
asVhttps://www.reddit.com/r/mwo/comments/45ts2g/i_get_an_error_anytime_i_change_settings_please/
p351
(lp352
I1
aI4
aI4
aI4
aI1
aI2
aI1
asVhttps://www.reddit.com/r/DuelingCorner/comments/topeg/the_rematch_of_gallantgunslinger_and/
p353
(lp354
I5
aI5
aI1
aI2
aI4
aI3
aI2
aI2
aI3
aI5
aI3
asVhttps://www.reddit.com/r/relationship_advice/comments/38ciyx/about_my_fwb_24m_and_myself_19f_i_need_advice/
p355
(lp356
I62
aI3
aI3
aI3
aI4
aI2
aI7
aI19
aI2
asVhttps://www.reddit.com/r/saskatoon/comments/wg40d/cyclists_looking_for_shelter/
p357
(lp358
I7
aI2
aI1
aI2
aI2
aI1
aI2
aI5
aI5
aI2
aI2
aI3
asVhttps://www.reddit.com/r/GirlGamers/comments/38qj9l/what_would_you_do_if_bethesda_used_the_female/
p359
(lp360
I3
aI4
aI1
aI2
aI2
aI4
aI1
aI2
aI3
aI9
aI1
aI1
aI7
aI3
aI1
aI1
aI5
aI3
aI13
aI1
aI5
aI4
aI1
aI1
aI3
aI2
aI3
aI3
aI7
aI1
aI1
aI2
aI1
aI3
aI3
aI2
aI1
aI1
aI1
aI2
aI4
asVhttps://www.reddit.com/r/googleglass/comments/1s3iaf/glass_question_left_eye_dominant/
p361
(lp362
I1
aI5
aI4
aI3
aI2
aI3
aI1
aI3
aI2
asVhttps://www.reddit.com/r/MonsterHunter/comments/1wo0zc/any_news_on_monhun_4s_weapon_mechanics/
p363
(lp364
I4
aI21
aI7
aI4
aI1
aI2
aI2
aI1
aI3
aI1
aI8
aI1
aI2
aI2
aI1
aI2
aI3
aI1
aI3
asVhttps://www.reddit.com/r/TheWitness/comments/49uqyv/spoilers_can_i_just_whine_about_the_shipwreck_for/
p365
(lp366
I19
aI4
aI4
aI3
aI5
aI6
aI2
aI1
aI6
aI2
aI2
aI8
aI4
aI4
aI1
aI2
aI2
aI2
aI4
aI3
aI1
aI6
aI5
aI4
aI3
aI3
aI3
aI2
asVhttps://www.reddit.com/r/Insurance/comments/430kqh/will_my_rate_go_up_for_failure_to_obey_control/
p367
(lp368
I4
aI3
aI2
aI4
aI6
aI7
aI3
aI4
asVhttps://www.reddit.com/r/makemychoice/comments/1x27uj/should_i_smoke_another_bowl_and_stay_up_watching/
p369
(lp370
I0
aI1
aI1
aI1
aI2
aI2
aI2
aI1
aI2
aI2
aI1
aI1
aI2
aI1
aI2
aI5
aI2
aI3
aI1
aI1
aI1
aI1
aI1
aI1
aI2
aI1
aI1
aI3
aI1
aI1
aI2
aI1
aI2
aI1
aI2
aI1
aI1
aI4
aI2
aI1
aI1
asVhttps://www.reddit.com/r/MonsterHunter/comments/2xll8o/when_do_weapons_show_up_at_the_blacksmith_for_the/
p371
(lp372
I2
aI1
aI1
aI3
aI2
aI1
aI2
aI3
aI1
aI3
aI1
asVhttps://www.reddit.com/r/talesfromtechsupport/comments/3cl41f/can_you_please_open_this_backpack/
p373
(lp374
I38
aI1
aI2
aI1
aI2
aI1
aI1
aI1
aI2
aI1
aI3
aI4
aI1
aI1
aI1
aI3
aI1
aI1
aI2
aI1
aI1
aI2
aI5
aI1
aI1
asVhttps://www.reddit.com/r/trees/comments/o4xpj/my_friend_said_to_me_you_only_enjoy_smoking_trees/
p375
(lp376
I0
aI1
aI1
aI9
aI5
aI6
aI3
aI2
aI3
asVhttps://www.reddit.com/r/Aquariums/comments/2uesut/whats_the_name_of_your_lfs_in_your_home_town/
p377
(lp378
I2
aI1
aI1
aI1
aI1
aI1
aI5
aI1
aI1
aI1
aI2
aI2
aI3
aI10
aI2
aI2
aI2
aI3
aI3
aI2
aI1
aI2
aI1
aI2
aI10
aI4
aI2
aI1
aI2
aI2
aI1
aI2
aI1
aI1
aI2
asVhttps://www.reddit.com/r/iOSthemes/comments/2hnyrw/lbi_signalwifi_revamp/
p379
(lp380
I7
aI2
aI5
aI6
aI1
aI2
aI2
aI6
aI1
aI1
aI3
aI2
aI3
aI4
aI1
aI1
aI1
aI1
aI2
aI1
aI3
aI1
aI1
aI1
aI1
aI1
aI1
aI1
aI1
aI3
asVhttps://www.reddit.com/r/starcraft/comments/h2fnl/there_are_32966_people_here_on_starcraftthats/
p381
(lp382
I2
aI1
aI7
aI2
aI1
aI1
aI1
aI2
aI1
aI2
aI2
aI1
aI2
aI1
aI1
aI2
aI1
aI2
aI2
aI2
aI1
aI1
aI2
aI1
aI1
aI2
aI1
aI1
aI1
aI1
aI1
aI3
aI2
aI1
aI1
aI1
aI1
aI1
aI2
aI2
aI1
asVhttps://www.reddit.com/r/chelseafc/comments/334gki/hazard_chant/
p383
(lp384
I2
aI1
aI1
aI1
asVhttps://www.reddit.com/r/starcraft/comments/1fmdyr/age_versus_race_frequency_data_collection_project/
p385
(lp386
I13
aI9
aI1
aI4
aI1
aI3
aI1
aI1
aI3
aI1
aI5
aI1
aI1
aI1
aI1
aI3
aI13
aI2
aI2
aI1
aI1
aI2
aI1
aI3
aI1
aI2
aI3
aI3
aI2
aI2
aI2
aI1
asVhttps://www.reddit.com/r/AskReddit/comments/18fazr/what_made_you_smile_today/
p387
(lp388
I0
aI3
aI3
aI3
aI1
aI1
aI2
aI4
aI2
aI1
aI1
aI4
aI3
aI2
aI1
aI2
aI1
aI2
aI1
aI1
aI2
aI1
aI1
aI2
aI1
aI2
aI1
aI3
aI6
asVhttps://www.reddit.com/r/Silverbugs/comments/4dxoc2/mexican_coin_broker/
p389
(lp390
I1
aI2
aI3
aI4
aI2
aI2
aI3
aI1
aI2
aI1
asVhttps://www.reddit.com/r/bicycling/comments/1rvzzc/carbon_carbon_every_last_part_is_carbon_lunch/
p391
(lp392
I0
aI3
aI2
aI1
aI5
aI3
aI2
aI2
aI1
aI3
aI1
aI5
aI1
aI4
aI3
aI8
aI1
asVhttps://www.reddit.com/r/watch_dogs/comments/286hh6/what_would_you_like_to_see_a_watch_dogs_sequel/
p393
(lp394
I20
aI8
aI1
aI1
aI4
aI2
aI4
aI5
aI2
aI4
aI2
aI25
aI2
aI1
aI4
aI7
aI7
aI8
aI2
aI4
asVhttps://www.reddit.com/r/chicagor4r/comments/2v35ji/29_m4r_drinks_sometime_video_games_lisle_il/
p395
(lp396
I6
aI5
aI4
aI15
aI11
aI21
aI3
asVhttps://www.reddit.com/r/techsupport/comments/32pppl/ide_hdd_not_detected_by_bios_but_is_detected_in/
p397
(lp398
I6
aI3
aI2
aI2
aI1
aI4
aI1
aI2
aI1
asVhttps://www.reddit.com/r/WildernessBackpacking/comments/3f5pai/transitioning_from_day_hikes_to_backpackingcamping/
p399
(lp400
I6
aI2
aI6
aI6
aI4
aI13
aI1
aI4
aI6
aI2
aI9
aI12
aI2
aI8
aI4
aI2
aI3
aI2
aI7
aI2
aI3
aI1
aI10
aI5
aI3
aI2
aI2
asVhttps://www.reddit.com/r/facepalm/comments/2r297y/can_someone_please_tell_lindsay_lohan_what_year/
p401
(lp402
I0
aI2
aI1
aI1
aI2
aI2
aI1
aI1
aI2
aI2
aI2
aI1
aI2
aI1
aI1
aI1
aI1
aI1
aI1
aI1
aI1
aI1
aI1
aI2
aI2
aI2
aI1
aI1
aI1
aI2
aI3
aI1
aI1
aI1
aI2
aI2
aI1
aI1
aI5
asVhttps://www.reddit.com/r/sto/comments/4fkz4t/finding_the_istaap_for_an_accolade/
p403
(lp404
I3
aI3
aI3
aI2
aI1
aI2
aI1
aI2
aI3
aI3
asVhttps://www.reddit.com/r/AskLEO/comments/38x3zt/cbp_officer_entrance_exam_questions/
p405
(lp406
I4
aI1
aI1
aI2
aI1
aI1
asVhttps://www.reddit.com/r/mac/comments/2qkixq/buying_13_rmbp_question_about_ssd/
p407
(lp408
I8
aI2
aI5
aI8
aI3
aI1
aI1
aI1
aI3
asVhttps://www.reddit.com/r/leagueoflegends/comments/2tbcqv/why_is_there_no_mana_biscuit_id_love_to_have_one/
p409
(lp410
I1
aI1
aI1
aI1
aI2
aI2
aI2
aI1
aI1
asVhttps://www.reddit.com/r/vegan/comments/4gvirz/help_me_out_guys_is_this_vegan_nesquik_powder/
p411
(lp412
I3
aI1
aI1
aI1
aI2
aI1
aI1
aI1
asVhttps://www.reddit.com/r/techsupport/comments/30ubu9/browser_speed_at_253_mbit_steam_and_torrents_at/
p413
(lp414
I1
aI3
aI4
aI1
aI2
aI6
aI8
asVhttps://www.reddit.com/r/knitting/comments/1rm8ln/advice_on_what_increasedecrease_to_use/
p415
(lp416
I3
aI1
aI2
aI1
aI2
aI1
asVhttps://www.reddit.com/r/fountainpens/comments/22cry1/new_toy_from_pen_place_in_kc/
p417
(lp418
I8
aI1
aI4
aI2
aI1
aI1
aI4
aI2
aI3
aI2
aI3
aI1
aI5
aI1
aI3
aI1
aI2
aI2
aI1
aI3
aI3
aI1
aI2
asVhttps://www.reddit.com/r/flextweak/comments/1tsnm7/requesting_youtube_tutorials/
p419
(lp420
I4
aI1
aI1
aI1
aI2
aI1
aI1
aI4
aI4
aI2
aI1
aI3
aI1
aI1
asVhttps://www.reddit.com/r/wow/comments/2dxx0b/looking_for_healthy_alliance_favored_pve_servers/
p421
(lp422
I5
aI2
aI1
aI2
aI2
aI5
aI5
aI3
asVhttps://www.reddit.com/r/TheNarutoWorld/comments/1wqxyy/looking_for_information_on_taro/
p423
(lp424
I2
aI1
aI1
aI2
aI1
aI1
aI1
aI2
aI2
aI1
aI1
aI1
aI1
aI2
aI1
aI2
aI2
aI1
aI2
aI2
aI3
aI1
aI1
aI2
aI1
aI1
aI1
aI1
aI1
aI2
aI1
aI1
aI1
aI1
aI1
aI2
aI1
aI1
aI1
aI1
aI1
asVhttps://www.reddit.com/r/Cooking/comments/1noffg/what_kinds_of_panspots_for_what_kind_of_dishes/
p425
(lp426
I8
aI14
aI5
aI4
aI3
aI8
aI2
aI1
aI10
aI1
aI5
aI12
aI6
aI26
aI2
asVhttps://www.reddit.com/r/wiiu/comments/1wgjnx/is_it_possible_from_turning_the_wiiu_on_to_play/
p427
(lp428
I7
aI7
aI8
aI3
aI1
aI1
aI1
aI1
aI3
aI2
aI3
aI1
aI2
aI2
aI2
aI6
aI4
aI1
aI1
aI2
aI2
aI1
aI4
aI14
aI3
aI1
aI2
asVhttps://www.reddit.com/r/nba/comments/qyvrv/as_a_warriors_fan_i_am_wary_and_certainly_hopeful/
p429
(lp430
I6
aI1
aI4
aI2
aI3
aI5
aI2
aI1
aI5
aI2
aI4
aI1
asVhttps://www.reddit.com/r/relationships/comments/447mz6/my_m22_girlfriend_f22_consistently_looks_up_her/
p431
(lp432
I1
aI3
aI1
aI2
aI2
aI2
aI1
aI3
aI1
aI1
aI4
aI4
aI2
aI3
aI1
asVhttps://www.reddit.com/r/masseffect/comments/1ddkmv/spoilers_a_crazy_theory_about_the_protheans/
p433
(lp434
I18
aI15
aI10
aI4
aI10
aI1
aI3
aI2
aI3
aI1
aI5
aI1
aI1
aI1
aI10
aI2
aI4
aI5
aI1
aI1
aI1
asVhttps://www.reddit.com/r/woodworking/comments/x8z5u/help_a_newb_understand_the_difference_between_a/
p435
(lp436
I3
aI7
aI1
aI3
aI5
aI2
aI1
aI3
aI2
asVhttps://www.reddit.com/r/RealEstate/comments/4ckzf7/fl_realty_company_wants_double_security_deposit/
p437
(lp438
I5
aI2
aI3
aI2
aI1
aI4
aI2
aI1
aI1
aI2
aI1
aI1
aI1
aI1
aI4
aI3
aI2
aI3
aI2
aI1
aI3
aI1
aI1
aI3
aI2
asVhttps://www.reddit.com/r/conspiracy/comments/2pp5gh/any_conspiracy_theorist_programmers_here_i_need/
p439
(lp440
I3
aI6
aI8
aI1
aI5
aI6
aI2
aI3
aI4
aI3
aI1
aI1
aI1
aI1
aI2
aI1
asVhttps://www.reddit.com/r/webdev/comments/3xrt8y/should_i_be_handwritting_all_my_html/
p441
(lp442
I3
aI5
aI1
aI2
aI1
aI3
aI8
aI5
aI3
aI3
aI2
aI1
aI1
aI5
aI3
aI2
aI3
aI2
aI16
aI3
aI1
asVhttps://www.reddit.com/r/letsplay/comments/39mtd7/facecam_problems_again/
p443
(lp444
I2
aI7
aI4
aI7
aI1
aI1
aI1
aI3
asVhttps://www.reddit.com/r/gaming/comments/pwodg/halo_reach_question/
p445
(lp446
I4
aI6
aI1
aI3
aI1
aI1
aI4
aI1
asVhttps://www.reddit.com/r/buildapc/comments/1slm1o/help_my_build_im_working_on_wont_post/
p447
(lp448
I1
aI3
aI1
aI1
aI2
aI1
aI1
aI1
aI6
aI5
aI3
aI6
aI1
aI3
aI2
aI1
aI4
aI3
aI2
aI1
aI3
asVhttps://www.reddit.com/r/fantasyfootball/comments/2nz95x/how_can_those_of_us_who_are_knocked_out_stay/
p449
(lp450
I2
aI2
aI1
aI1
aI5
aI2
aI3
aI5
aI1
aI3
aI3
aI3
aI5
aI1
aI1
aI5
aI5
aI9
aI2
aI4
aI2
aI1
aI1
aI1
aI1
aI1
asVhttps://www.reddit.com/r/talesfromtechsupport/comments/vz7ep/one_of_my_first_windows_97/
p451
(lp452
I21
aI2
aI1
aI3
aI1
aI2
aI3
aI1
aI4
aI1
aI4
aI1
aI3
aI1
aI1
aI1
aI1
aI1
aI1
aI3
aI1
aI2
aI2
aI4
aI2
aI2
aI2
aI1
aI1
aI1
aI1
aI1
aI2
aI1
aI1
aI1
aI2
aI2
aI1
aI1
aI1
asVhttps://www.reddit.com/r/cycling/comments/2bqd7v/hit_by_a_car_yesterday_bike_and_nerves_are_a/
p453
(lp454
I8
aI4
aI5
aI4
aI6
aI20
aI4
aI14
aI4
aI6
aI5
aI8
aI7
aI7
aI1
aI2
aI3
aI1
aI5
aI3
aI1
aI4
aI5
aI1
aI3
aI2
aI2
aI3
aI1
aI1
aI2
aI3
aI3
aI1
aI1
asVhttps://www.reddit.com/r/LawSchool/comments/2o6sio/does_anyone_have_strict_liability_tort_problems/
p455
(lp456
I2
aI1
aI1
aI2
aI2
aI3
aI4
aI2
aI3
aI5
aI5
aI19
aI4
aI2
aI2
asVhttps://www.reddit.com/r/poecilia/comments/2ic19o/how_common_are_blackchinned_livebearers/
p457
(lp458
I3
aI2
aI3
aI2
aI1
aI1
aI5
aI2
aI1
asVhttps://www.reddit.com/r/electricians/comments/3ie2sz/single_wall_outlet_failure_usa/
p459
(lp460
I10
aI4
aI2
aI12
aI2
aI1
aI2
aI1
aI5
aI1
aI1
aI1
aI1
aI2
aI5
aI2
aI1
aI1
aI3
asVhttps://www.reddit.com/r/buildmeapc/comments/4gh6bj/request_cheapish_low_mid_end_art_pc/
p461
(lp462
I9
aI1
aI18
aI5
aI2
aI9
aI3
asVhttps://www.reddit.com/r/buildapc/comments/12jo5z/troubleshooting_after_installing_video_card/
p463
(lp464
I7
aI3
aI1
aI2
aI1
aI3
aI4
aI5
aI1
asVhttps://www.reddit.com/r/Guitar/comments/n2in9/hey_rguitar_im_auditioning_for_a_music_school_in/
p465
(lp466
I4
aI17
aI2
aI1
aI3
aI6
aI2
aI1
aI5
aI4
aI9
aI2
aI2
aI3
aI1
aI2
aI4
aI3
aI1
aI22
aI7
aI2
aI2
asVhttps://www.reddit.com/r/casualiama/comments/3bna8h/we_eliminated_95_of_red_meat_from_our_diet_on_jan/
p467
(lp468
I0
aI1
aI2
aI2
aI1
aI1
aI5
aI2
aI1
aI2
aI3
aI1
aI1
aI2
aI1
asVhttps://www.reddit.com/r/discgolf/comments/2h2yo2/top_5_disc_of_all_time/
p469
(lp470
I1
aI2
aI2
aI1
aI2
aI8
aI1
aI1
aI1
aI1
aI1
aI1
aI3
aI1
aI1
aI2
aI1
aI1
aI1
aI2
aI2
aI1
aI1
aI4
aI1
aI2
aI5
aI1
aI1
aI1
aI1
aI2
aI6
aI1
aI6
aI1
aI1
aI1
aI1
asVhttps://www.reddit.com/r/mylittlepony/comments/17paj4/this_has_probably_been_asked_before_but_what_are/
p471
(lp472
I3
aI1
aI1
aI2
aI1
aI2
aI5
aI3
aI2
aI3
aI3
aI4
aI1
aI1
aI4
aI1
aI1
aI1
aI1
aI1
aI1
aI2
aI3
aI2
aI1
aI5
aI3
aI2
aI3
aI2
asVhttps://www.reddit.com/r/waterporn/comments/tiuis/river_camel_estuary_padstow_cornwall_720x540/
p473
(lp474
I0
aI2
aI3
aI1
aI2
aI2
aI2
aI2
aI2
aI4
asVhttps://www.reddit.com/r/arma/comments/1fy1xp/system_lags_after_using_thermal_imaging_for_a/
p475
(lp476
I3
aI4
aI1
aI5
aI3
aI6
aI1
aI4
aI2
aI2
aI3
asVhttps://www.reddit.com/r/pcmasterrace/comments/2fcoop/brothers_i_need_your_guidance/
p477
(lp478
I9
aI2
aI6
aI5
aI3
aI5
aI3
aI1
aI4
aI2
aI2
aI4
aI4
aI1
asVhttps://www.reddit.com/r/legaladvice/comments/20kjy9/nj_dui_last_night/
p479
(lp480
I26
aI2
aI2
aI1
aI15
aI2
aI2
aI6
aI12
aI8
aI3
aI3
asVhttps://www.reddit.com/r/flyfishing/comments/3xkx1e/end_of_the_season_in_the_black_forest_in_germany/
p481
(lp482
I0
aI1
aI2
aI1
aI2
aI2
aI2
aI3
asVhttps://www.reddit.com/r/SocialEngineering/comments/xufgo/why_you_should_check_your_flash_player_for_csrf/
p483
(lp484
I6
aI2
aI4
aI2
aI1
aI1
aI1
aI3
asVhttps://www.reddit.com/r/evolution/comments/33hwp1/evolution_of_vestigial_organs/
p485
(lp486
I3
aI8
aI9
aI7
aI2
aI8
aI3
aI5
aI4
aI11
aI1
aI6
aI11
aI5
aI3
aI2
asVhttps://www.reddit.com/r/llsif/comments/3gn1il/en_score_match_11_nico_and_jp_token_event_28/
p487
(lp488
I9
aI1
aI2
aI6
aI3
aI3
aI2
aI3
aI2
aI5
aI7
aI2
aI5
aI4
aI6
aI6
aI7
aI2
aI1
asVhttps://www.reddit.com/r/pcmasterrace/comments/3yk5oc/recently_ascended_games_are_crashing_im_lost_help/
p489
(lp490
I1
aI3
aI3
aI13
aI3
aI4
aI3
aI3
aI4
aI19
aI1
aI2
aI5
aI4
aI3
aI1
aI6
aI6
aI3
aI3
aI7
aI2
aI7
aI8
aI2
aI4
aI3
asVhttps://www.reddit.com/r/trees/comments/3d5gnu/the_future_cannabis_clubs/
p491
(lp492
I0
aI2
aI2
aI3
aI2
aI2
aI2
aI1
aI1
aI3
aI1
aI1
aI1
aI2
aI2
aI2
aI3
aI12
aI1
aI1
aI1
aI1
aI1
aI1
aI1
aI2
aI1
aI2
aI2
aI1
aI1
aI1
aI2
aI1
aI1
aI1
aI2
aI6
aI3
aI2
asVhttps://www.reddit.com/r/AskBattlestations/comments/1ywx3e/im_a_noob/
p493
(lp494
I13
aI3
aI36
aI7
aI1
aI1
aI2
aI2
aI1
aI1
aI1
aI2
asVhttps://www.reddit.com/r/Nexus5/comments/37puhp/got_my_screen_replaced_now_my_led_notification/
p495
(lp496
I2
aI4
aI3
aI1
aI2
aI2
aI1
aI3
aI1
aI3
aI1
aI2
aI1
aI2
aI2
aI1
aI2
aI1
aI3
aI2
aI3
asVhttps://www.reddit.com/r/GPGpractice/comments/4dm0g0/iso_encryption_buddy/
p497
(lp498
I2
aI1
aI3
aI1
aI1
aI2
aI1
aI1
aI1
aI1
aI3
aI1
aI1
asVhttps://www.reddit.com/r/skyrim/comments/mvega/college_of_winterhold_good_intentions_doesnt/
p499
(lp500
I5
aI2
aI4
aI2
aI2
aI7
aI1
asVhttps://www.reddit.com/r/trees/comments/3cv9po/mddcva_residents_any_clues_as_to_when_dc_will/
p501
(lp502
I3
aI3
aI3
aI3
aI4
aI2
asVhttps://www.reddit.com/r/AskHistorians/comments/3g6fd8/i_found_this_dress_at_a_thrift_store_what_era_and/
p503
(lp504
I6
aI4
aI3
aI3
aI1
aI2
aI3
aI10
aI2
asVhttps://www.reddit.com/r/wallstreetbets/comments/4cr53n/gluu_undervalued/
p505
(lp506
I8
aI4
aI1
aI4
aI5
aI2
aI2
aI1
asVhttps://www.reddit.com/r/shittyaskscience/comments/3d2o3o/if_i_have_water_in_my_ear_is_it_safe_to_listen_to/
p507
(lp508
I0
aI1
aI2
aI2
aI2
aI1
aI1
aI1
aI1
aI1
aI1
aI1
aI1
aI1
asVhttps://www.reddit.com/r/LiverpoolFC/comments/g8gde/quick_question_why_do_we_need_to_finish_5th_to/
p509
(lp510
I3
aI3
aI1
aI2
aI1
aI5
aI1
aI1
aI11
asVhttps://www.reddit.com/r/touchpad/comments/ynjp7/up_to_date_cm9_guide/
p511
(lp512
I11
aI1
aI3
aI2
aI2
aI3
aI2
aI1
aI8
aI2
asVhttps://www.reddit.com/r/hearthstone/comments/4ati4h/wow_questing_to_level_20/
p513
(lp514
I2
aI1
aI1
aI2
aI1
aI1
aI2
aI3
aI2
asVhttps://www.reddit.com/r/relationships/comments/3ymw85/how_do_i_20f_tell_my_new_boyfriend_24m_about_my/
p515
(lp516
I10
aI5
aI6
aI11
aI1
aI8
aI6
aI2
aI11
aI16
aI15
aI11
aI1
aI2
aI2
aI1
aI1
aI1
aI3
aI2
aI3
aI1
aI1
aI2
aI1
asVhttps://www.reddit.com/r/1911/comments/35igzp/help_with_a_possible_trade/
p517
(lp518
I12
aI11
aI1
aI3
aI8
aI4
aI2
aI6
asVhttps://www.reddit.com/r/explainlikeimfive/comments/1wa29o/eli5_how_does_nafta_benefit_the_countries_signed/
p519
(lp520
I3
aI2
aI3
aI8
aI3
aI3
aI2
aI1
aI1
asVhttps://www.reddit.com/r/GalaxyS3/comments/179tye/help_was_trying_to_install_cm101_when_the/
p521
(lp522
I0
aI5
aI5
aI4
aI9
aI2
aI5
aI7
aI2
aI1
aI3
aI3
aI2
aI2
aI5
aI2
aI3
asVhttps://www.reddit.com/r/buildapc/comments/41fhwr/troubleshooting_multiple_problems/
p523
(lp524
I20
aI5
aI1
aI2
aI3
aI3
aI2
asVhttps://www.reddit.com/r/DotA2/comments/46edrj/make_iron_talon_a_requirement_for_battlefurry/
p525
(lp526
I2
aI1
aI1
aI1
aI1
aI10
aI1
aI1
aI1
aI2
aI1
aI1
aI1
aI1
aI1
aI1
aI2
asVhttps://www.reddit.com/r/stalker/comments/2x1235/need_help_in_valley_of_whispers_dolina_shorohov/
p527
(lp528
I4
aI2
aI1
aI3
aI2
aI1
aI3
aI2
asVhttps://www.reddit.com/r/jailbreak/comments/qgbrz/easy_way_to_jailbreak_ipod_4g/
p529
(lp530
I2
aI3
aI2
aI3
aI2
aI3
aI3
aI2
aI1
aI2
asVhttps://www.reddit.com/r/buildapcforme/comments/26mbkn/please_help_8001100_ultra_gaminggraphic_design_pc/
p531
(lp532
I17
aI2
aI3
aI2
aI5
aI1
aI1
aI1
aI4
asVhttps://www.reddit.com/r/nyjets/comments/34g96m/predraft_lets_not_fuck_this_up_upvote_party/
p533
(lp534
I1
aI1
aI4
aI1
aI1
aI4
aI1
aI1
aI3
aI2
aI1
aI1
aI3
aI1
aI5
aI2
aI1
aI1
aI1
aI1
aI1
aI1
aI1
aI1
aI2
aI1
aI1
aI1
aI1
aI1
aI1
aI1
aI2
aI1
aI1
aI1
aI1
asVhttps://www.reddit.com/r/deadliestcatch/comments/1cj5pf/who_is_your_favorite_captain_who_is_your_least/
p535
(lp536
I4
aI2
aI7
aI2
aI3
aI1
aI1
aI7
aI3
aI3
aI1
aI1
asVhttps://www.reddit.com/r/asktrp/comments/2nd4fd/after_or_during_swallowing_the_red_pill_how_did/
p537
(lp538
I8
aI1
aI4
aI24
aI1
aI5
aI19
aI1
aI6
aI4
aI2
aI9
aI3
aI3
aI1
aI8
aI11
aI7
aI10
aI3
aI22
aI1
aI2
aI2
asVhttps://www.reddit.com/r/dndnext/comments/3xp07s/how_bad_a_low_wisdom_save/
p539
(lp540
I5
aI8
aI9
aI4
aI8
aI7
aI1
aI2
aI8
aI2
aI1
aI4
aI3
aI5
aI23
aI3
aI3
aI2
asVhttps://www.reddit.com/r/leagueoflegends/comments/2251o0/lux_skin_please_riot/
p541
(lp542
I3
aI1
aI2
aI1
aI2
aI2
aI1
aI2
aI2
aI1
asVhttps://www.reddit.com/r/truegaming/comments/1dxf7i/has_the_age_of_regular_updates_led_to_a_greater/
p543
(lp544
I0
aI5
aI8
aI12
aI3
aI18
aI4
aI2
aI27
aI9
aI3
aI4
aI1
aI1
aI2
aI2
aI3
aI6
aI2
aI6
aI6
aI4
aI6
aI3
aI3
aI4
aI3
aI7
aI7
aI2
aI2
aI4
aI7
aI3
aI2
asVhttps://www.reddit.com/r/playrust/comments/4jf2wb/a_simple_idea_to_help_improve_solo_play/
p545
(lp546
I1
aI1
aI1
aI2
aI1
aI1
asVhttps://www.reddit.com/r/elementaryos/comments/4gdsno/installing_from_usb_error/
p547
(lp548
I4
aI3
aI3
aI2
aI1
aI1
aI3
aI3
aI1
asVhttps://www.reddit.com/r/headphones/comments/2jc4ub/isolating_instruments/
p549
(lp550
I12
aI10
aI1
aI1
aI6
aI2
aI10
aI5
aI3
aI3
aI8
aI10
aI2
aI1
aI1
aI6
aI1
aI5
aI2
aI4
aI5
aI3
aI1
aI5
aI1
asVhttps://www.reddit.com/r/TalesFromRetail/comments/2fn3qz/how_my_retail_job_became_a_living_hell/
p551
(lp552
I20
aI2
aI1
aI2
aI1
aI2
aI2
aI1
aI1
aI1
aI3
aI1
aI3
aI2
aI3
aI3
aI2
aI4
aI3
aI9
aI1
aI1
aI1
aI2
aI1
aI1
aI2
aI1
aI2
aI2
aI1
asVhttps://www.reddit.com/r/CyberSleuth/comments/4af1qy/question_about_new_game_plus/
p553
(lp554
I1
aI2
aI3
aI1
aI1
aI1
asVhttps://www.reddit.com/r/wwesupercard/comments/377ioi/log_in_bonus_is_it_the_same_for_everybody/
p555
(lp556
I3
aI5
aI2
aI5
aI5
aI1
aI3
aI2
aI1
aI1
aI3
aI2
aI2
aI4
aI3
aI2
aI2
aI1
aI4
aI1
asVhttps://www.reddit.com/r/Dogtraining/comments/236orn/any_tips_on_curbing_serious_feardefensive/
p557
(lp558
I18
aI13
aI8
aI9
aI7
aI6
aI4
aI3
aI5
aI9
aI18
aI3
aI3
aI5
aI2
aI1
aI2
asVhttps://www.reddit.com/r/resumes/comments/35g133/i_was_offered_a_job_but_the_manager_also/
p559
(lp560
I18
aI2
aI5
aI8
aI4
aI2
aI3
aI2
aI11
aI2
aI3
aI2
aI4
aI4
aI2
aI2
aI3
aI6
aI5
asVhttps://www.reddit.com/r/funkopop/comments/3ikswe/flocked_simba_available_htcom/
p561
(lp562
I0
aI3
aI1
aI1
aI2
aI3
aI1
aI1
aI5
aI3
aI1
aI3
aI1
aI2
aI2
aI1
aI4
aI2
aI2
aI3
aI1
aI3
aI2
aI2
aI2
aI1
aI1
aI2
asVhttps://www.reddit.com/r/BuildPC/comments/42yo6b/building_a_pc_for_oculus_rift/
p563
(lp564
I1
aI8
aI3
aI2
aI6
aI2
aI3
aI6
aI10
aI1
aI1
aI3
aI3
aI2
asVhttps://www.reddit.com/r/buildapc/comments/mmo8t/troubleshooting_random_hard_locks_bsods_under/
p565
(lp566
I11
aI2
aI3
aI4
aI1
aI3
asVhttps://www.reddit.com/r/peloton/comments/1ks26y/roadcc_prevuelta_standings_and_registration/
p567
(lp568
I19
aI27
aI11
aI15
aI4
aI2
aI3
aI1
aI5
aI5
aI8
aI1
aI2
aI2
aI1
aI7
aI2
aI2
aI2
aI1
aI1
aI1
aI6
aI1
aI2
aI2
aI2
aI6
aI4
aI1
aI5
aI1
asVhttps://www.reddit.com/r/truegaming/comments/10gb8n/moba_control_scheme/
p569
(lp570
I7
aI10
aI3
aI2
aI4
aI3
aI4
aI15
aI5
aI3
aI3
aI5
aI1
aI1
aI10
aI2
aI1
aI4
aI1
aI3
aI2
aI3
aI4
aI3
aI3
aI3
aI5
aI3
aI2
aI3
aI1
aI2
aI3
aI3
aI1
aI1
aI3
aI1
aI1
aI6
aI1
asVhttps://www.reddit.com/r/thedivision/comments/46jelz/is_there_a_resource_to_find_all_the_phonesintel/
p571
(lp572
I1
aI1
aI1
aI1
aI3
aI4
aI1
aI2
aI1
aI2
aI2
aI3
aI1
aI1
asVhttps://www.reddit.com/r/steroids/comments/1a95y6/understanding_testosterone_levels/
p573
(lp574
I10
aI20
aI5
aI12
aI15
aI4
aI8
aI11
aI3
aI1
aI3
aI9
aI7
asVhttps://www.reddit.com/r/FUTMobile/comments/4d7v6k/dropped_down_two_divisions_this_game_is_becoming/
p575
(lp576
I4
aI3
aI1
aI1
aI2
aI1
aI5
aI2
aI1
aI1
aI3
aI3
aI1
aI1
aI3
aI6
aI1
aI13
aI2
aI2
aI3
aI1
aI1
aI3
aI1
aI4
aI2
aI1
asVhttps://www.reddit.com/r/SRSsucks/comments/1hdosc/exposing_the_truth_about_the_ban_of_rners/
p577
(lp578
I69
aI5
aI8
aI15
aI10
aI2
aI3
aI1
aI1
aI2
aI9
aI10
aI1
aI5
aI7
aI2
aI14
aI5
aI7
aI4
aI5
aI4
aI4
aI4
aI7
aI23
aI2
aI3
asVhttps://www.reddit.com/r/edmundm/comments/2x2sxp/host/
p579
(lp580
I2
aI1
aI1
aI1
aI1
aI1
aI1
aI1
asVhttps://www.reddit.com/r/Throwers/comments/2rn11n/beginner_fine_tuning_my_throwing/
p581
(lp582
I10
aI18
aI7
aI4
aI2
aI5
aI2
aI3
aI1
asVhttps://www.reddit.com/r/leagueoflegends/comments/1mgmh2/big_thanks_to_riot_for_getting_monte_for_analyst/
p583
(lp584
I3
aI2
aI2
aI1
aI1
aI1
aI3
aI2
aI1
aI2
aI1
aI2
aI1
aI1
aI1
aI1
aI2
aI3
aI1
aI4
aI1
aI1
aI1
aI1
aI1
aI2
aI1
aI1
aI1
aI1
aI1
aI1
aI2
aI1
aI1
aI2
aI1
aI1
aI3
aI5
aI2
asVhttps://www.reddit.com/r/dominion/comments/1yypuy/trader_question/
p585
(lp586
I3
aI3
aI11
aI3
aI10
aI2
aI9
aI8
aI4
aI7
aI1
aI1
aI1
aI5
aI6
aI13
aI4
asVhttps://www.reddit.com/r/noveltranslations/comments/406a4h/cn_heavenly_jewel_change_book_6_chapter_42_part_1/
p587
(lp588
I10
aI1
aI2
aI1
aI1
aI1
aI1
aI1
aI1
aI2
aI1
aI1
aI1
aI3
aI2
aI2
aI1
aI1
aI2
aI1
aI1
aI1
asVhttps://www.reddit.com/r/ShouldIbuythisgame/comments/4cga1r/sib_masters_of_orion_collectors_edition/
p589
(lp590
I3
aI9
aI2
aI1
aI2
aI1
aI1
aI3
aI4
aI3
aI1
aI1
aI2
aI1
aI2
aI3
asVhttps://www.reddit.com/r/MMA/comments/4jgm0c/spoilers_mostleast_surprising_fight_results/
p591
(lp592
I3
aI1
aI1
aI1
aI1
aI2
aI1
aI1
aI1
aI2
aI21
aI4
aI1
aI1
aI2
aI1
aI3
aI1
aI1
aI2
aI1
aI1
aI4
aI3
aI1
aI1
aI1
aI1
aI5
aI1
aI1
aI6
aI5
aI2
aI1
aI3
asVhttps://www.reddit.com/r/tarantulas/comments/2y2y3l/a_question_thats_been_bothering_me_about_freebies/
p593
(lp594
I3
aI4
aI4
aI2
aI5
aI5
aI1
aI1
aI2
aI2
aI2
aI7
aI3
aI1
aI4
aI3
asVhttps://www.reddit.com/r/wildwhittlers/comments/2vgpg2/im_sorry_i_know_there_are_a_lot_of_these_but_i/
p595
(lp596
I5
aI8
aI4
aI3
aI2
aI4
aI2
aI1
aI4
aI4
aI1
asVhttps://www.reddit.com/r/WildStar/comments/3yf14r/hey_so_when_i_try_to_launch_the_game_i_get_this/
p597
(lp598
I1
aI1
aI4
aI1
aI1
aI1
aI6
aI1
aI5
aI1
asVhttps://www.reddit.com/r/EliteDangerous/comments/4k7o5w/disrupt_the_neits_cg_heres_how/
p599
(lp600
I2
aI1
aI1
aI1
aI1
aI2
aI1
aI1
aI2
aI6
aI1
aI1
asVhttps://www.reddit.com/r/thedivision/comments/410gb6/level_advantage/
p601
(lp602
I4
aI1
aI1
aI1
aI1
aI3
aI1
aI1
aI4
aI1
aI1
aI2
aI2
aI1
aI1
aI2
aI1
aI1
aI1
asVhttps://www.reddit.com/r/techsupport/comments/2s1gkg/help_recovering_drive_data_from_img_file/
p603
(lp604
I12
aI3
aI1
aI12
aI3
aI13
aI5
aI4
aI3
aI2
aI1
aI2
aI3
aI2
aI16
aI8
asVhttps://www.reddit.com/r/conlangs/comments/3c5j1o/presenting_ixikyinn_my_first_conlang/
p605
(lp606
I32
aI9
aI3
aI3
aI4
aI2
aI9
aI2
aI4
aI4
aI2
aI6
aI1
aI1
aI2
aI5
aI1
aI2
aI4
aI2
aI2
aI1
aI1
aI1
asVhttps://www.reddit.com/r/wow/comments/3blhdr/what_do_the_different_mage_specs_do/
p607
(lp608
I2
aI1
aI1
aI1
aI2
aI2
aI1
aI1
aI1
aI1
aI3
aI1
aI2
aI1
asVhttps://www.reddit.com/r/malefashionadvice/comments/1k2mgq/i_need_help_with_outfits_to_go_with_this/
p609
(lp610
I3
aI3
aI1
aI1
aI2
aI1
aI1
aI1
aI1
aI1
asVhttps://www.reddit.com/r/homelab/comments/2odo8x/new_homelab/
p611
(lp612
I6
aI1
aI5
aI3
aI2
aI4
aI1
aI2
aI3
aI2
aI3
aI2
aI5
aI1
aI2
aI1
asVhttps://www.reddit.com/r/LearnJapanese/comments/48dk4f/im_looking_for_something_like_realkana_but_with/
p613
(lp614
I7
aI1
aI2
aI1
aI3
aI2
aI4
aI4
aI4
asVhttps://www.reddit.com/r/bindingofisaac/comments/4kjaic/the_lost_unlock_on_wii_u/
p615
(lp616
I5
aI2
aI2
aI2
aI2
aI1
aI1
aI1
aI2
asVhttps://www.reddit.com/r/ideasfortheadmins/comments/7ziwp/please_give_us_the_ability_to_see_what_subreddits/
p617
(lp618
I0
aI1
aI2
aI2
aI5
aI3
aI1
aI2
asVhttps://www.reddit.com/r/Guildwars2/comments/qucf9/me_and_the_girlfriend_was_wondering_if_the_combat/
p619
(lp620
I3
aI4
aI3
aI5
aI1
aI1
aI3
aI1
aI3
aI1
aI4
aI1
aI10
aI3
aI2
aI2
aI4
aI2
aI2
aI4
aI4
aI4
aI5
aI3
aI2
aI1
aI1
aI4
aI2
aI4
aI2
aI5
asVhttps://www.reddit.com/r/space/comments/392xse/ldsd_parachute_is_partially_deployed/
p621
(lp622
I3
aI2
aI1
aI2
aI4
aI2
aI4
aI2
aI8
aI1
aI6
aI9
aI3
aI2
aI3
aI3
aI5
aI3
aI2
aI1
aI1
asVhttps://www.reddit.com/r/buildapc/comments/2sqie0/is_this_an_atx_or_microatx_mobo/
p623
(lp624
I1
aI1
aI2
aI2
aI1
aI2
aI1
aI1
aI2
aI1
aI3
aI1
aI1
aI1
aI3
aI4
aI2
aI4
aI5
aI3
aI3
aI1
aI1
aI3
asVhttps://www.reddit.com/r/webdev/comments/4igxug/creating_a_site_to_go_along_with_a_school_project/
p625
(lp626
I12
aI7
aI1
aI2
aI3
aI1
aI4
aI2
aI2
aI7
aI2
aI2
asVhttps://www.reddit.com/r/Coffee/comments/40upol/i_have_an_8_cup_chemex_what_if_i_want_to_make_4/
p627
(lp628
I0
aI5
aI2
aI1
aI3
aI9
asVhttps://www.reddit.com/r/buildapc/comments/1trddi/i_just_bought_a_pny_geforce_gtx_650_and_i_cant/
p629
(lp630
I3
aI1
aI1
aI1
aI1
aI4
aI1
aI1
aI5
aI3
aI3
aI5
asVhttps://www.reddit.com/r/evangelion/comments/16mxbe/something_i_noticed_about_mari_spoilers/
p631
(lp632
I3
aI2
aI1
aI2
aI5
aI4
aI1
aI4
aI2
aI4
aI9
aI5
aI1
aI2
aI1
aI2
aI5
aI1
aI3
aI3
aI1
aI1
aI2
aI1
aI5
aI2
aI4
aI1
aI3
aI2
aI1
asVhttps://www.reddit.com/r/Health/comments/tdtoq/question_about_birth_control_and_possible/
p633
(lp634
I8
aI10
aI3
aI3
aI7
aI1
aI1
aI1
aI3
aI3
aI2
aI3
aI1
asVhttps://www.reddit.com/r/GODZILLA/comments/2c2url/favorite_roars/
p635
(lp636
I11
aI1
aI1
aI1
aI2
aI1
aI1
aI1
aI2
aI1
aI2
aI2
aI1
aI1
aI1
aI1
aI1
aI2
aI1
aI3
aI2
aI1
aI1
aI1
aI2
aI1
asVhttps://www.reddit.com/r/guns/comments/29hzwp/quick_questions_on_fixing_up_an_old_german_ww2/
p637
(lp638
I7
aI2
aI11
aI1
aI10
aI4
aI2
aI8
aI2
aI2
aI2
aI5
aI1
aI1
aI4
asVhttps://www.reddit.com/r/Games/comments/2wyqgj/chris_roberts_says_star_citizen_is_about_to_start/
p639
(lp640
I0
aI4
aI3
aI4
aI4
aI1
aI6
aI1
aI7
aI2
aI3
aI2
aI2
aI2
aI2
aI2
aI11
aI1
aI1
aI1
aI2
aI1
aI3
asVhttps://www.reddit.com/r/shittyadvice/comments/1dyg5f/both_of_my_girlfriends_have_trust_issues_help/
p641
(lp642
I0
aI2
aI1
aI1
aI3
aI1
aI2
aI2
aI1
aI1
aI1
aI1
aI1
aI1
aI2
aI2
aI1
aI1
aI1
aI1
aI2
aI5
aI1
aI5
aI1
aI1
aI1
aI1
asVhttps://www.reddit.com/r/askmath/comments/29x3n0/algebraic_structures_group_and_field/
p643
(lp644
I2
aI5
aI4
aI3
aI8
aI1
aI3
aI4
asVhttps://www.reddit.com/r/legaladvice/comments/4cfioo/beaver_dams_in_county_drain_flooding_homes/
p645
(lp646
I17
aI9
aI1
aI7
aI8
aI5
aI3
aI6
aI5
aI11
aI9
asVhttps://www.reddit.com/r/flying/comments/39r81f/what_can_i_do_to_keep_me_satisfied_while_i_wait/
p647
(lp648
I5
aI2
aI1
aI2
aI1
aI2
aI4
aI6
aI1
aI2
aI11
aI6
aI2
aI2
aI1
aI13
aI1
aI2
aI6
aI5
aI3
aI3
aI2
aI3
aI3
asVhttps://www.reddit.com/r/circlejerk/comments/2uc12h/i_am_dan_k_meme_ama/
p649
(lp650
I1
aI1
aI1
aI1
aI1
asVhttps://www.reddit.com/r/asktransgender/comments/10556k/what_to_do/
p651
(lp652
I13
aI20
aI3
aI12
aI1
aI3
aI3
aI7
aI1
aI6
asVhttps://www.reddit.com/r/linux/comments/1ldmw6/devurandom_very_slow/
p653
(lp654
I13
aI2
aI3
aI4
aI2
aI5
aI4
aI2
aI1
aI5
aI3
aI1
asVhttps://www.reddit.com/r/Bellingham/comments/2dk0lr/good_first_date_places/
p655
(lp656
I6
aI6
aI4
aI3
aI1
aI4
aI7
aI8
aI1
aI6
aI4
aI1
asVhttps://www.reddit.com/r/gaming/comments/1hb0kd/the_last_of_us_is_great_so_far_but_something/
p657
(lp658
I10
aI1
aI5
aI3
aI3
aI3
aI3
aI1
aI3
aI1
aI2
aI3
aI2
aI2
aI2
aI1
aI2
aI2
asVhttps://www.reddit.com/r/MURICA/comments/3z2qdb/my_view_on_gun_control_dont_know_the_proper_place/
p659
(lp660
I26
aI15
aI10
aI1
aI4
aI2
aI1
aI4
aI8
asVhttps://www.reddit.com/r/htcone/comments/1uelmj/cm_11/
p661
(lp662
I4
aI1
aI1
aI1
aI1
aI1
aI1
aI2
asVhttps://www.reddit.com/r/skyrim/comments/1pw7gh/skyrim_permadeath_roleplay_part_1/
p663
(lp664
I1
aI3
aI2
aI1
aI2
aI2
aI2
aI1
aI10
aI5
aI4
aI4
aI6
aI2
aI7
aI3
aI3
aI1
aI3
aI2
asVhttps://www.reddit.com/r/BadSocialScience/comments/2er7z1/muh_habitus/
p665
(lp666
I1
aI1
aI1
aI3
aI1
aI2
asVhttps://www.reddit.com/r/Lightpack/comments/28097w/prismatik_ambi_box_eating_cpu/
p667
(lp668
I3
aI1
aI1
aI5
aI2
aI1
aI3
aI5
aI5
aI1
aI1
aI2
aI3
aI1
aI1
aI1
aI4
aI6
aI7
asVhttps://www.reddit.com/r/battlestations/comments/119kki/dorm_style/
p669
(lp670
I0
aI2
aI1
aI1
aI1
aI4
aI2
aI2
aI2
aI7
aI3
aI2
aI1
aI2
aI3
aI5
aI1
aI3
aI1
aI2
aI1
aI2
asVhttps://www.reddit.com/r/roosterteeth/comments/2j44rx/if_you_were_going_to_be_on_an_episode_of_quick/
p671
(lp672
I6
aI2
aI5
aI2
aI1
aI2
aI1
aI1
aI2
aI2
aI1
aI2
aI2
aI1
asVhttps://www.reddit.com/r/pcmasterrace/comments/2rjkdx/help_me_rpcmasterrace_youre_my_only_help/
p673
(lp674
I7
aI2
aI1
aI17
aI1
aI2
aI4
aI1
aI1
aI1
aI5
aI4
aI2
aI2
aI1
aI2
aI1
aI1
asVhttps://www.reddit.com/r/cars/comments/3e72rv/all_motor_ford_taurus_runs_an_118x_in_the_14_mile/
p675
(lp676
I0
aI1
aI2
aI2
aI3
aI2
aI1
aI3
aI3
aI3
aI1
asVhttps://www.reddit.com/r/aion/comments/4d04ps/just_like_most_of_these_posts_should_i_play/
p677
(lp678
I6
aI11
aI4
aI8
aI1
aI2
aI2
asVhttps://www.reddit.com/r/Christianity/comments/19kaws/not_a_christian_but_have_a_question/
p679
(lp680
I5
aI1
aI11
aI2
aI1
aI1
aI3
aI4
aI1
aI1
aI2
aI5
aI2
aI2
aI3
aI1
asVhttps://www.reddit.com/r/criticalrole/comments/4lf8gv/no_spoilers_come_on_guys_stop_the_flaming/
p681
(lp682
I8
aI4
aI7
aI2
aI8
aI4
aI11
aI3
aI3
aI3
aI2
aI2
aI1
aI2
aI3
aI1
aI2
aI5
aI6
aI3
aI3
aI3
aI2
aI3
aI2
aI2
aI8
aI13
aI7
aI3
aI2
aI8
aI5
aI3
aI4
aI2
aI4
aI1
aI1
aI5
aI2
asVhttps://www.reddit.com/r/tifu/comments/27qzjj/tifu_by_adjusting_my_package_and_picking_my_nose/
p683
(lp684
I16
aI2
aI1
aI3
aI1
aI3
aI2
asVhttps://www.reddit.com/r/VINChecks/comments/2wvnor/full_2007_toyota_camry_xle/
p685
(lp686
I1
aI2
aI3
aI2
aI4
aI6
aI3
aI4
aI2
asVhttps://www.reddit.com/r/buildapc/comments/2w351t/build_help_600800_upgrade/
p687
(lp688
I5
aI2
aI3
aI3
aI2
aI1
aI2
aI3
aI3
aI3
aI2
aI3
aI1
aI2
aI1
asVhttps://www.reddit.com/r/destinyknot/comments/1urjh5/h_5iv_imperfect_charmanders_and_4iv_female_noibat/
p689
(lp690
I0
aI3
aI2
aI3
aI1
aI1
aI1
asVhttps://www.reddit.com/r/whitecapsfc/comments/24tr4i/whitcaps_vs_tfc_viewing_in_new_west/
p691
(lp692
I2
aI7
aI2
aI2
aI3
aI2
aI4
aI9
aI3
asVhttps://www.reddit.com/r/buildapc/comments/zmb80/build_help_i_need_a_decision_now_and_i_dont_know/
p693
(lp694
I5
aI1
aI8
aI4
aI7
aI2
aI4
aI3
aI1
aI1
aI1
aI4
asVhttps://www.reddit.com/r/bloodborne/comments/4cvhw2/chalice_dungeon_help_anyone/
p695
(lp696
I10
aI2
aI21
aI4
aI2
aI3
aI3
aI2
asVhttps://www.reddit.com/r/goodyearwelt/comments/24rxbp/apprehensions_about_handsewns/
p697
(lp698
I11
aI1
aI5
aI3
aI1
aI3
aI1
aI1
aI6
aI1
aI2
aI3
aI2
aI2
aI1
aI2
aI3
aI1
aI1
aI2
aI2
aI1
aI2
aI3
aI1
aI3
aI2
asVhttps://www.reddit.com/r/teenagers/comments/2bxinw/those_nights_where_youre_stuck_thinking_about/
p699
(lp700
I1
aI1
aI3
aI2
aI2
aI1
aI1
aI1
aI1
aI2
aI2
aI4
aI2
aI1
aI1
aI1
aI1
aI2
aI1
aI3
aI1
aI1
aI2
aI1
aI1
aI1
aI1
asVhttps://www.reddit.com/r/trees/comments/4awb8j/took_my_first_dabs_today/
p701
(lp702
I6
aI8
aI1
aI1
aI1
aI1
asVhttps://www.reddit.com/r/buildapc/comments/1nsfo9/is_there_any_reason_not_to_use_an_amd_fx_8350/
p703
(lp704
I3
aI1
aI2
aI9
aI3
aI1
aI1
aI2
aI3
aI1
aI2
aI4
aI5
asVhttps://www.reddit.com/r/medlabprofessionals/comments/3zh33c/anyone_work_at_mayo_clinic_in_ohio/
p705
(lp706
I3
aI3
aI1
aI4
aI1
aI5
aI4
aI2
aI3
aI1
asVhttps://www.reddit.com/r/nosgoth/comments/2z0j90/why_help_the_razielim_the_other_clans/
p707
(lp708
I2
aI7
aI3
aI2
aI2
aI1
aI4
aI3
aI2
asVhttps://www.reddit.com/r/reloading/comments/1pc7zr/what_is_your_favorite_press_or_what_do_you_think/
p709
(lp710
I3
aI2
aI5
aI2
aI4
aI3
aI2
aI9
aI12
aI4
aI2
aI2
aI9
aI1
aI1
aI4
aI2
aI1
aI3
aI2
aI5
aI5
aI4
aI2
aI1
aI1
aI1
aI6
aI2
aI2
aI4
asVhttps://www.reddit.com/r/crayonpop/comments/19l4vn/crayon_pop_tv_ep_10/
p711
(lp712
I0
aI4
aI3
aI1
aI4
aI1
aI1
aI1
aI2
asVhttps://www.reddit.com/r/electronic_cigarette/comments/4cc5xw/question_how_to_get_in_contact_with_aspiring/
p713
(lp714
I6
aI3
aI1
aI2
aI2
aI2
aI4
aI3
aI3
aI3
aI1
aI1
aI2
aI2
aI1
aI1
asVhttps://www.reddit.com/r/blackberry/comments/19luk7/i_have_a_new_z10_on_wind_mobile_any_clue_on_the/
p715
(lp716
I8
aI1
aI3
aI4
aI9
aI2
aI7
asVhttps://www.reddit.com/r/formula1/comments/1ap72a/question_about_ferrari_drivers_red_chair_in_garage/
p717
(lp718
I4
aI1
aI2
aI5
aI1
aI1
aI1
aI1
asVhttps://www.reddit.com/r/ripcity/comments/r5d15/caution_blazersedge_deleting_comments_and_banning/
p719
(lp720
I21
aI5
aI4
aI2
aI2
aI2
aI2
aI1
aI4
aI4
aI2
aI2
aI1
aI1
aI1
asVhttps://www.reddit.com/r/electronic_cigarette/comments/2q4bsi/newbie_needs_help_replacing_nautilus_mini/
p721
(lp722
I8
aI1
aI7
aI2
aI4
aI3
aI5
aI4
aI1
aI2
aI2
aI1
aI1
aI2
aI5
aI1
aI1
aI2
aI3
asVhttps://www.reddit.com/r/Marvel/comments/tk5mz/in_need_of_some_help_rmarvel_im_really_wanting_to/
p723
(lp724
I0
aI3
aI3
aI3
aI2
aI5
aI3
aI4
aI3
aI1
aI4
aI2
aI3
aI4
asVhttps://www.reddit.com/r/PS3/comments/gi91t/headset_recommendations/
p725
(lp726
I4
aI6
aI1
aI2
aI1
aI2
aI2
aI5
aI9
aI3
aI13
aI4
asVhttps://www.reddit.com/r/paradoxplaza/comments/18udz4/how_do_i_stop_france_i_have_created_a_monster_of/
p727
(lp728
I0
aI3
aI6
aI1
aI2
aI1
aI2
aI2
aI1
aI2
aI1
aI2
aI1
aI2
asVhttps://www.reddit.com/r/magicTCG/comments/1ogeun/differences_between_mtgo_and_paper_drafting/
p729
(lp730
I11
aI2
aI1
aI2
aI2
aI3
aI2
asVhttps://www.reddit.com/r/Warframe/comments/2cz29k/90_day_affinity_and_credit_boosters/
p731
(lp732
I1
aI1
aI1
aI1
aI1
aI3
aI1
aI1
aI2
aI2
aI2
aI2
aI1
aI2
aI4
aI2
aI1
aI3
aI5
aI3
aI5
aI1
asVhttps://www.reddit.com/r/pcmasterrace/comments/3a1868/does_anybody_know_at_what_time_the_amd/
p733
(lp734
I1
aI1
aI1
aI1
aI1
aI1
aI1
aI2
aI1
aI1
aI1
asVhttps://www.reddit.com/r/nosleep/comments/1isdw0/there_was_a_really_creepy_customer_where_i_work/
p735
(lp736
I30
aI1
aI5
aI1
aI1
aI2
aI1
aI1
aI5
aI1
aI2
aI2
aI1
aI1
aI4
aI2
aI1
aI1
aI1
aI1
aI1
aI1
aI2
aI3
aI1
aI1
aI6
aI1
aI4
aI1
aI1
aI1
aI1
aI2
aI1
aI1
aI1
aI1
aI1
aI1
asVhttps://www.reddit.com/r/leagueoflegends/comments/2zwdpp/how_many_of_you_would_play_a_1v1_designed_map/
p737
(lp738
I1
aI1
aI1
aI2
aI2
aI2
aI1
aI2
aI1
aI1
aI1
aI2
aI1
aI2
aI1
asVhttps://www.reddit.com/r/grammar/comments/33g728/can_i_use_dash_in_this_sentencesorry_for_not/
p739
(lp740
I3
aI2
aI4
aI1
aI1
aI2
aI8
aI4
aI5
aI9
aI4
aI4
asVhttps://www.reddit.com/r/edmproduction/comments/2xm2nu/need_help_with_warping/
p741
(lp742
I3
aI2
aI3
aI2
aI6
aI1
aI3
aI6
aI2
aI8
aI4
aI2
aI4
aI2
aI7
aI3
asVhttps://www.reddit.com/r/CrusaderKings/comments/2amj2n/trouble_moving_troops/
p743
(lp744
I6
aI1
aI1
aI2
aI1
aI10
aI2
asVhttps://www.reddit.com/r/synthesizers/comments/3yl7ek/issue_with_my_korg_ms2000r/
p745
(lp746
I6
aI3
aI5
aI1
aI1
aI1
aI2
aI3
aI4
asVhttps://www.reddit.com/r/gaming/comments/i0qyv/valve_vs_ea_heres_what_happened/
p747
(lp748
I12
aI3
aI4
aI1
aI1
aI1
aI4
aI2
aI1
aI2
aI4
aI1
aI1
aI1
aI2
asVhttps://www.reddit.com/r/self/comments/14v8zf/for_some_reason_comedy_central_is_airing_those/
p749
(lp750
I6
aI3
aI1
aI2
aI2
aI3
aI4
aI2
aI2
aI1
asVhttps://www.reddit.com/r/relationships/comments/42qpl3/me_21f_with_my_ex_coworker_29m_of_half_a_year_is/
p751
(lp752
I25
aI8
aI10
aI11
aI9
aI7
aI3
aI6
aI12
aI5
aI4
aI4
aI4
asVhttps://www.reddit.com/r/lgbt/comments/2us465/the_most_frequented_lgbtq_subreddits/
p753
(lp754
I2
aI2
aI3
aI2
aI2
aI2
aI1
asVhttps://www.reddit.com/r/KeepWriting/comments/4bkh77/discussion_geographic_symbolism_in_literature/
p755
(lp756
I3
aI12
aI12
aI6
aI4
aI1
aI4
aI3
aI5
asVhttps://www.reddit.com/r/anchorage/comments/1b098s/have_a_decent_chance_of_getting_a_job_in/
p757
(lp758
I14
aI10
aI21
aI6
aI3
aI3
aI7
aI5
aI8
aI2
aI4
aI2
aI2
aI1
aI4
aI3
aI2
aI7
aI1
asVhttps://www.reddit.com/r/asktrp/comments/2jbud8/dealing_with_women_phones_and_trust/
p759
(lp760
I12
aI4
aI2
aI2
aI2
aI2
aI1
aI4
aI7
aI4
aI2
aI2
aI1
aI2
aI2
aI12
aI10
aI4
aI3
aI3
aI7
aI6
aI1
aI2
aI4
aI8
aI3
aI2
aI2
aI2
aI1
aI3
aI3
aI4
aI2
aI1
aI2
aI11
aI19
aI1
aI9
asVhttps://www.reddit.com/r/leagueoflegends/comments/2godv3/wither_should_affect_yasuos_steel_tempest/
p761
(lp762
I1
aI1
aI1
aI1
aI2
aI1
aI3
aI7
aI3
aI1
aI2
aI2
aI2
aI4
aI2
aI2
aI4
aI1
aI1
aI1
aI4
aI3
aI1
aI2
aI4
aI4
aI3
aI1
aI12
aI1
aI1
aI2
aI1
aI1
aI2
aI1
aI1
aI1
aI1
aI3
aI3
asVhttps://www.reddit.com/r/Windows10/comments/3fuedo/everything_is_blank_windows_10/
p763
(lp764
I4
aI1
aI2
aI1
aI3
aI2
aI3
aI4
asVhttps://www.reddit.com/r/elderscrollsonline/comments/2urzo7/what_eso_going_sub_free/
p765
(lp766
I2
aI1
aI1
aI2
aI1
aI1
aI2
aI3
aI2
aI2
aI3
aI5
aI1
asVhttps://www.reddit.com/r/webdev/comments/1lmr7o/10_year_experience_programmer_seeking_advice_on/
p767
(lp768
I1
aI17
aI4
aI9
aI7
aI4
aI5
aI4
aI1
aI1
aI1
aI3
aI3
aI1
aI1
aI4
aI2
aI16
aI3
aI4
aI17
aI1
aI1
aI1
aI1
aI10
aI7
aI4
asVhttps://www.reddit.com/r/audio/comments/4lw8lp/how_to_connect_an_audio_interface_and_dac_amp_to/
p769
(lp770
I9
aI7
aI5
aI2
aI4
aI2
aI2
asVhttps://www.reddit.com/r/skyrim/comments/3x3hxs/possible_ps3_bug_does_anyone_elses_character/
p771
(lp772
I11
aI4
aI5
aI3
aI3
aI5
aI2
asVhttps://www.reddit.com/r/civbattleroyale/comments/4eza74/city_capture_data_for_parts_5051/
p773
(lp774
I20
aI1
aI3
aI1
aI1
aI2
aI2
aI2
aI1
aI1
aI1
aI1
aI1
aI2
aI1
aI1
asVhttps://www.reddit.com/r/CHIBears/comments/39gbl8/te_tim_wright_released_by_pats_xpost_from_rnfl/
p775
(lp776
I3
aI2
aI3
aI1
aI3
aI2
aI1
aI1
aI1
aI2
asVhttps://www.reddit.com/r/AdviceAnimals/comments/4a78u1/dodged_a_bullet_big_time/
p777
(lp778
I0
aI1
aI1
aI4
aI4
aI4
aI1
aI3
aI1
aI4
aI7
aI1
aI1
aI1
aI1
aI1
aI2
aI3
aI2
aI1
aI1
aI1
aI4
aI2
aI2
asVhttps://www.reddit.com/r/xxfitness/comments/2sigov/question_is_it_possible_to_lose_weight_as_fast_as/
p779
(lp780
I5
aI11
aI13
aI16
aI2
aI1
aI3
aI3
aI2
aI2
aI1
aI2
aI1
aI1
aI2
aI2
aI2
aI1
aI2
aI1
aI2
aI1
aI1
aI2
aI1
aI1
aI2
aI1
aI6
aI1
aI1
aI2
aI2
aI2
aI2
aI1
aI3
aI1
asVhttps://www.reddit.com/r/minipainting/comments/33etgs/starting_airbrushing_for_under_300/
p781
(lp782
I7
aI5
aI3
aI1
aI2
aI3
aI1
aI3
aI3
aI1
aI6
aI2
aI4
aI1
aI1
aI1
aI3
aI1
aI2
asVhttps://www.reddit.com/r/personalfinance/comments/1ixlxz/looking_for_advice_on_a_car_loan/
p783
(lp784
I23
aI4
aI3
aI3
aI2
aI11
aI3
aI6
aI2
aI13
aI6
asVhttps://www.reddit.com/r/fivenightsatfreddys/comments/3itleb/random_thought_of_the_night_isnt_springtrap/
p785
(lp786
I1
aI2
aI2
aI2
aI1
aI4
aI2
aI1
aI1
aI2
aI1
aI1
aI1
aI2
aI3
aI2
aI1
aI3
aI1
aI1
aI3
aI1
aI2
aI1
aI1
aI1
asVhttps://www.reddit.com/r/HoloLens/comments/34u8vn/why_hololens_will_be_popular_among_writers/
p787
(lp788
I13
aI6
aI1
aI3
aI1
aI4
aI5
aI3
asVhttps://www.reddit.com/r/nvidia/comments/4bm9x9/one_more_980ti_or_wait_for_new_nvidia_cards/
p789
(lp790
I1
aI3
aI2
aI2
aI1
aI1
aI1
aI1
aI2
aI1
aI1
aI1
aI2
aI1
aI1
aI1
aI5
aI1
aI2
aI1
aI1
aI4
aI1
aI2
aI9
aI1
aI4
aI1
aI1
aI1
aI2
aI1
aI1
aI1
asVhttps://www.reddit.com/r/jailbreak/comments/3d7j8r/tutorial_how_to_i_safely_rid_a_phone_of_jailbreak/
p791
(lp792
I1
aI5
aI1
aI3
aI1
aI3
aI1
aI3
aI2
aI6
aI2
aI2
aI4
aI1
aI3
aI1
aI4
asVhttps://www.reddit.com/r/dayz/comments/17wya3/i_want_to_ask_you_guys_if_my_friend_can_run_dayz/
p793
(lp794
I1
aI3
aI2
aI3
aI1
aI3
aI4
aI3
aI1
aI1
aI1
aI2
aI1
aI1
aI1
asVhttps://www.reddit.com/r/mintuit/comments/49dzy0/double_counting_spending_transactions/
p795
(lp796
I7
aI2
aI2
aI2
aI2
aI1
asVhttps://www.reddit.com/r/r4r/comments/2cuw9e/22_f4r_anywhere_international_friends/
p797
(lp798
I5
aI2
aI1
aI2
aI1
aI2
aI1
aI1
asVhttps://www.reddit.com/r/puregrease/comments/1l1m5j/accept_jesus/
p799
(lp800
I0
aI1
aI2
aI1
aI1
aI1
aI1
aI1
aI1
asVhttps://www.reddit.com/r/electronic_cigarette/comments/1g6fzc/myvaporgasm/
p801
(lp802
I4
aI26
aI4
aI1
aI1
aI6
aI3
aI2
aI2
aI7
aI2
aI3
aI1
aI2
aI1
aI3
aI1
aI1
aI4
aI1
aI1
aI2
aI2
aI1
asVhttps://www.reddit.com/r/Firefighting/comments/32xyk4/when_the_alarm_sounds_at_2am_after_a_long_day_of/
p803
(lp804
I0
aI2
aI3
aI3
aI1
aI2
aI1
aI2
aI1
aI1
aI1
aI1
asVhttps://www.reddit.com/r/explainlikeimfive/comments/4acs7u/eli5_how_do_dogs_sense_blood_pressure_levels_in/
p805
(lp806
I5
aI2
aI3
aI2
asVhttps://www.reddit.com/r/relationship_advice/comments/to8g3/need_helpadvice_on_saving_a_long_term_relationship/
p807
(lp808
I73
aI8
aI18
aI4
aI6
aI3
aI3
aI4
aI5
asVhttps://www.reddit.com/r/travel/comments/2wu0xt/denied_at_airport_due_to_damaged_passport_help/
p809
(lp810
I18
aI1
aI9
aI6
aI2
aI7
aI4
aI5
aI11
aI1
aI2
aI6
aI2
aI5
aI3
aI1
aI6
aI5
aI1
aI1
aI2
aI1
aI7
aI2
aI4
aI2
asVhttps://www.reddit.com/r/electronic_cigarette/comments/3vtitg/battery_amps_question/
p811
(lp812
I1
aI2
aI1
aI4
aI2
aI1
aI1
aI2
aI2
aI2
aI1
aI1
aI2
aI3
aI1
aI3
aI1
asVhttps://www.reddit.com/r/conlangs/comments/2bwl6g/root_system_of_wagthen_ideas_to_improve/
p813
(lp814
I20
aI2
aI2
aI5
aI8
aI6
aI4
aI4
aI3
asVhttps://www.reddit.com/r/stormchasing/comments/36bqnd/quick_question_about_divotscircles_on_the_ground/
p815
(lp816
I6
aI16
aI2
aI4
aI2
aI2
aI4
aI3
aI5
aI3
aI3
aI2
aI1
aI2
aI2
aI5
aI1
aI4
aI6
aI7
asVhttps://www.reddit.com/r/discgolf/comments/1b3fxv/my_bag/
p817
(lp818
I2
aI5
aI9
aI1
aI1
aI2
aI2
aI4
aI3
aI2
aI3
aI1
aI7
asVhttps://www.reddit.com/r/leangains/comments/2av7ah/simple_web_app_and_android_app_i_built_to_search/
p819
(lp820
I4
aI3
aI4
aI3
aI4
aI5
aI4
aI2
aI2
aI2
aI1
aI1
aI1
aI2
aI4
aI6
aI2
aI5
aI2
aI2
asVhttps://www.reddit.com/r/mtgfinance/comments/22si7v/fetch_lands_dropping_in_price_think_well_see/
p821
(lp822
I3
aI4
aI2
aI1
aI3
aI3
aI3
aI2
aI3
aI4
aI1
aI2
aI1
aI2
aI2
aI4
aI7
aI2
aI1
aI3
aI1
aI6
aI2
aI2
aI3
aI1
aI2
aI3
aI2
asVhttps://www.reddit.com/r/rawdenim/comments/2ldh1e/oni_517xx_7_months/
p823
(lp824
I6
aI3
aI5
aI3
aI3
aI2
aI1
aI7
aI2
aI1
aI1
aI2
aI1
aI2
aI1
aI3
aI2
aI3
aI1
aI3
aI2
aI3
aI1
aI3
aI3
aI1
aI2
aI2
aI4
aI1
aI3
aI1
aI5
aI3
aI2
aI2
aI1
aI2
aI2
aI1
aI3
asVhttps://www.reddit.com/r/buildapc/comments/2jlt9v/build_help_780_ti_or_980_and_what_brand/
p825
(lp826
I6
aI3
aI1
aI3
aI2
aI4
aI2
aI1
asVhttps://www.reddit.com/r/GlobalOffensive/comments/4lbuq4/buffalo_wild_wings_showing_eleague/
p827
(lp828
I2
aI1
aI1
aI4
aI2
aI2
aI1
aI2
aI2
aI3
aI1
aI1
aI1
aI1
aI1
aI1
aI1
aI2
aI1
aI1
aI1
aI1
aI1
aI1
aI4
aI1
aI1
aI3
aI1
aI1
aI2
aI2
aI1
aI5
aI1
aI1
aI1
aI1
aI1
aI1
asVhttps://www.reddit.com/r/thedivision/comments/49sb5d/i_need_of_some_helpadvise_about_this_game/
p829
(lp830
I20
aI13
aI3
aI1
aI3
aI3
aI5
aI3
aI9
aI1
aI4
aI1
aI8
aI4
aI3
aI2
aI1
aI3
aI1
aI3
aI1
aI2
aI4
aI4
aI2
aI6
aI6
aI3
aI1
aI2
aI1
aI4
asVhttps://www.reddit.com/r/mildlyinteresting/comments/4dibeq/the_date_stamp_on_this_bottle_was_unaffected_by/
p831
(lp832
I0
aI1
aI1
aI1
aI2
aI1
aI2
asVhttps://www.reddit.com/r/techsupport/comments/3a4dg8/bought_new_video_card_and_psu_frequent_crashing/
p833
(lp834
I10
aI2
aI1
aI6
aI1
aI9
aI4
asVhttps://www.reddit.com/r/gamemaker/comments/3behum/gmsgmlhow_can_i_make_the_game_look_for_a_file_in/
p835
(lp836
I1
aI1
aI1
aI4
aI1
aI3
aI1
asVhttps://www.reddit.com/r/SuggestALaptop/comments/26uyuz/want_something_that_wont_break_1415_usa_300500/
p837
(lp838
I17
aI4
aI1
aI3
aI1
aI1
aI2
aI1
asVhttps://www.reddit.com/r/asoiaf/comments/3zbw2n/spoiler_all_a_note_on_a_character_grrm_talked/
p839
(lp840
I1
aI1
aI2
aI6
aI3
aI1
aI1
aI1
aI1
aI1
aI1
aI2
asVhttps://www.reddit.com/r/jailbreak/comments/3ydont/request_tweak_to_hide_the_status_bar_on/
p841
(lp842
I2
aI4
aI1
aI2
aI2
aI1
aI1
aI1
aI2
asVhttps://www.reddit.com/r/rupaulsdragrace/comments/4lmuwj/did_anyone_else_fall_asleep/
p843
(lp844
I1
aI1
aI2
aI1
aI2
aI2
aI3
aI1
aI1
aI1
aI1
aI1
aI1
asVhttps://www.reddit.com/r/fo4/comments/4ep30s/spoilers_bethesdas_missed_mark_on_unique/
p845
(lp846
I125
aI4
aI5
aI3
aI7
aI4
aI20
aI1
aI6
aI4
aI10
aI1
aI4
aI4
aI4
aI6
aI8
aI2
aI40
aI4
aI5
aI4
aI1
aI3
aI2
aI1
aI7
aI3
aI6
aI2
aI3
aI5
aI5
aI2
aI2
aI2
aI1
aI3
aI3
aI5
asVhttps://www.reddit.com/r/civ/comments/2zo483/bnw_how_to_play_babylon/
p847
(lp848
I3
aI5
aI9
aI1
aI2
aI1
aI5
aI3
aI3
asVhttps://www.reddit.com/r/AskHistorians/comments/2ns3zy/was_hannibal_black/
p849
(lp850
I4
aI2
aI2
aI3
aI2
aI2
aI5
aI3
aI4
aI2
aI3
aI1
aI1
asVhttps://www.reddit.com/r/thewitcher3/comments/3iq9qh/my_one_big_problem_with_the_witcher_3/
p851
(lp852
I16
aI3
aI31
aI3
aI1
aI4
aI8
aI1
aI4
aI4
aI2
asVhttps://www.reddit.com/r/solotravel/comments/2jxz66/hostel_recommendations_in_ubud_bali/
p853
(lp854
I8
aI4
aI5
aI12
aI3
aI1
aI1
aI2
aI2
aI7
aI3
aI2
aI3
aI1
aI1
aI4
aI5
aI2
asVhttps://www.reddit.com/r/gamegrumps/comments/33mttj/game_grumps_and_youtubers_allowed_to_sing_now/
p855
(lp856
I2
aI1
aI1
aI3
aI4
aI5
asVhttps://www.reddit.com/r/ptsd/comments/272t3w/why_is_it_common_for_victims_of_trauma_to_get/
p857
(lp858
I10
aI3
aI4
aI4
aI18
aI4
aI3
aI2
aI15
aI3
aI4
aI3
aI8
aI7
aI3
aI18
aI19
aI15
aI4
aI10
aI1
aI6
aI10
aI3
aI1
asVhttps://www.reddit.com/r/gameofthrones/comments/4ljxf8/s6_what_i_feel_this_season_lacks/
p859
(lp860
I2
aI1
aI1
aI3
aI1
aI3
aI1
aI5
aI1
aI2
aI2
aI2
aI1
aI1
aI2
aI1
aI2
aI3
aI1
aI1
aI1
aI1
aI1
aI2
aI1
aI1
aI1
aI1
aI2
aI1
aI2
aI1
aI1
aI1
aI2
aI1
aI1
aI1
asVhttps://www.reddit.com/r/ApplyingToCollege/comments/4jeje4/is_there_a_list_of_schools_that_look_at_intended/
p861
(lp862
I1
aI1
aI2
aI1
aI1
aI2
aI2
asVhttps://www.reddit.com/r/hockeycards/comments/4b4qsa/sales_official_steals_and_deals_thread_31816/
p863
(lp864
I7
aI1
aI2
aI2
aI1
aI3
aI5
aI1
asVhttps://www.reddit.com/r/vita/comments/2o4com/game_of_thrones_ep_1_apparently_releasing_on/
p865
(lp866
I2
aI4
aI1
aI3
aI1
aI4
aI1
aI2
aI3
asVhttps://www.reddit.com/r/dayz/comments/2lq3tg/stuck_in_a_portapotty/
p867
(lp868
I3
aI3
aI1
aI2
aI2
aI1
aI3
aI3
aI1
aI1
aI1
aI1
aI1
aI3
aI1
aI1
aI1
aI8
aI2
asVhttps://www.reddit.com/r/selfpublish/comments/48jg7y/launch_parties/
p869
(lp870
I1
aI4
aI6
aI2
aI1
aI2
aI3
aI4
aI3
aI11
aI2
aI2
aI2
aI1
asVhttps://www.reddit.com/r/wow/comments/364wec/garrison_question_can_you_outgear_missions/
p871
(lp872
I6
aI1
aI1
aI3
aI4
aI3
aI1
aI2
aI2
aI1
aI2
asVhttps://www.reddit.com/r/applehelp/comments/27gooo/bootcamp_partition_shows_up_in_disk_utility_but/
p873
(lp874
I1
aI4
aI1
aI4
aI1
aI9
aI1
aI3
aI1
aI2
aI1
asVhttps://www.reddit.com/r/ripcity/comments/4ag8l7/nba_draft_2nd_round_where_can_we_buy_in_and_who/
p875
(lp876
I16
aI1
aI6
aI1
aI14
aI1
aI1
aI2
aI6
aI3
aI1
aI1
aI1
aI5
aI3
aI2
aI1
aI3
aI1
aI7
asVhttps://www.reddit.com/r/uncharted/comments/4lhh88/uncharted_4_crushing_is_extremely_difficult/
p877
(lp878
I3
aI2
aI1
aI1
aI2
aI2
aI1
aI2
aI2
aI1
aI3
aI1
aI2
asVhttps://www.reddit.com/r/gaming/comments/qtwhv/my_personal_question_regarding_dlc_longwinded_so/
p879
(lp880
I16
aI5
aI1
aI3
aI3
aI4
asVhttps://www.reddit.com/r/worldnews/comments/2arhjv/uks_new_energy_environment_ministers_opposed/
p881
(lp882
I0
aI3
aI1
aI2
aI3
aI1
aI1
aI1
aI5
aI1
aI1
aI2
aI1
aI1
aI2
aI4
aI1
aI1
aI1
aI5
aI1
aI2
aI2
aI1
aI1
aI2
aI1
aI2
aI3
aI3
aI2
aI1
aI2
aI4
aI1
aI2
aI3
aI5
aI1
aI1
asVhttps://www.reddit.com/r/relationships/comments/3j063c/me_16_m_with_my_friend_17_f_gets_awkward_i_dont/
p883
(lp884
I21
aI1
aI2
aI2
aI5
aI1
aI2
aI3
aI1
aI2
aI2
asVhttps://www.reddit.com/r/AskReddit/comments/1y9lal/men_of_reddit_which_would_you_prefer_two_6s_at/
p885
(lp886
I0
aI1
aI2
aI2
aI1
aI2
aI2
aI5
aI1
aI2
aI1
aI2
aI1
aI1
aI2
aI1
aI1
aI2
aI1
aI4
aI4
aI1
aI1
aI1
aI1
aI1
aI1
aI2
aI1
aI1
aI1
aI2
aI1
aI1
aI3
aI2
aI1
aI1
aI1
aI2
aI1
asVhttps://www.reddit.com/r/askcarsales/comments/38nvli/bought_cpo_now_potentially_facing_a_400_repair/
p887
(lp888
I32
aI5
aI2
aI6
aI3
aI2
aI1
aI5
aI6
aI2
aI3
aI2
aI6
aI7
aI3
aI3
aI4
aI2
aI3
aI1
aI3
aI3
asVhttps://www.reddit.com/r/tmobile/comments/39j0qb/psa_motos_51_update_to_the_2015_moto_e_disables/
p889
(lp890
I11
aI1
aI1
aI7
aI4
aI1
aI1
aI3
aI2
aI1
aI1
aI5
aI2
aI6
aI2
aI2
aI4
aI3
aI3
aI4
aI2
aI2
aI2
aI3
aI3
aI1
aI2
aI1
aI3
aI2
aI1
aI1
aI4
aI1
aI3
aI1
aI1
aI5
aI3
aI1
aI1
asVhttps://www.reddit.com/r/wrestlingisreddit/comments/2f1gqj/what_youve_waited_all_week_for_im_jack_anchor_amaa/
p891
(lp892
I8
aI1
aI1
aI1
aI1
aI1
aI2
aI2
aI7
aI1
aI4
aI1
aI5
aI2
aI3
aI2
aI2
aI2
aI5
aI3
aI2
aI2
aI4
aI1
aI1
aI1
aI1
aI1
aI2
aI2
aI2
aI1
aI1
aI3
aI1
aI1
aI1
aI2
asVhttps://www.reddit.com/r/sgsflair/comments/24xggi/flair_profile_umanmana/
p893
(lp894
I1
aI3
aI3
aI2
aI2
aI1
aI1
aI1
aI2
aI1
asVhttps://www.reddit.com/r/ableton/comments/1hu9ki/whos_a_pro_here/
p895
(lp896
I3
aI1
aI1
aI3
aI14
aI3
aI4
aI2
aI9
asVhttps://www.reddit.com/r/circlejerk/comments/si27x/i_am_a_21_year_old_white_atheist_american_male/
p897
(lp898
I1
aI2
aI2
aI3
aI4
aI5
aI4
aI2
aI4
aI4
aI1
aI1
aI3
aI2
aI4
aI2
aI2
aI1
aI1
aI2
aI1
aI1
aI2
aI2
aI2
aI1
aI2
aI1
aI1
aI1
aI1
aI1
asVhttps://www.reddit.com/r/woodworking/comments/22omh9/how_difficult_is_it_to_make_a_half_decent/
p899
(lp900
I2
aI6
aI10
aI6
aI5
aI2
aI3
aI4
aI4
aI1
aI2
aI2
aI1
aI1
aI3
aI1
aI3
aI3
aI2
aI3
aI1
asVhttps://www.reddit.com/r/MonsterHunter/comments/2h4i3m/i_just_got_to_high_rank_what_should_i_do_now/
p901
(lp902
I6
aI2
aI4
aI3
aI1
aI3
aI2
aI1
aI1
aI1
asVhttps://www.reddit.com/r/MigrantFleet/comments/3dme4r/waits_in_the_mess_hall_of_the_avius/
p903
(lp904
I3
aI3
aI1
aI2
aI5
aI1
aI1
aI1
aI1
aI2
aI2
aI1
aI3
aI1
aI2
aI2
aI1
aI3
aI1
aI1
aI2
aI2
aI1
aI1
aI2
aI3
aI2
aI1
aI3
aI2
aI1
aI1
aI2
aI4
aI1
aI2
aI3
aI1
aI1
aI1
asVhttps://www.reddit.com/r/eindhoven/comments/4bu1x1/got_fined_in_stratumseind_but_never_received_the/
p905
(lp906
I1
aI7
aI4
aI6
aI1
aI3
asVhttps://www.reddit.com/r/Civcraft/comments/21qdrr/krosh_griefing_a_day_after_he_was_released_50d/
p907
(lp908
I5
aI1
aI1
aI2
aI3
aI1
aI1
aI5
aI1
aI1
aI2
aI1
aI4
aI3
aI2
aI2
aI1
aI2
aI2
aI2
aI1
aI8
aI2
aI2
aI1
asVhttps://www.reddit.com/r/taiwan/comments/36hmli/i_will_be_representing_taiwan_at_an_mun/
p909
(lp910
I6
aI1
aI3
aI1
aI1
aI2
aI1
aI9
aI2
aI2
aI1
aI2
aI4
aI2
aI1
aI1
aI1
aI1
aI1
aI3
aI1
aI2
aI3
aI2
aI1
aI2
aI1
aI1
aI4
asVhttps://www.reddit.com/r/urbanfarming/comments/2lbpoy/what_is_the_term_used_for_people_who_plant/
p911
(lp912
I0
aI1
aI1
aI2
aI2
aI1
aI3
aI3
aI2
aI3
aI2
aI1
aI1
aI2
aI3
aI1
asVhttps://www.reddit.com/r/Khador/comments/3eejcy/komrades_i_request_advice_in_dealing_with_skorne/
p913
(lp914
I10
aI36
aI1
aI7
aI12
aI27
aI17
aI42
aI10
aI13
aI11
asVhttps://www.reddit.com/r/picrequests/comments/1ffatw/request_just_put_a_scumbag_steve_hat_on_this_guy/
p915
(lp916
I1
aI1
aI1
aI2
aI4
aI3
aI1
aI1
asVhttps://www.reddit.com/r/buildapc/comments/3vv8bw/so_i_randomly_decided_to_set_up_a_nas/
p917
(lp918
I19
aI6
aI9
aI8
aI6
aI5
aI5
aI3
asVhttps://www.reddit.com/r/StardewValley/comments/4ahr4u/suggestion_make_kegs_etc_stackable_please/
p919
(lp920
I1
aI7
aI1
aI1
aI1
aI1
aI1
aI1
aI1
asVhttps://www.reddit.com/r/Smite/comments/2r6j90/its_casuals_so_we_can_do_whatever_we_want_rant/
p921
(lp922
I7
aI1
aI1
aI3
aI4
aI3
aI10
aI4
aI1
aI1
aI4
aI1
aI2
aI2
aI1
aI10
aI1
aI1
aI1
aI2
aI3
aI2
aI4
aI2
aI4
aI1
aI1
aI2
aI1
aI3
aI3
aI1
aI3
aI2
aI1
aI1
aI2
aI2
aI2
asVhttps://www.reddit.com/r/techsupport/comments/35n4ds/hdd_is_dead_on_pc_with_preinstalled_w8_how_would/
p923
(lp924
I2
aI7
aI7
aI2
aI3
aI1
aI11
aI2
aI1
aI2
asVhttps://www.reddit.com/r/MotoX/comments/2939av/not_a_huge_fan_of_google_play_music/
p925
(lp926
I4
aI1
aI2
aI5
aI3
aI4
aI2
aI5
aI1
aI1
aI2
aI2
aI1
aI1
aI1
aI6
aI1
aI2
aI1
aI6
aI8
aI3
aI3
aI2
aI1
aI2
aI3
asVhttps://www.reddit.com/r/SquaredCircle/comments/4l491f/meltzer_on_shawn_michaelsaj_styles_comparison/
p927
(lp928
I10
aI1
aI2
aI14
aI2
aI2
aI3
aI1
aI3
aI3
aI1
aI5
aI2
aI2
aI1
aI1
aI1
aI1
aI1
aI2
aI5
aI1
aI1
aI2
aI5
aI1
aI3
aI1
aI8
aI1
aI7
asVhttps://www.reddit.com/r/wow/comments/32jid7/is_hellfire_citadel_the_final_raid/
p929
(lp930
I3
aI4
aI2
aI7
aI1
aI1
aI1
aI3
aI1
aI1
aI1
aI2
aI7
aI4
aI9
aI1
aI1
aI6
aI1
aI1
aI2
aI2
aI1
aI2
asVhttps://www.reddit.com/r/fweddit/comments/uezxo/fweddit_fleet_info_for_rookies/
p931
(lp932
I6
aI1
aI2
aI1
aI4
aI3
aI1
aI6
aI6
aI2
asVhttps://www.reddit.com/r/HondaCB/comments/29cfeq/are_cls_welcome_here_as_well/
p933
(lp934
I2
aI1
aI1
aI2
aI2
aI1
aI1
aI3
aI1
aI1
aI4
aI2
aI6
aI2
aI4
aI8
aI4
aI6
aI2
asVhttps://www.reddit.com/r/atheism/comments/4bgz9f/how_to_stop_a_forced_first_communion/
p935
(lp936
I8
aI4
aI3
aI2
aI1
aI11
aI3
aI1
aI4
aI1
aI6
aI13
aI1
aI5
aI2
aI2
aI3
aI1
aI1
aI7
aI2
aI3
aI1
aI4
aI2
asVhttps://www.reddit.com/r/oculus/comments/3gikpv/new_nvidiaamd_graphics_cards/
p937
(lp938
I5
aI8
aI3
aI7
aI1
aI2
aI5
aI4
aI5
aI6
aI2
aI3
aI5
aI4
aI5
aI4
aI2
aI2
aI4
aI2
aI2
asVhttps://www.reddit.com/r/Audi/comments/19zkyo/anyone_know_how_much_it_would_cost_to_replace_a/
p939
(lp940
I3
aI1
aI3
aI1
aI2
aI1
aI1
aI1
aI3
aI1
aI2
aI2
aI4
asVhttps://www.reddit.com/r/naut/comments/4gj0dp/how_to_change_submit_your_post_to_reddit_to/
p941
(lp942
I2
aI1
aI3
aI2
aI2
aI3
aI3
asVhttps://www.reddit.com/r/tmobile/comments/3irzlb/going_international_are_the_roaming_features_as/
p943
(lp944
I3
aI2
aI4
aI7
aI8
aI2
aI1
aI2
aI20
aI2
aI3
aI1
aI1
aI2
asVhttps://www.reddit.com/r/thedivision/comments/4bp1qz/players_who_bought_new_york_collapse_what_are/
p945
(lp946
I4
aI2
aI3
aI2
aI1
aI2
aI3
aI1
aI1
aI2
asVhttps://www.reddit.com/r/arduino/comments/4dcbwl/serialread_only_receives_data_if_i_use_serialprint/
p947
(lp948
I7
aI21
aI16
aI2
aI7
aI5
aI2
aI3
aI3
aI2
aI1
aI1
aI4
asVhttps://www.reddit.com/r/IronThronePowers/comments/3e1px7/lorerp_time/
p949
(lp950
I85
aI1
aI15
aI6
aI9
aI5
aI15
aI18
aI9
aI6
aI8
asVhttps://www.reddit.com/r/feedthebeast/comments/417p4b/are_thermalilies_bugged_in_infinity_evolved/
p951
(lp952
I2
aI4
aI2
aI2
aI7
aI1
aI1
aI2
aI2
aI2
asVhttps://www.reddit.com/r/ffxiv/comments/1cexp2/a_few_questions_that_may_or_may_not_have_an_answer/
p953
(lp954
I3
aI3
aI3
aI2
aI2
aI3
aI4
asVhttps://www.reddit.com/r/trees/comments/4bug3a/reaching_a_10_with_a_high_tolerance/
p955
(lp956
I4
aI1
aI2
aI1
aI1
aI1
aI5
aI6
aI1
aI1
aI2
aI2
aI8
aI2
aI3
asVhttps://www.reddit.com/r/asktrp/comments/39tknw/can_you_have_too_much_self_confidence/
p957
(lp958
I8
aI11
aI1
aI10
aI10
aI7
aI6
aI7
aI2
aI4
aI7
aI18
aI6
aI3
aI6
aI5
aI3
aI6
aI5
aI4
aI1
asVhttps://www.reddit.com/r/splatoon/comments/46o55h/renewed_my_love_of_games/
p959
(lp960
I7
aI2
aI1
aI1
aI2
aI1
aI1
aI1
aI2
asVhttps://www.reddit.com/r/tails/comments/1z04p9/upgraded_to_tails_0221_but_recently_cant_open/
p961
(lp962
I4
aI3
aI3
aI5
aI2
aI3
aI1
asVhttps://www.reddit.com/r/mylittlepony/comments/3d7yff/i_feel_so_at_home_here_from_rsquaredcircle/
p963
(lp964
I7
aI3
aI3
aI1
aI3
aI1
aI3
aI5
aI2
aI1
aI2
aI1
aI3
aI2
aI1
aI2
aI1
aI1
aI1
aI7
aI3
aI2
aI1
aI1
aI3
aI5
aI13
aI1
aI1
aI2
aI3
aI1
aI1
aI3
aI6
aI2
aI1
aI4
aI1
aI2
aI2
asVhttps://www.reddit.com/r/admincraft/comments/q79zg/my_host_provider_lost_all_of_my_data/
p965
(lp966
I22
aI9
aI4
aI3
aI5
aI7
aI5
aI1
aI3
aI3
aI2
aI6
aI2
aI3
aI3
aI1
aI1
aI1
aI5
aI1
aI2
aI3
aI3
aI1
aI1
asVhttps://www.reddit.com/r/teenagers/comments/4dnq3i/hi_rteenagers_today_ill_teach_you_how_to_accept/
p967
(lp968
I9
aI3
aI1
aI3
aI1
aI1
aI1
aI1
aI1
aI1
aI8
aI18
aI4
aI5
aI2
aI1
aI3
aI2
aI2
aI1
aI1
aI4
aI1
aI1
aI1
aI2
aI8
aI1
aI1
aI2
aI1
aI1
aI3
aI5
aI1
aI14
aI2
aI3
aI2
asVhttps://www.reddit.com/r/learnprogramming/comments/4d1etw/cc_program_memory_easily_the_most_helpful_book/
p969
(lp970
I9
aI1
aI2
aI3
aI2
aI1
aI1
aI2
aI1
aI1
aI1
aI2
aI1
aI1
aI1
aI1
aI2
aI7
aI4
aI3
aI2
aI2
aI4
aI2
aI3
aI2
aI1
aI3
aI4
asVhttps://www.reddit.com/r/RWBY/comments/2jhml5/photoshop_challenge/
p971
(lp972
I7
aI1
aI1
aI1
aI3
aI1
aI1
aI2
asVhttps://www.reddit.com/r/paydaytheheist/comments/1nis2f/loco_shell_rack/
p973
(lp974
I2
aI3
aI1
asVhttps://www.reddit.com/r/blackops3/comments/3isd0y/black_hat_this_is_the_coolest_tactical_to_me/
p975
(lp976
I4
aI2
aI4
aI5
aI2
aI2
aI2
aI3
aI1
aI2
aI2
aI3
aI7
aI1
asVhttps://www.reddit.com/r/opiates/comments/1l1egz/my_fellow_choppers/
p977
(lp978
I2
aI2
aI5
aI2
aI1
aI1
aI1
aI2
aI1
asVhttps://www.reddit.com/r/BitcoinMining/comments/iqxd6/ati_driver_problems_damned_if_i_do_damned_if_i/
p979
(lp980
I6
aI3
aI7
aI8
aI7
aI6
aI4
aI6
aI5
asVhttps://www.reddit.com/r/econhw/comments/4je20w/how_is_wage_ratio_different_from_log_wage/
p981
(lp982
I4
aI9
aI2
aI4
aI2
aI3
aI5
aI3
aI10
aI8
aI4
asVhttps://www.reddit.com/r/UTSA/comments/48diyy/transfer_admission/
p983
(lp984
I3
aI3
aI4
aI2
aI3
aI2
aI2
aI3
aI6
asVhttps://www.reddit.com/r/flyfishing/comments/1zgp4q/looking_for_a_suggestion_for_a_chest_pack/
p985
(lp986
I5
aI20
aI1
aI9
aI3
aI3
aI1
aI2
aI3
aI1
aI2
aI2
aI4
aI2
asVhttps://www.reddit.com/r/buildapc/comments/3gc0ni/build_help_have_a_build_in_mind_need_some/
p987
(lp988
I38
aI1
aI7
aI1
aI5
aI1
aI6
aI2
aI2
aI1
asVhttps://www.reddit.com/r/bloodborne/comments/3y7vsw/ive_just_noticed_something_about_the_riflespear/
p989
(lp990
I1
aI2
aI1
aI1
aI1
aI1
aI1
aI4
aI1
aI3
aI5
aI2
aI3
aI1
aI5
aI2
aI2
asVhttps://www.reddit.com/r/BlackwellAcademy/comments/3bbxkl/the_great_outdoors/
p991
(lp992
I5
aI1
aI5
aI3
aI1
aI4
aI2
aI2
aI2
aI3
aI3
aI2
aI3
aI3
aI6
aI6
aI1
aI2
aI2
aI7
aI5
aI2
aI3
aI5
aI7
aI5
aI1
aI2
asVhttps://www.reddit.com/r/techsupport/comments/1vmr1t/i_have_been_noticing_frequent_internet_failures/
p993
(lp994
I9
aI6
aI1
aI2
aI1
aI10
aI2
aI2
aI1
asVhttps://www.reddit.com/r/swordartonline/comments/4i7qzu/voice_actors_of_sao/
p995
(lp996
I3
aI4
aI2
aI10
aI1
aI4
aI8
aI1
aI3
aI1
aI2
aI6
aI4
aI3
aI1
aI2
aI1
aI1
aI1
aI1
aI1
aI2
aI2
asVhttps://www.reddit.com/r/languagelearning/comments/1d7u4b/assimil_help_please/
p997
(lp998
I10
aI1
aI5
aI2
aI1
aI3
aI3
asVhttps://www.reddit.com/r/starcraft/comments/e918g/does_anybody_else_miss_lurkers/
p999
(lp1000
I4
aI1
aI3
aI2
aI2
aI2
aI1
aI3
aI2
aI8
aI5
aI4
asVhttps://www.reddit.com/r/guitarpedals/comments/3z5um2/offered_a_deluxe_memory_man_need_some_help/
p1001
(lp1002
I0
aI2
aI1
aI1
aI1
aI2
aI3
aI3
aI1
aI1
aI2
aI2
aI1
aI6
aI3
aI2
aI1
aI3
aI1
aI1
aI6
aI1
aI1
asVhttps://www.reddit.com/r/gtaonline/comments/38ov4i/seriously_a_ufo/
p1003
(lp1004
I1
aI2
aI2
aI2
aI1
aI3
aI6
aI3
asVhttps://www.reddit.com/r/AskReddit/comments/h1amt/for_all_reddit_reptile_lovers_how_does_one_become/
p1005
(lp1006
I10
aI10
aI9
aI10
aI8
aI4
aI4
asVhttps://www.reddit.com/r/lacrossewi/comments/r4q2v/grandads_bluff/
p1007
(lp1008
I1
aI2
aI1
aI2
aI4
aI1
aI2
aI2
asVhttps://www.reddit.com/r/techsupport/comments/3g9n6g/overvolting_asus_gtx_970_safety_guidelines/
p1009
(lp1010
I3
aI3
aI1
aI3
aI5
aI7
aI3
asVhttps://www.reddit.com/r/exjw/comments/3f0suf/letter_about_child_abuse/
p1011
(lp1012
I6
aI1
aI54
aI7
aI1
aI1
aI1
aI6
aI4
aI1
aI4
aI3
aI3
aI1
asVhttps://www.reddit.com/r/oculus/comments/4gklm0/playing_steam_games_with_oculus/
p1013
(lp1014
I6
aI3
aI6
aI2
aI1
aI2
aI1
aI3
aI2
aI1
aI3
aI2
asVhttps://www.reddit.com/r/RESissues/comments/119c3d/bug_imgur_album_previews_dont_correctly_handle/
p1015
(lp1016
I2
aI2
aI2
aI1
aI2
aI2
aI3
aI1
aI1
asVhttps://www.reddit.com/r/buildapcforme/comments/1hoe1p/1400_gamingreddit_machine/
p1017
(lp1018
I43
aI2
aI5
aI3
aI1
aI1
asVhttps://www.reddit.com/r/feedthebeast/comments/2uz5qk/blood_magic_questions/
p1019
(lp1020
I5
aI2
aI2
aI1
aI3
aI1
aI1
aI1
aI4
asVhttps://www.reddit.com/r/bloodborne/comments/30gpqm/need_help_with_a_certain_boss_spoilers/
p1021
(lp1022
I1
aI11
aI1
aI1
aI1
aI1
aI1
asVhttps://www.reddit.com/r/gardening/comments/3gtx5g/help_with_growing_my_roses/
p1023
(lp1024
I5
aI5
aI3
aI3
aI3
aI2
aI2
aI2
aI2
asVhttps://www.reddit.com/r/todayilearned/comments/45ny8m/til_nhl_goalies_are_not_allowed_to_be_named/
p1025
(lp1026
I0
aI4
aI2
aI2
aI1
aI1
aI1
aI1
aI1
aI3
aI1
aI1
aI1
aI1
aI1
aI1
aI2
aI2
aI1
aI2
aI2
aI1
asVhttps://www.reddit.com/r/Motocross/comments/1recbs/toy_hauler_and_my_odd_friend/
p1027
(lp1028
I0
aI1
aI1
aI3
aI1
aI1
aI1
asVhttps://www.reddit.com/r/feedthebeast/comments/40jol8/may_someone_answer_these_questions_about/
p1029
(lp1030
I9
aI10
aI4
aI3
aI2
aI2
aI3
aI1
aI1
asVhttps://www.reddit.com/r/hometheater/comments/498ui1/newbie_wanting_to_gradually_upgrade/
p1031
(lp1032
I7
aI2
aI4
aI3
aI7
aI1
aI4
aI3
aI3
aI4
aI7
aI1
aI2
aI1
asVhttps://www.reddit.com/r/stopsmoking/comments/lfgd2/24_hours_without_a_cigarette/
p1033
(lp1034
I9
aI8
aI9
aI11
aI6
aI3
aI6
aI2
aI11
aI8
aI4
aI5
aI2
aI2
asVhttps://www.reddit.com/r/pokemon/comments/1nxqoi/looking_for_fellow_pokemon_trainers_for_x_and_y/
p1035
(lp1036
I4
aI3
aI1
aI2
asVhttps://www.reddit.com/r/runescape/comments/nybu0/ask_me_anything_runescape_related/
p1037
(lp1038
I1
aI1
aI5
aI1
aI1
aI2
aI4
aI1
aI3
aI1
aI1
aI1
aI3
aI2
aI1
aI4
aI1
aI1
aI2
aI1
aI5
aI2
aI5
aI1
asVhttps://www.reddit.com/r/Fantasy/comments/1947m0/all_three_mongoliad_books_on_sale_for_299_now/
p1039
(lp1040
I3
aI2
aI2
aI2
aI3
aI5
aI1
aI2
aI1
aI1
aI3
aI1
asVhttps://www.reddit.com/r/fifthworldproblems/comments/24nmxj/long_lost_half_brother_zalthor_speaks_ama/
p1041
(lp1042
I24
aI1
aI1
aI1
aI1
aI3
aI3
aI2
aI4
aI1
aI7
aI4
aI4
aI4
aI7
aI2
aI1
aI4
aI3
aI1
aI2
aI2
aI1
aI7
aI8
aI2
aI4
aI4
aI10
aI1
aI2
aI2
aI2
aI2
asVhttps://www.reddit.com/r/whowouldwin/comments/1b5ocp/the_presence_vs_the_oneaboveall/
p1043
(lp1044
I6
aI5
aI1
aI2
aI3
aI1
aI3
aI7
aI2
aI3
aI3
aI2
aI1
aI2
aI4
aI9
aI3
aI6
aI4
aI5
asVhttps://www.reddit.com/r/gaymers/comments/npwnf/told_my_mom_im_bisexual_and_it_went_splendidlynow/
p1045
(lp1046
I5
aI4
aI2
aI2
aI10
aI1
aI3
aI3
aI2
aI2
aI2
aI1
asVhttps://www.reddit.com/r/engineering/comments/4475r4/looking_for_control_systems_text_book/
p1047
(lp1048
I3
aI6
aI1
aI2
aI2
aI19
aI11
aI6
aI1
aI3
asVhttps://www.reddit.com/r/learnprogramming/comments/315d08/finding_the_mode_of_a_double_array_java/
p1049
(lp1050
I1
aI1
aI2
aI2
aI2
aI3
aI1
aI2
asVhttps://www.reddit.com/r/electronic_cigarette/comments/1c2od5/universal_passthrough/
p1051
(lp1052
I2
aI2
aI2
aI2
aI1
aI1
aI2
aI3
aI2
aI1
aI3
asVhttps://www.reddit.com/r/smallbusiness/comments/184zks/if_a_business_doesnt_turn_a_profit_does_not/
p1053
(lp1054
I5
aI4
aI4
aI9
aI3
aI4
aI6
aI1
aI5
aI1
aI2
aI2
aI2
aI2
aI10
aI1
asVhttps://www.reddit.com/r/guns/comments/dd9us/what_do_you_do_with_defective_ammo/
p1055
(lp1056
I5
aI4
aI5
aI4
aI1
aI2
aI1
aI1
aI3
aI4
aI5
aI3
aI3
aI3
aI1
aI3
aI1
aI2
aI2
aI2
aI1
aI3
asVhttps://www.reddit.com/r/DotA2/comments/2oph3u/nonenglish_speakers_abusing_us_english_queue/
p1057
(lp1058
I9
aI2
aI1
aI4
aI1
aI2
aI3
aI4
aI2
aI2
aI1
aI3
aI2
aI1
aI2
aI2
aI1
aI2
aI3
aI1
aI1
aI2
aI1
aI4
aI1
aI2
aI5
aI2
aI5
aI4
aI1
aI5
aI1
asVhttps://www.reddit.com/r/ClickerHeroes/comments/2mnejq/so_i_am_at_the_point_of_my_first_heroes_easily/
p1059
(lp1060
I7
aI13
aI3
aI3
aI1
aI3
aI6
aI4
aI1
aI1
asVhttps://www.reddit.com/r/wheeloftimerp/comments/3fqrmp/children_in_mindea/
p1061
(lp1062
I9
aI31
aI1
aI20
aI17
aI8
aI21
aI17
aI29
aI11
asVhttps://www.reddit.com/r/doctorwho/comments/3aywbh/doctor_who_a_companions_perspective/
p1063
(lp1064
I113
aI6
aI6
aI4
aI2
aI2
aI3
asVhttps://www.reddit.com/r/politics/comments/nzce4/somebody_understands_debt/
p1065
(lp1066
I3
asVhttps://www.reddit.com/r/askphilosophy/comments/376njf/which_school_of_philosophy_do_you_think_you/
p1067
(lp1068
I1
aI11
aI4
aI7
aI6
aI2
aI7
aI3
aI5
aI5
aI4
aI5
aI1
aI3
aI4
aI4
aI3
aI2
aI2
aI1
aI1
aI1
aI6
aI5
aI8
aI12
aI2
aI3
aI1
aI2
aI6
aI6
aI1
aI3
aI5
aI13
aI1
aI1
aI4
aI2
aI1
asVhttps://www.reddit.com/r/wow/comments/4e3rl6/just_got_to_panda_with_my_dk_whats_the_most_asian/
p1069
(lp1070
I5
aI3
aI2
aI2
aI2
aI2
aI1
asVhttps://www.reddit.com/r/YamakuHighSchool/comments/2pcxvh/on_the_school_roof_alone_crying/
p1071
(lp1072
I5
aI2
aI2
asVhttps://www.reddit.com/r/techsupport/comments/3c2tl6/new_ssd_wont_act_as_a_boot_drive/
p1073
(lp1074
I28
aI2
aI1
aI1
aI2
aI1
aI3
aI2
aI3
aI3
asVhttps://www.reddit.com/r/Dublin/comments/1d8bk1/places_to_go_on_a_saturday_night_alone/
p1075
(lp1076
I1
aI6
aI3
aI1
aI1
aI1
aI2
aI1
aI10
aI3
aI3
asVhttps://www.reddit.com/r/SteamTradingCards/comments/1l249y/question_can_someone_explain_foil_cards_for_me/
p1077
(lp1078
I3
aI2
aI1
aI1
aI1
aI2
asVhttps://www.reddit.com/r/explainlikeimfive/comments/1rsvyx/eli5_how_would_a_gun_fire_in_space/
p1079
(lp1080
I0
aI1
aI4
aI2
aI5
aI1
aI1
aI3
asVhttps://www.reddit.com/r/tf2/comments/4a748r/things_tf2_players_say_animation/
p1081
(lp1082
I1
aI1
aI1
aI2
aI2
aI1
aI1
aI1
aI1
aI1
aI3
aI1
aI1
aI1
aI1
aI3
aI2
aI1
aI1
aI2
aI1
aI1
aI1
aI1
aI1
aI1
aI1
aI1
aI1
aI1
aI2
aI1
aI1
aI1
aI1
aI1
aI3
aI1
aI5
asVhttps://www.reddit.com/r/SuggestALaptop/comments/2vxnhp/do_i_need_a_discrete_graphics_card_if_i_dont_play/
p1083
(lp1084
I11
aI2
aI4
aI4
aI3
aI4
aI1
aI2
aI1
aI2
asVhttps://www.reddit.com/r/silenthill/comments/2dyjiu/interactions_with_lisa/
p1085
(lp1086
I36
aI7
aI3
aI4
aI7
aI3
aI23
aI1
aI2
aI3
aI7
aI3
aI3
aI2
aI2
aI3
aI1
aI2
aI2
aI6
aI2
aI2
aI3
aI5
aI3
aI2
aI1
aI4
aI2
aI6
aI6
aI1
aI2
aI3
aI4
asVhttps://www.reddit.com/r/snakes/comments/144ca0/het_pied_female_ball_ate_her_first_mouse_after/
p1087
(lp1088
I11
aI3
aI2
aI5
aI2
aI5
aI3
aI4
aI1
asVhttps://www.reddit.com/r/snakes/comments/10qvst/dry_scales/
p1089
(lp1090
I1
aI5
aI1
aI8
aI3
aI2
asVhttps://www.reddit.com/r/jailbreak/comments/2r5m8x/helpquestionios_811_batterylife_caused_safe_mode/
p1091
(lp1092
I4
aI6
aI1
aI2
aI2
aI8
asVhttps://www.reddit.com/r/legaladvice/comments/1uks9e/ga_lawyer_misspelled_my_mothers_name_for_a_power/
p1093
(lp1094
I6
aI1
aI2
aI1
aI4
aI3
aI1
aI5
aI2
aI1
aI4
aI2
aI2
aI2
aI3
aI3
asVhttps://www.reddit.com/r/legaladvice/comments/1l7v8q/someone_put_my_family_in_serious_danger_but_it/
p1095
(lp1096
I16
aI2
aI2
aI8
aI2
aI5
aI2
aI3
aI4
aI2
aI3
aI3
asVhttps://www.reddit.com/r/AskTrumpSupporters/comments/4lt2ye/how_much_do_you_think_the_wall_would_cost_us/
p1097
(lp1098
I1
aI1
aI1
aI3
aI1
aI2
aI1
aI1
aI1
aI1
aI1
aI2
asVhttps://www.reddit.com/r/photography/comments/bz4iz/trying_to_find_a_gps_logger_to_geoencode_photos/
p1099
(lp1100
I12
aI7
aI2
aI5
aI2
aI2
aI1
aI2
aI4
aI2
aI4
aI7
aI2
aI2
aI2
asVhttps://www.reddit.com/r/ecigclassifieds/comments/4bf09g/wtb_dr_crimmys_banana_pudding_3mg_clone/
p1101
(lp1102
I1
aI2
aI1
aI1
aI1
aI4
aI2
aI2
asVhttps://www.reddit.com/r/depression/comments/22b9x9/i_dont_know_how_to_deal_with_this/
p1103
(lp1104
I19
aI10
aI5
aI7
aI2
aI1
aI1
asVhttps://www.reddit.com/r/breakingbad/comments/1l6ghy/i_need_the_ricin_explained/
p1105
(lp1106
I4
aI30
aI5
aI1
aI2
aI6
aI6
aI5
aI2
aI4
aI4
aI3
aI1
aI6
aI1
aI15
asVhttps://www.reddit.com/r/AskMen/comments/12cyac/askmen_i_need_your_help/
p1107
(lp1108
I6
aI1
aI2
aI2
aI1
aI4
aI1
aI1
aI1
aI4
aI3
aI2
aI1
aI1
aI2
aI7
aI4
aI4
aI4
aI1
aI2
aI2
asVhttps://www.reddit.com/r/learnmath/comments/3anfse/college_calc_1_the_derivative_of_fxx/
p1109
(lp1110
I4
aI1
aI2
aI4
aI1
aI5
aI3
aI8
aI2
aI3
aI2
aI4
aI2
aI3
aI2
aI2
asVhttps://www.reddit.com/r/gaming/comments/15jcpa/my_buddy_also_a_redditor_just_walked_in_and_gave/
p1111
(lp1112
I0
aI2
aI2
aI1
aI1
aI2
asVhttps://www.reddit.com/r/learnprogramming/comments/2u79ui/i_dont_know_what_language_i_should_use/
p1113
(lp1114
I10
aI4
aI6
aI4
aI2
aI3
aI2
asVhttps://www.reddit.com/r/BabyBumps/comments/2syo4a/god_help_me_my_husband_is_out_of_prozac/
p1115
(lp1116
I21
aI4
aI3
aI6
aI2
aI8
aI8
aI3
aI4
aI1
aI6
aI2
aI7
aI2
aI2
aI2
asVhttps://www.reddit.com/r/techsupport/comments/38f1jk/which_monitor_is_better/
p1117
(lp1118
I3
aI1
aI3
aI3
aI5
aI6
aI3
aI2
aI2
aI2
asVhttps://www.reddit.com/r/amiibo/comments/38dfzc/for_those_that_ordered_from_zavvi_and_it_still/
p1119
(lp1120
I8
aI2
aI1
aI1
aI1
aI1
aI2
aI1
aI1
asVhttps://www.reddit.com/r/blackdesertonline/comments/47vvn1/launcher_doesnt_recognize_gpu/
p1121
(lp1122
I3
aI1
aI1
aI1
aI6
aI3
aI1
aI4
aI1
aI1
aI2
aI2
aI1
aI2
asVhttps://www.reddit.com/r/leagueoflegends/comments/maaj3/what_the_hell_happened_to_jiji/
p1123
(lp1124
I5
aI2
aI4
aI5
aI4
aI1
aI1
aI1
aI3
aI1
aI2
aI1
aI6
aI6
aI4
aI1
aI3
aI1
aI2
aI1
aI2
aI3
aI2
aI1
aI2
aI2
aI2
aI2
aI2
aI3
aI2
aI2
aI1
aI4
aI3
aI7
aI3
aI19
aI2
aI1
aI1
asVhttps://www.reddit.com/r/atheism/comments/x4tgk/a_thought_that_has_occurred_to_me_about/
p1125
(lp1126
I5
aI4
aI3
aI4
aI1
aI4
aI1
aI1
aI2
aI4
aI3
asVhttps://www.reddit.com/r/playark/comments/3abtzw/suggestionright_mouseclick_on_certain_mountable/
p1127
(lp1128
I1
aI3
aI1
aI2
aI2
aI2
aI1
aI1
aI4
aI5
aI3
aI2
asVhttps://www.reddit.com/r/tf2/comments/1tkkfc/can_i_get_some_advice_on_a_trade/
p1129
(lp1130
I5
aI1
aI2
aI3
aI2
aI2
aI2
aI2
aI2
asVhttps://www.reddit.com/r/penpals/comments/2q1zba/24faus_for_penpalsemail_need_to_practice_spanish/
p1131
(lp1132
I3
aI2
aI1
aI2
aI3
aI2
aI1
aI1
aI4
aI1
aI2
aI1
asVhttps://www.reddit.com/r/letsplay/comments/3itasy/i_got_a_mcn_invite_for_the_music_nations_network/
p1133
(lp1134
I11
aI1
aI1
aI1
aI3
aI1
aI1
aI2
aI1
aI4
asVhttps://www.reddit.com/r/emulation/comments/1jgcsd/a_question_about_using_an_external_hard_drive/
p1135
(lp1136
I6
aI5
aI2
aI2
aI2
aI3
aI1
aI2
aI2
aI2
asVhttps://www.reddit.com/r/pcmasterrace/comments/2loi4l/pcmr_1st_world_problemas/
p1137
(lp1138
I1
aI2
aI1
aI1
aI1
aI2
asVhttps://www.reddit.com/r/evedreddit/comments/lvlgx/ya_know_i_love_eve_and_dreddittest_but_damn_it_is/
p1139
(lp1140
I13
aI1
aI2
aI3
aI2
aI3
aI2
aI1
aI1
aI1
aI3
aI6
aI1
aI1
aI2
aI2
aI2
aI2
aI1
aI1
aI3
aI1
aI1
aI1
aI1
aI1
asVhttps://www.reddit.com/r/fakeid/comments/2ikjy9/need_bank_statement_template_boachasewf/
p1141
(lp1142
I2
aI2
aI2
aI1
aI1
aI3
aI1
aI2
aI2
aI3
aI3
aI3
aI2
aI1
aI2
aI9
aI5
aI1
aI2
aI2
aI1
aI2
aI3
aI1
aI2
aI1
aI3
aI1
aI4
aI1
aI2
asVhttps://www.reddit.com/r/DnD/comments/4h1veh/barbarian_backstory_help/
p1143
(lp1144
I3
aI1
aI19
aI1
aI1
aI2
aI2
aI2
aI2
aI1
aI1
aI3
aI1
aI1
aI3
aI2
aI2
aI1
asVhttps://www.reddit.com/r/changemyview/comments/2d1cqq/cmv_the_opposite_opinion_on_the_eternal_fat_vs/
p1145
(lp1146
I37
aI18
aI3
aI5
aI19
aI1
aI8
aI6
aI13
aI4
aI2
aI3
aI2
aI5
aI2
aI7
aI8
aI2
aI4
aI4
aI5
aI8
aI10
aI4
aI3
aI4
aI4
aI1
asVhttps://www.reddit.com/r/webdev/comments/1zqv4n/newbie_looking_at_setting_up_a_web_server/
p1147
(lp1148
I7
aI2
aI3
aI2
aI3
aI2
aI2
aI4
aI1
aI1
aI2
asVhttps://www.reddit.com/r/techsupport/comments/p7zkj/pc_audio_problems_even_after_driver_reinstall/
p1149
(lp1150
I4
aI3
aI3
aI2
aI4
aI1
aI4
aI2
aI3
aI5
asVhttps://www.reddit.com/r/DarkSouls3JPN/comments/4ck4jh/yuria_quest/
p1151
(lp1152
I2
aI11
aI3
aI1
aI2
aI3
aI3
asVhttps://www.reddit.com/r/web_design/comments/32skhj/a_website_that_shows_use_of_color_in_movies/
p1153
(lp1154
I3
aI2
aI3
aI1
aI3
aI3
asVhttps://www.reddit.com/r/Earwolf/comments/1p4383/comedy_bang_bang_episode_251_the_bed_spoiler_with/
p1155
(lp1156
I0
aI1
aI4
aI2
aI1
aI3
aI5
aI2
aI2
aI1
aI6
asVhttps://www.reddit.com/r/soccer/comments/25ygby/long_post_a_review_of_phil_mcnultys_louis_van/
p1157
(lp1158
I72
aI1
aI1
aI1
aI4
aI2
aI5
aI6
aI4
aI9
asVhttps://www.reddit.com/r/answers/comments/1fbhox/does_the_vibration_rate_of_a_particle_correspond/
p1159
(lp1160
I1
aI7
aI7
aI8
aI3
aI6
aI2
aI4
aI6
asVhttps://www.reddit.com/r/malefashionadvice/comments/38vqnl/university_backpack_recommendations/
p1161
(lp1162
I5
aI10
aI12
aI3
aI2
aI6
aI1
aI4
asVhttps://www.reddit.com/r/AskReddit/comments/3fq9y8/can_you_spread_your_toes/
p1163
(lp1164
I1
aI1
aI2
aI1
aI2
aI1
aI2
aI4
aI2
aI2
aI1
aI2
aI3
aI1
aI1
aI1
aI1
aI1
asVhttps://www.reddit.com/r/syriancivilwar/comments/1xqgcz/i_just_returned_from_a_syrian_town_controlled_by/
p1165
(lp1166
I1
aI1
aI3
aI1
aI6
aI1
aI2
aI1
aI2
aI8
aI4
aI1
aI9
aI3
aI3
aI7
aI2
aI6
aI2
aI2
aI1
aI7
aI2
asVhttps://www.reddit.com/r/weightlifting/comments/33y41a/some_nice_prs_and_a_few_questionstips_wanted_62kg/
p1167
(lp1168
I14
aI1
aI5
aI5
aI3
aI2
aI2
aI1
aI5
aI1
aI1
aI1
aI1
asVhttps://www.reddit.com/r/blackops3/comments/48y1em/anyone_else_constantly_have_their_character_fail/
p1169
(lp1170
I1
aI2
aI4
aI2
aI3
aI1
aI3
asVhttps://www.reddit.com/r/dayz/comments/1tfqrl/the_mods_soundtrack/
p1171
(lp1172
I16
aI1
aI1
aI1
aI2
aI1
aI1
asVhttps://www.reddit.com/r/Aquariums/comments/p6052/puffers_barbs_and_stocking/
p1173
(lp1174
I1
aI2
aI4
aI7
aI5
aI3
aI3
aI2
aI1
aI5
aI2
asVhttps://www.reddit.com/r/oblivion/comments/ifvsp/question_regarding_hotkeys_please_help/
p1175
(lp1176
I4
aI2
aI2
aI4
aI2
aI2
aI1
aI16
aI7
aI3
aI1
asVhttps://www.reddit.com/r/sex/comments/35elrf/advice_numbness_when_im_with_my_girlfriend_please/
p1177
(lp1178
I14
aI3
aI6
aI2
aI7
aI1
aI3
aI5
aI4
aI5
aI4
aI5
aI5
aI2
aI6
aI6
aI1
aI3
aI2
aI1
aI4
aI6
aI2
aI7
asVhttps://www.reddit.com/r/Nootropics/comments/3iyzwo/why_doesnt_memantine_work_for_me_and_is_there/
p1179
(lp1180
I18
aI6
aI13
aI3
aI3
aI2
aI4
aI6
aI2
aI5
aI5
aI5
aI1
aI3
aI3
aI2
aI3
aI2
aI1
aI2
aI3
aI1
aI1
asVhttps://www.reddit.com/r/cosplay/comments/1k815j/help_hal_octacon_emmerich_cosplay/
p1181
(lp1182
I6
aI1
aI3
aI3
aI1
aI1
asVhttps://www.reddit.com/r/pumparum/comments/4gxe2e/ps46_w_hornet_ring_h_bloodlust/
p1183
(lp1184
I1
aI1
aI1
aI1
aI1
aI1
aI3
aI3
asVhttps://www.reddit.com/r/batman/comments/2k88bq/just_finished_reading_the_long_halloween_for_the/
p1185
(lp1186
I3
aI2
aI3
aI3
aI1
aI2
aI1
aI2
aI2
aI6
aI1
aI3
aI4
aI1
aI2
aI4
asVhttps://www.reddit.com/r/homechemistry/comments/3apfyf/precautions_for_low_flash_point_liquids/
p1187
(lp1188
I2
aI6
aI4
aI7
aI1
aI12
aI1
aI3
aI3
aI2
aI2
aI3
aI3
aI3
asVhttps://www.reddit.com/r/crochet/comments/29dtve/i_was_at_work_earlier_and_couldnt_wait_to_get/
p1189
(lp1190
I2
aI1
aI6
aI2
aI3
aI2
aI1
aI1
aI7
aI1
aI5
aI2
aI1
aI2
aI1
aI2
aI2
aI1
aI2
asVhttps://www.reddit.com/r/pharmacy/comments/37av93/how_to_work_as_a_clinical_pharmacist_in_the/
p1191
(lp1192
I3
aI7
aI1
aI2
aI1
aI1
aI2
aI1
aI4
asVhttps://www.reddit.com/r/askscience/comments/1q387f/how_do_orbitals_intersect_each_other/
p1193
(lp1194
I6
aI10
aI5
aI2
aI9
aI7
aI4
aI8
aI3
aI5
aI3
aI3
aI1
asVhttps://www.reddit.com/r/atheism/comments/3fa0he/convert_to_islam_google_ad_on_imgur_that_i_keep/
p1195
(lp1196
I3
aI2
aI4
aI2
aI4
aI1
aI6
aI2
aI4
aI2
aI4
aI1
aI2
aI2
aI1
aI4
aI1
aI3
aI2
aI1
aI1
aI1
aI1
aI2
aI3
aI1
aI2
aI2
aI7
aI4
aI1
asVhttps://www.reddit.com/r/pcgaming/comments/288lx8/noob_here_can_i_upgrade_integrated_graphics/
p1197
(lp1198
I2
aI3
aI1
aI1
aI1
aI2
aI1
aI2
aI2
aI2
aI1
aI2
aI2
asVhttps://www.reddit.com/r/deftones/comments/33s6sc/going_to_my_first_deftones_concert_always_been_a/
p1199
(lp1200
I4
aI1
aI3
aI3
aI3
aI1
aI18
aI5
aI8
aI4
aI9
aI1
aI2
aI10
aI6
aI1
aI5
aI5
aI5
aI3
aI1
aI2
aI3
aI4
aI4
aI3
aI2
aI4
aI3
aI1
asVhttps://www.reddit.com/r/depression/comments/1h4yhr/anything_to_help_me_get_started_each_day/
p1201
(lp1202
I10
aI6
aI7
aI3
aI3
aI4
aI3
asVhttps://www.reddit.com/r/Instagram/comments/3zigdk/is_it_easier_to_gain_followers_the_more_followers/
p1203
(lp1204
I3
aI1
aI3
aI8
aI6
aI1
aI2
aI1
aI1
aI5
aI5
aI2
aI1
aI2
aI1
aI1
asVhttps://www.reddit.com/r/askscience/comments/4ko9n6/are_there_any_pathogenic_to_humans_archaea/
p1205
(lp1206
I0
aI3
aI2
aI5
aI2
aI1
aI4
aI3
asVhttps://www.reddit.com/r/hotlinemiamimaps/comments/4cm5iq/destructible_doors_mod_test_map/
p1207
(lp1208
I2
aI4
aI2
aI4
aI7
aI3
aI2
aI1
aI2
aI1
aI1
aI3
aI1
aI3
aI1
asVhttps://www.reddit.com/r/offmychest/comments/1d4cmk/this_is_my_life/
p1209
(lp1210
I6
aI2
aI4
aI1
aI3
aI4
aI3
aI2
aI2
aI1
aI1
aI2
aI4
aI3
aI4
aI1
aI3
aI1
aI2
aI1
aI1
aI3
aI5
aI1
aI2
aI6
aI1
aI2
aI6
aI1
aI2
aI2
aI6
aI1
aI1
aI2
aI1
aI2
aI2
asVhttps://www.reddit.com/r/Showerthoughts/comments/1lddvq/what_if_everything_i_do_is_predetermined_and_i/
p1211
(lp1212
I2
aI2
aI1
aI1
aI4
aI2
aI3
aI2
aI4
aI1
aI1
asVhttps://www.reddit.com/r/radiohead/comments/4eadwl/deep_inside_the_mind_of_thom_yorke/
p1213
(lp1214
I0
aI1
aI1
aI1
aI1
aI1
aI1
aI1
aI1
aI1
asVhttps://www.reddit.com/r/adventuretime/comments/447f0u/season_7_vs_season_6/
p1215
(lp1216
I15
aI15
aI20
aI13
aI3
aI6
aI4
aI3
aI8
aI1
aI15
aI24
aI2
aI2
aI1
aI2
aI10
aI5
aI8
aI10
aI13
aI17
aI6
aI10
aI1
aI1
asVhttps://www.reddit.com/r/legaladvice/comments/1ck8zm/insurance_reimbursement_check/
p1217
(lp1218
I12
aI1
aI6
aI3
aI6
aI3
aI1
aI9
aI2
aI5
aI2
aI1
aI2
aI2
asVhttps://www.reddit.com/r/whowouldwin/comments/3cnnx4/feudal_japan_vs_any_feudal_western_european/
p1219
(lp1220
I16
aI2
aI3
aI1
aI1
aI31
aI3
aI1
aI4
aI4
aI3
aI3
aI28
aI64
aI1
aI2
aI5
aI1
aI4
aI31
aI4
aI8
aI8
aI7
aI16
asVhttps://www.reddit.com/r/oculus/comments/2dzyzk/world_scale_way_off_in_most_demosgames/
p1221
(lp1222
I19
aI4
aI3
aI1
aI1
aI10
aI3
aI4
aI7
aI4
aI16
aI5
aI6
aI1
aI1
aI3
aI3
aI4
aI4
aI1
aI5
aI2
aI12
aI2
aI13
aI4
aI9
aI1
aI2
aI2
aI27
aI4
aI2
aI1
aI2
aI5
aI7
aI1
aI2
aI4
asVhttps://www.reddit.com/r/beyondthebump/comments/250yu7/finally/
p1223
(lp1224
I8
aI4
aI6
aI6
aI6
aI4
aI1
asVhttps://www.reddit.com/r/techsupport/comments/2rc17g/broken_external_hard_drive_how_can_i_get_the/
p1225
(lp1226
I5
aI2
aI3
aI2
aI1
aI4
aI3
aI1
aI2
aI4
aI3
aI2
aI1
asVhttps://www.reddit.com/r/magicTCG/comments/3xvo0f/why_is_everyone_siding_with_the_suspended_judges/
p1227
(lp1228
I13
aI14
aI4
aI2
aI8
aI1
aI1
aI5
aI5
aI7
aI2
aI3
aI9
aI3
aI6
aI4
aI2
aI2
aI3
aI4
aI1
aI1
aI3
aI4
aI3
aI3
aI3
aI1
aI3
aI3
asVhttps://www.reddit.com/r/trans/comments/3dlxe2/very_new_to_the_transgender_scene/
p1229
(lp1230
I4
aI1
aI2
aI2
aI3
aI2
aI3
aI3
asVhttps://www.reddit.com/r/fittings/comments/454j8i/r_solo_pvp_hurricane_fleet_issue/
p1231
(lp1232
I3
aI1
aI2
aI13
aI3
aI1
asVhttps://www.reddit.com/r/dogemining/comments/1yof42/3x_hd_7750s_or_2x_r9_290xs_in_crossfire/
p1233
(lp1234
I3
aI6
aI1
aI1
aI1
aI2
aI4
aI2
aI2
aI2
aI1
aI2
aI1
aI4
aI1
aI1
aI2
aI2
aI1
asVhttps://www.reddit.com/r/Scapecraft/comments/2p7flr/help_with_installing_mod/
p1235
(lp1236
I5
aI3
aI1
aI2
aI1
aI1
aI1
aI3
aI2
aI1
asVhttps://www.reddit.com/r/leagueoflegends/comments/11amyn/clgeu_has_such_a_positive_attitude/
p1237
(lp1238
I3
aI1
aI1
aI1
aI7
aI3
aI2
aI1
aI1
aI9
aI3
aI1
aI5
aI4
aI2
aI1
aI1
aI2
aI3
aI1
aI2
aI1
aI1
aI1
aI1
aI5
aI1
aI1
aI1
aI2
aI1
aI4
aI1
aI1
aI1
aI1
aI1
aI1
aI1
aI1
aI1
asVhttps://www.reddit.com/r/synthesizers/comments/4g9pei/recording_yamaha_dx21_too_quiet/
p1239
(lp1240
I12
aI14
aI2
aI2
aI18
aI2
aI2
aI3
aI10
aI3
aI2
aI11
aI6
aI36
aI9
aI2
asVhttps://www.reddit.com/r/DebateReligion/comments/4137aj/simple_questions_0115/
p1241
(lp1242
I11
aI1
aI2
aI1
aI1
aI1
aI1
aI3
aI1
aI3
aI1
aI3
aI5
aI1
aI1
aI5
aI1
aI1
aI2
aI3
aI2
aI2
aI11
aI3
aI3
aI4
aI3
aI3
aI1
aI20
aI2
aI2
aI4
aI6
aI2
aI7
asVhttps://www.reddit.com/r/personalfinance/comments/17c07i/looking_for_some_advice_on_how_to_raise_my_credit/
p1243
(lp1244
I4
aI1
aI4
aI6
aI3
aI1
aI7
aI4
aI7
aI5
aI2
aI2
aI3
aI2
aI1
aI1
aI5
aI3
aI1
asVhttps://www.reddit.com/r/bodyweightfitness/comments/ubxth/two_personal_firsts_today/
p1245
(lp1246
I5
aI1
aI1
aI6
aI2
aI1
aI2
aI2
aI1
aI8
aI2
aI3
aI3
aI7
aI1
aI1
aI1
aI1
aI2
aI3
aI14
aI3
asVhttps://www.reddit.com/r/makeupexchange/comments/2aa5o0/sell_bobbi_brown_eye_smudge_brush/
p1247
(lp1248
I6
aI5
aI3
aI3
aI2
aI3
asVhttps://www.reddit.com/r/2007scape/comments/2x3amn/can_i_use_this_ahk_script/
p1249
(lp1250
I3
aI1
aI1
aI1
aI5
aI2
aI1
aI2
aI2
aI1
asVhttps://www.reddit.com/r/hockey/comments/371k9d/can_someone_explain_gretzkys_dominance_people/
p1251
(lp1252
I9
aI10
aI7
aI2
aI9
aI9
aI10
aI7
aI12
aI1
aI2
aI19
aI1
aI1
aI7
aI1
aI6
aI4
aI12
aI5
aI2
aI2
aI5
aI7
aI4
aI4
aI3
aI2
aI1
aI1
aI3
aI3
aI1
aI2
aI1
aI1
aI3
aI2
aI3
aI1
aI1
asVhttps://www.reddit.com/r/fountainpens/comments/3ykb05/twsbi_580_leaking/
p1253
(lp1254
I5
aI3
aI2
aI2
aI4
aI6
aI4
asVhttps://www.reddit.com/r/torrents/comments/1d8m8i/is_there_an_aggregated_list_of_allowed_clients/
p1255
(lp1256
I3
aI6
aI6
aI6
aI4
aI10
aI6
aI11
aI12
asVhttps://www.reddit.com/r/pathofexile/comments/1tli7d/so_apparently_i_found_a_good_item_and_now_i_cant/
p1257
(lp1258
I8
aI3
aI4
aI1
aI1
aI1
aI2
aI1
aI3
aI2
aI1
aI1
aI1
aI1
aI1
asVhttps://www.reddit.com/r/coins/comments/3cek5z/very_faint_o_in_monticello/
p1259
(lp1260
I0
aI1
aI1
aI1
aI2
aI1
asVhttps://www.reddit.com/r/MaxMSP/comments/3ihbbn/smoothing_jumps_in_sensor_data_stream/
p1261
(lp1262
I8
aI9
aI6
aI2
aI5
aI3
aI1
aI3
aI1
asVhttps://www.reddit.com/r/pcmasterrace/comments/3xkj6p/possible_click_bait_news_about_hackers/
p1263
(lp1264
I5
aI3
aI3
aI1
aI1
aI3
aI1
aI3
aI1
aI3
aI2
aI1
aI4
aI1
aI1
aI7
aI2
aI7
aI3
aI9
aI9
asVhttps://www.reddit.com/r/trees/comments/edn57/for_you_fellow_ents_choose_a_print_and_its_on_me/
p1265
(lp1266
I19
aI2
aI2
aI2
aI1
aI1
aI1
aI4
aI3
aI1
aI1
aI2
aI3
aI2
aI2
aI2
aI1
aI1
aI2
aI3
aI2
aI2
aI2
aI2
aI4
aI5
aI4
aI1
aI1
aI2
aI1
aI4
aI2
aI2
aI1
aI3
aI2
asVhttps://www.reddit.com/r/odroid_c2/comments/4l91pq/c2_kodi_media_centre/
p1267
(lp1268
I23
aI3
aI2
aI3
aI3
aI4
aI2
aI1
aI3
aI15
aI1
asVhttps://www.reddit.com/r/sales/comments/3j4anv/how_to_deal_with_multiple_decision_makers/
p1269
(lp1270
I4
aI34
aI3
aI10
aI35
aI5
aI12
asVhttps://www.reddit.com/r/muacirclejerk/comments/2g334s/what_do_temptalia_and_other_wellknown_beauty/
p1271
(lp1272
I6
aI3
aI4
aI6
aI2
aI1
aI3
aI3
aI2
aI2
aI5
aI1
asVhttps://www.reddit.com/r/WTF/comments/26vxej/this_is_what_happens_when_hundreds_of_people/
p1273
(lp1274
I0
aI1
aI18
aI1
aI2
aI1
aI1
aI2
aI1
aI1
aI1
aI2
aI3
aI1
aI2
aI1
aI1
aI1
aI1
aI1
aI1
aI1
aI1
aI2
aI2
aI1
aI1
aI2
aI1
aI1
aI1
aI2
aI1
aI1
aI3
aI1
aI2
aI3
aI2
aI1
aI1
asVhttps://www.reddit.com/r/bitcoinxt/comments/3glad4/mike_hearns_plans_for_bitcoin_xt_this_upcoming/
p1275
(lp1276
I4
aI2
aI1
aI3
aI1
aI2
aI2
aI1
asVhttps://www.reddit.com/r/freefolk/comments/36j394/episode_6_unbowed_unbent_unbroken_game_of_face/
p1277
(lp1278
I5
aI2
aI2
aI1
aI11
aI1
aI4
aI7
aI1
aI4
aI9
aI1
aI4
aI3
aI2
aI2
asVhttps://www.reddit.com/r/talesfromcallcenters/comments/28kfio/just_call_center_things/
p1279
(lp1280
I1
aI2
aI1
aI5
aI1
aI3
aI1
aI2
aI2
aI1
aI2
asVhttps://www.reddit.com/r/swtor/comments/rs88o/twilek_hoods_12/
p1281
(lp1282
I3
aI2
aI1
aI1
aI2
aI2
aI4
aI4
aI2
aI3
asVhttps://www.reddit.com/r/guns/comments/422ccv/what_would_happen_if_you_necked_down_a_50_bmg_to/
p1283
(lp1284
I3
aI1
aI1
aI1
aI2
aI7
aI5
aI1
aI2
aI1
aI1
aI1
aI2
aI2
aI1
aI2
aI1
aI1
aI1
aI1
aI2
aI1
aI1
aI2
aI1
aI2
aI1
aI1
aI2
aI1
aI2
aI1
aI1
aI1
aI1
aI2
aI1
aI2
aI1
aI1
aI4
asVhttps://www.reddit.com/r/bicycling/comments/8tdp0/so_i_recently_added_3_extra_miles_to_my_daily/
p1285
(lp1286
I0
aI6
aI2
aI2
aI5
aI3
aI7
aI2
aI1
aI3
aI4
aI1
aI4
aI1
asVhttps://www.reddit.com/r/beadsprites/comments/1psvdk/question_for_the_folks_who_make_keychains/
p1287
(lp1288
I4
aI4
aI4
aI7
aI4
aI4
aI3
aI2
aI2
asVhttps://www.reddit.com/r/AskReddit/comments/8rjdx/reddit_ill_be_leaving_home_and_living_with_some/
p1289
(lp1290
I0
aI2
aI4
aI2
aI1
aI2
aI2
aI1
aI3
aI3
aI3
aI4
aI3
aI2
aI2
aI2
aI4
aI5
aI3
aI3
aI2
aI1
aI6
aI9
aI2
asVhttps://www.reddit.com/r/Mariners/comments/1scgdu/mariners_transactions/
p1291
(lp1292
I5
aI15
aI2
aI1
aI2
aI3
aI6
aI4
aI4
aI1
aI3
aI2
aI1
aI1
aI2
aI1
aI1
aI1
aI1
aI3
aI6
aI7
aI2
aI3
aI1
aI2
aI1
aI5
aI7
aI4
aI2
aI2
aI3
aI5
aI1
aI3
aI3
aI1
aI1
aI1
asVhttps://www.reddit.com/r/archlinux/comments/467dxd/when_upgrading_unresolvable_package_conflicts/
p1293
(lp1294
I10
aI2
aI18
aI1
aI3
aI1
aI4
aI2
aI2
asVhttps://www.reddit.com/r/Pathfinder_RPG/comments/24xyel/ridingrodeo_enemies/
p1295
(lp1296
I4
aI10
aI2
aI5
aI9
aI1
aI5
aI11
aI5
aI3
aI3
aI6
aI3
aI11
aI16
asVhttps://www.reddit.com/r/AskReddit/comments/2inzso/what_would_be_the_best_example_of_competence/
p1297
(lp1298
I2
aI1
aI1
aI1
aI1
aI1
asVhttps://www.reddit.com/r/darksouls/comments/3z1ybp/sens_fortress_pc/
p1299
(lp1300
I3
aI1
aI1
aI1
aI2
aI3
aI1
aI1
aI1
aI1
aI2
aI1
aI1
aI1
aI1
aI2
aI2
aI2
asVhttps://www.reddit.com/r/Repsneakers/comments/2wfsdf/thats_just_too_expensive_for_a_pair_of_ua_yeezy/
p1301
(lp1302
I2
aI4
aI1
aI1
aI3
aI1
aI2
aI1
aI2
aI1
aI1
aI2
aI2
aI1
aI1
aI2
aI2
aI2
aI2
aI2
aI1
aI1
aI3
aI3
aI1
aI1
asVhttps://www.reddit.com/r/trees/comments/29lvyw/does_smoking_weed_effect_appearance_in_the_long/
p1303
(lp1304
I0
aI3
aI2
aI2
aI1
aI1
aI2
aI1
aI2
aI5
aI1
aI1
aI1
aI1
aI2
asVhttps://www.reddit.com/r/darksouls3/comments/4f6d50/someone_help_i_think_i_messed_up_a_quest_line/
p1305
(lp1306
I4
aI2
aI1
aI1
aI2
aI1
asVhttps://www.reddit.com/r/tamrielscholarsguild/comments/1eqi10/20th_of_second_seed_morning_in_the_mountains/
p1307
(lp1308
I18
aI9
aI5
aI7
aI7
aI8
aI9
aI12
aI11
aI7
aI7
aI5
aI10
aI5
aI6
aI4
aI7
asVhttps://www.reddit.com/r/gaming/comments/gbt5u/anyone_else_think_it_a_bit_odd_that_the_3ds_comes/
p1309
(lp1310
I0
aI2
aI2
aI2
aI2
aI2
aI1
aI3
aI2
aI2
aI1
aI1
aI2
aI4
aI3
aI1
aI3
aI2
aI2
aI3
asVhttps://www.reddit.com/r/learndota2/comments/380nzo/whats_the_easiest_way_to_become_a_better/
p1311
(lp1312
I2
aI16
aI4
aI36
aI1
aI7
aI1
aI2
aI2
aI1
aI1
aI2
aI2
aI1
aI5
aI7
aI4
aI2
aI4
aI1
aI1
aI3
aI3
asVhttps://www.reddit.com/r/buildapc/comments/3gcax8/build_ready_1st_gaming_rig_any_suggestions/
p1313
(lp1314
I14
aI2
aI2
aI1
aI1
aI2
aI4
aI2
aI2
aI1
aI3
aI3
aI2
aI2
aI1
aI3
aI2
aI1
aI2
aI1
aI2
aI4
aI1
aI2
aI2
aI4
aI3
aI2
aI2
aI3
aI1
aI1
aI1
aI2
aI2
asVhttps://www.reddit.com/r/bleach/comments/21tdjs/something_that_has_been_bugging_me_a_little/
p1315
(lp1316
I5
aI3
aI1
aI1
aI2
aI1
aI1
aI3
aI2
aI1
aI3
aI1
aI1
aI1
aI1
aI3
aI1
aI1
aI1
aI3
aI2
aI1
aI2
aI4
aI12
aI3
asVhttps://www.reddit.com/r/exchangeserver/comments/21fqpx/exchange_mailbox_server_move_and_outlook_users/
p1317
(lp1318
I10
aI7
aI6
aI1
aI1
aI3
aI2
asVhttps://www.reddit.com/r/explainlikeimfive/comments/1z1vey/eli5_why_in_some_animal_species_is_the_female/
p1319
(lp1320
I2
aI10
aI2
aI5
aI4
aI3
asVhttps://www.reddit.com/r/Gamecocks/comments/2hoxv2/time_to_play_backup_qb/
p1321
(lp1322
I7
aI3
aI8
aI6
aI7
aI5
aI4
aI3
aI1
aI7
aI10
aI2
aI6
aI2
aI28
asVhttps://www.reddit.com/r/C_Programming/comments/1yx7gh/help_plz_array_of_mixed_type/
p1323
(lp1324
I6
aI3
aI1
aI7
aI3
aI5
aI3
aI1
aI7
aI1
asVhttps://www.reddit.com/r/buildapc/comments/1hppqe/troubleshooting_starts_for_a_split_second_and/
p1325
(lp1326
I1
aI2
aI2
aI2
aI1
aI2
aI1
aI1
aI4
aI1
asVhttps://www.reddit.com/r/storyofseasons/comments/31xmtm/looking_for_5_turnip_seeds/
p1327
(lp1328
I5
aI3
aI2
aI3
aI2
aI6
asVhttps://www.reddit.com/r/reddit.com/comments/crx6e/tried_allien_swarm_try_it_then_hit_me_up_so_i/
p1329
(lp1330
I4
aI1
aI3
aI3
aI2
aI1
aI3
aI1
aI1
aI3
aI1
aI2
aI2
aI1
aI1
asVhttps://www.reddit.com/r/DIY/comments/gdaup/weekend_project_update/
p1331
(lp1332
I6
aI3
aI2
aI3
aI2
aI3
aI1
aI3
aI1
aI7
aI4
aI2
aI4
aI2
aI3
aI1
aI3
aI3
aI4
asVhttps://www.reddit.com/r/freefolk/comments/359m6s/question_about_arya_becoming_a_faceless_man/
p1333
(lp1334
I6
aI1
aI2
aI1
aI2
aI1
aI1
aI3
aI3
aI1
aI2
aI1
aI2
aI2
aI1
aI2
aI1
aI1
aI2
aI2
aI2
aI3
aI2
aI4
aI5
asVhttps://www.reddit.com/r/gaming/comments/2m5coi/does_anybody_else_remember_when_cheapassgamer_had/
p1335
(lp1336
I5
aI1
aI3
aI1
aI5
aI1
aI2
aI2
aI1
asVhttps://www.reddit.com/r/slashdiablo/comments/3i9kr5/iso_pally_stuff/
p1337
(lp1338
I3
aI1
aI1
aI1
aI1
aI1
aI2
aI1
aI1
aI1
aI1
aI1
aI1
aI1
asVhttps://www.reddit.com/r/techsupport/comments/38jdyv/awful_980_performance/
p1339
(lp1340
I19
aI1
aI3
aI3
aI6
aI3
aI3
aI3
aI3
asVhttps://www.reddit.com/r/heroesofthestorm/comments/24adpz/looking_for_a_logo_designer_for_my_new_yt_channel/
p1341
(lp1342
I4
aI2
aI2
aI1
aI3
aI3
aI4
asVhttps://www.reddit.com/r/ffxiv/comments/1mam9i/level_questions/
p1343
(lp1344
I1
aI1
aI1
aI3
aI1
aI1
aI1
aI1
aI2
aI2
asVhttps://www.reddit.com/r/DebateAChristian/comments/2pekcg/the_gotcha_questions_and_trap_questions_seem_to/
p1345
(lp1346
I24
aI6
aI3
aI4
aI5
aI13
aI23
aI1
aI2
aI3
aI3
aI4
aI1
aI1
aI7
aI5
aI2
aI7
aI5
aI2
aI2
aI2
aI4
aI2
aI4
aI12
aI1
aI3
aI1
aI4
aI2
aI6
aI6
aI2
aI2
aI3
aI3
aI3
aI3
aI3
asVhttps://www.reddit.com/r/whisky/comments/3ve955/whisky_library_what_to_choose/
p1347
(lp1348
I6
aI17
aI3
aI10
aI2
aI5
aI5
aI2
aI2
aI2
aI5
aI2
aI1
aI2
aI1
aI2
aI1
asVhttps://www.reddit.com/r/worldbuilding/comments/1l6k7f/terraforming_time/
p1349
(lp1350
I11
aI8
aI4
aI5
aI2
aI3
aI2
aI9
aI4
aI2
aI5
aI1
aI2
aI8
aI1
aI2
aI3
aI5
aI4
aI1
aI6
aI2
aI2
aI2
asVhttps://www.reddit.com/r/amazon/comments/3drijc/order_still_hasnt_shipped/
p1351
(lp1352
I2
aI4
aI3
aI3
aI4
aI1
aI2
aI3
aI2
asVhttps://www.reddit.com/r/india/comments/ehq59/india_ama_i_was_molested_as_a_child_once/
p1353
(lp1354
I13
aI3
aI2
aI1
aI2
aI1
aI6
aI2
aI5
aI11
aI1
aI3
aI7
aI4
aI1
asVhttps://www.reddit.com/r/Boxing/comments/1obcg3/any_legitimate_fighting_online_channels/
p1355
(lp1356
I19
aI2
aI3
aI4
aI5
aI5
asVhttps://www.reddit.com/r/design_critiques/comments/1y9887/looking_for_feedback_on_freelance/
p1357
(lp1358
I9
aI8
aI10
aI2
aI1
aI6
aI3
aI1
aI3
aI7
aI2
aI1
asVhttps://www.reddit.com/r/running/comments/v1nh2/last_workout_left_me_hellasore_all_over_whats_the/
p1359
(lp1360
I20
aI1
aI1
aI5
aI1
aI2
aI6
aI5
aI2
aI3
aI1
aI2
aI3
aI1
aI3
aI4
aI2
aI2
asVhttps://www.reddit.com/r/TwoXChromosomes/comments/2p2uf3/hi_twox_i_need_advice_on_a_complicated/
p1361
(lp1362
I37
aI13
aI5
aI3
aI1
aI4
aI10
aI1
aI2
aI3
aI3
aI4
aI6
aI2
asVhttps://www.reddit.com/r/paintball/comments/18n50a/bob_long_defiant_2_maybe/
p1363
(lp1364
I6
aI4
aI4
aI4
aI1
aI1
aI2
aI4
aI1
aI1
asVhttps://www.reddit.com/r/AskReddit/comments/1e275t/post_here_the_funniest_stories_of_your_ap_classes/
p1365
(lp1366
I0
aI2
aI4
aI2
aI2
aI2
aI1
aI2
aI4
aI2
aI3
aI3
asVhttps://www.reddit.com/r/navy/comments/yvawj/navy_advice/
p1367
(lp1368
I6
aI32
aI1
aI4
aI7
aI4
aI3
aI3
aI1
aI4
aI3
aI4
aI3
aI4
aI1
aI1
asVhttps://www.reddit.com/r/buildapcforme/comments/1o9zkt/something_messed_up_and_set_me_back_a_couple_of/
p1369
(lp1370
I33
aI2
aI2
aI2
aI2
aI1
aI3
aI1
aI1
aI2
aI2
aI3
aI2
aI2
aI2
aI2
aI1
aI1
aI1
asVhttps://www.reddit.com/r/techsupport/comments/m5gsh/bios_in_toshiba_laptop_doesnt_detect_hdd/
p1371
(lp1372
I5
aI2
aI1
aI4
aI2
aI2
aI2
aI2
aI2
aI1
asVhttps://www.reddit.com/r/jailbreak/comments/4bafx5/discussion_march_21st_event_megathread/
p1373
(lp1374
I2
aI4
aI1
aI1
aI1
aI1
aI1
aI1
aI1
aI2
aI1
aI2
aI2
aI1
aI1
asVhttps://www.reddit.com/r/photography/comments/4ihwan/how_to_clean_mirror_less_camera_sensor/
p1375
(lp1376
I5
aI2
aI4
aI1
aI3
aI2
aI4
aI3
aI2
aI2
aI1
aI2
aI5
aI1
aI1
aI2
aI2
aI1
aI3
asVhttps://www.reddit.com/r/yugioh/comments/13vhc3/xyz_monster_returning_to_extra_deck_the_xyz/
p1377
(lp1378
I1
aI3
aI2
aI1
aI2
aI1
aI2
aI2
aI2
aI1
aI1
aI1
aI1
aI2
aI1
aI2
aI2
aI1
aI1
aI4
aI7
aI1
aI3
aI2
aI1
aI1
aI1
asVhttps://www.reddit.com/r/ftm/comments/4le9t5/double_design_air_max_binder_review_hint_its/
p1379
(lp1380
I23
aI1
aI3
aI9
aI4
aI8
aI5
aI1
aI2
aI2
aI1
asVhttps://www.reddit.com/r/buildapc/comments/tiqqc/help_blue_spinning_ring_of_death/
p1381
(lp1382
I4
aI1
aI1
aI3
aI1
aI1
aI1
asVhttps://www.reddit.com/r/swtor/comments/143bq3/thinking_of_ways_for_f2p_to_get_around_the_credit/
p1383
(lp1384
I4
aI3
aI4
aI4
aI2
aI2
aI2
aI2
aI1
aI1
aI8
aI1
aI1
asVhttps://www.reddit.com/r/Pathfinder_RPG/comments/395p36/how_would_you_handle_this_situation/
p1385
(lp1386
I7
aI6
aI1
aI2
aI3
aI3
aI6
aI1
aI1
aI3
aI1
aI4
asVhttps://www.reddit.com/r/exalted/comments/4lpa0a/help_with_my_1st_chronicle_how_to_recover_a_soul/
p1387
(lp1388
I23
aI5
aI11
aI6
aI6
aI21
aI4
aI6
aI12
aI4
aI11
aI14
aI4
aI8
aI11
aI11
aI7
aI4
aI7
aI12
aI4
aI6
aI3
aI3
aI6
aI4
aI7
aI12
aI5
aI2
aI14
aI5
aI12
aI3
aI2
aI5
aI23
aI21
aI16
aI11
asVhttps://www.reddit.com/r/skyrim/comments/1hlmz8/ive_just_discovered_an_interesting_secret_dark/
p1389
(lp1390
I1
aI2
aI1
aI3
aI1
aI1
aI1
aI1
aI2
aI1
asVhttps://www.reddit.com/r/offmychest/comments/17j1h7/holy_head_desk_batman_never_try_to_offer_a_i_use/
p1391
(lp1392
I12
aI1
aI4
aI11
aI7
aI10
aI9
asVhttps://www.reddit.com/r/AskReddit/comments/2xmeqy/serious_reddit_if_you_inherited_15_million/
p1393
(lp1394
I1
aI3
aI1
aI1
aI2
aI7
aI1
aI1
aI2
aI3
aI1
aI2
aI2
aI3
aI1
aI2
aI1
aI3
aI2
aI1
aI3
aI3
aI1
aI1
aI2
aI1
aI1
aI2
aI1
aI1
aI3
aI1
asVhttps://www.reddit.com/r/Libertarian/comments/3y0m9v/what_is_the_libertarian_response_to_statists_who/
p1395
(lp1396
I0
aI5
aI13
aI1
aI1
aI2
aI1
aI1
aI1
aI4
aI3
aI3
aI5
aI7
aI5
aI24
asVhttps://www.reddit.com/r/photography/comments/1y7nl6/speed_booster_comparison_ef_lenses_on_panasonic/
p1397
(lp1398
I12
aI4
aI1
aI6
aI1
aI1
aI3
aI3
aI2
aI4
aI3
aI8
aI1
asVhttps://www.reddit.com/r/tf2/comments/107x2h/unboxed_the_pyro_pack_and_the_spy_hat_then_i/
p1399
(lp1400
I0
aI2
aI1
aI2
aI3
aI1
aI2
aI3
aI3
aI3
aI1
aI4
aI1
aI2
aI1
aI4
aI1
aI2
aI1
aI1
aI2
aI3
aI1
aI1
aI1
asVhttps://www.reddit.com/r/trees/comments/lyoaq/abuse/
p1401
(lp1402
I8
aI1
aI3
aI1
aI2
aI1
aI5
aI2
aI1
aI1
aI3
aI1
aI1
aI1
aI2
aI3
aI2
aI1
aI1
aI2
asVhttps://www.reddit.com/r/mflb/comments/ritov/best_batteries_to_use/
p1403
(lp1404
I1
aI2
aI1
aI1
aI2
aI1
aI5
aI1
aI1
aI2
asVhttps://www.reddit.com/r/collapse/comments/1jnf61/hello_rcollapse_id_like_to_inform_my_family_of/
p1405
(lp1406
I7
aI6
aI1
aI10
aI1
aI23
aI10
aI3
aI2
aI2
aI2
aI3
aI1
aI3
aI6
aI7
aI7
aI5
aI4
aI2
aI15
aI3
aI3
aI1
aI2
aI3
aI2
aI6
aI2
aI3
aI3
aI5
aI5
aI2
aI5
aI2
asVhttps://www.reddit.com/r/starcraft/comments/1e3k01/hasuobs_wins_eps_over_socke_31/
p1407
(lp1408
I2
aI9
aI2
aI1
aI4
aI1
aI1
aI2
aI1
aI4
aI3
aI1
aI8
aI2
aI5
asVhttps://www.reddit.com/r/buildapc/comments/35e723/build_help_cant_decide_if_i_want_to_crossfire/
p1409
(lp1410
I9
aI11
aI2
aI2
aI2
aI3
aI1
aI1
aI2
aI1
aI3
aI3
aI3
aI1
aI3
aI2
aI1
aI1
aI1
aI1
aI1
aI2
asVhttps://www.reddit.com/r/conspiro/comments/1njasm/many_japanese_people_suffering_from_recurring/
p1411
(lp1412
I2
aI1
aI2
aI3
aI1
aI3
aI1
aI1
aI2
aI2
aI1
aI3
aI6
aI1
aI3
aI1
aI2
aI1
aI1
aI3
aI1
aI1
aI1
aI1
aI5
aI1
aI1
aI7
aI1
asVhttps://www.reddit.com/r/Terraria/comments/2kbxue/mimic_farm/
p1413
(lp1414
I4
aI2
aI1
aI1
aI2
aI4
aI2
aI2
aI7
aI6
asVhttps://www.reddit.com/r/jailbreak/comments/2nn3dv/is_anyone_working_on_a_bluetooth_fix_for_ios_81/
p1415
(lp1416
I0
aI1
aI6
aI2
aI1
aI3
aI3
aI4
asVhttps://www.reddit.com/r/MechanicAdvice/comments/33lkql/08_cobalt_it_cranks_but_doesnt_start/
p1417
(lp1418
I8
aI2
aI2
aI2
aI1
aI2
aI3
aI2
aI2
aI2
aI1
aI3
aI3
aI4
aI3
asVhttps://www.reddit.com/r/zenfone2/comments/4flbb6/my_screen_went_black/
p1419
(lp1420
I3
aI1
aI1
aI3
aI2
aI1
asVhttps://www.reddit.com/r/sportsbook/comments/2pcsf7/bitcoins_influence_on_online_gambling_and_why/
p1421
(lp1422
I2
aI1
aI3
aI2
aI5
aI3
aI4
aI2
aI2
aI1
aI10
aI1
aI1
aI3
aI3
aI1
aI1
aI1
aI1
aI3
aI1
asVhttps://www.reddit.com/r/buildapc/comments/44txvy/troubleshooting_new_pc_isnt_making_use_of_full/
p1423
(lp1424
I6
aI1
aI2
aI5
aI4
aI3
aI2
aI8
aI1
aI4
aI3
aI5
aI5
aI1
asVhttps://www.reddit.com/r/bloodborne/comments/4c03vs/3_endings_3_playthroughs_1_platinum/
p1425
(lp1426
I7
aI1
aI4
aI5
aI1
aI1
aI1
aI3
aI1
aI3
aI1
aI1
asVhttps://www.reddit.com/r/guns/comments/14y644/i_picked_a_terrible_time_to_get_into_guns/
p1427
(lp1428
I5
aI4
aI3
aI2
aI1
aI1
aI4
aI5
aI3
aI1
aI3
aI3
aI4
aI1
aI1
aI1
aI1
aI5
aI2
aI1
aI1
aI1
aI1
aI1
aI1
aI1
aI1
aI4
aI4
aI2
aI1
aI1
aI2
aI1
aI1
aI1
aI1
aI3
aI3
aI2
asVhttps://www.reddit.com/r/buffy/comments/199fzg/is_it_reasonable_to_think_that_cordelia_in_buffy/
p1429
(lp1430
I3
aI14
aI4
aI9
aI20
aI4
asVhttps://www.reddit.com/r/wma/comments/278ptr/a_new_and_better_definition_of_indes/
p1431
(lp1432
I2
aI7
aI1
aI3
aI8
aI3
aI6
aI6
aI6
aI2
aI2
aI2
aI4
aI2
aI4
aI4
aI2
aI13
aI2
aI12
aI5
aI5
aI11
aI6
aI5
aI35
aI7
asVhttps://www.reddit.com/r/askseddit/comments/17aost/advice_on_postokc_exchange_on_fb_her_recent/
p1433
(lp1434
I9
aI2
aI4
aI5
aI15
aI2
aI5
asVhttps://www.reddit.com/r/hockeycirclejerk/comments/1i42ia/kovalchuk_signs_8_year_extension_with_devils/
p1435
(lp1436
I0
aI1
aI1
aI1
aI1
aI1
aI1
aI1
aI1
asVhttps://www.reddit.com/r/Warthunder/comments/4hpcuk/best_currency_to_get_eagles/
p1437
(lp1438
I3
aI1
aI4
aI2
aI4
aI2
aI2
asVhttps://www.reddit.com/r/startrek/comments/23wnmk/does_anyone_know_why_tng_changed_command_uniform/
p1439
(lp1440
I0
aI2
aI3
aI4
aI10
aI1
aI1
aI2
aI3
aI7
aI1
aI1
aI5
aI10
aI3
aI12
aI6
asVhttps://www.reddit.com/r/DIYBeauty/comments/4cm2md/lets_talk_ingredients_is_there_one_magical/
p1441
(lp1442
I8
aI9
aI2
aI3
aI9
aI2
aI3
aI1
aI8
aI4
aI4
aI4
aI2
aI4
aI2
aI2
aI3
aI7
asVhttps://www.reddit.com/r/mac/comments/20z4xo/is_it_just_me_or_is_my_rmbp_15_2013_really_slow/
p1443
(lp1444
I4
aI2
aI3
aI2
aI4
aI1
aI1
aI2
aI1
aI1
aI2
aI2
aI1
asVhttps://www.reddit.com/r/teslore/comments/q54bg/do_daedric_prince_have_genders/
p1445
(lp1446
I1
aI3
aI2
aI4
aI4
aI1
aI4
aI1
aI1
aI5
aI1
aI1
aI1
asVhttps://www.reddit.com/r/cheatatmathhomework/comments/3dsrs9/local_extrema_calculus/
p1447
(lp1448
I5
aI3
aI1
aI3
aI7
aI2
asVhttps://www.reddit.com/r/bjj/comments/40xuzt/tutorial_thursday_stepover_kneebars_from_the/
p1449
(lp1450
I1
aI4
aI2
aI3
aI2
aI5
aI4
aI2
aI2
aI2
aI1
aI2
aI4
aI2
aI3
aI2
aI2
asVhttps://www.reddit.com/r/electronic_cigarette/comments/4h5vg6/shout_out_to_bx_vapor_really_impressed/
p1451
(lp1452
I7
aI2
aI3
aI2
aI4
aI4
aI2
aI1
aI3
asVhttps://www.reddit.com/r/MensRights/comments/xlu54/what_brought_you_to_the_mrm/
p1453
(lp1454
I3
aI5
aI3
aI8
aI19
aI7
aI1
aI2
aI3
aI3
aI2
aI4
aI6
aI1
aI4
aI1
aI6
aI3
aI2
aI2
aI2
aI2
aI15
aI3
aI7
aI6
aI2
aI4
aI1
aI1
aI8
aI1
aI2
aI3
aI3
aI2
aI1
asVhttps://www.reddit.com/r/doctorwho/comments/49nhn8/opinion_steven_moffat_he_cant_kill_characters/
p1455
(lp1456
I45
aI25
aI24
aI5
aI1
aI1
aI7
aI13
aI13
aI9
aI2
aI12
aI23
aI12
aI5
aI16
aI5
aI6
asVhttps://www.reddit.com/r/CoDCompetitive/comments/30826t/do_gunnar_glasses_or_similar_glasses_work/
p1457
(lp1458
I1
aI3
aI1
aI1
aI1
aI3
aI3
aI2
aI1
aI3
aI2
aI4
aI4
aI2
aI6
aI2
aI2
aI3
aI4
aI3
aI13
aI3
asVhttps://www.reddit.com/r/theydidthemath/comments/32gm58/request_if_every_multistory_building_in_the_world/
p1459
(lp1460
I0
aI21
aI6
aI13
aI3
aI13
asVhttps://www.reddit.com/r/pathofexile/comments/39y9m2/awakeningelemental_windripper_magic_find_what/
p1461
(lp1462
I10
aI2
aI5
aI4
aI5
aI2
aI1
aI7
aI2
asVhttps://www.reddit.com/r/AskReddit/comments/40ycv4/what_are_the_best_gilded_posts_in_reddit_nsfw/
p1463
(lp1464
I0
aI2
aI1
aI1
aI1
aI2
aI2
aI14
aI1
aI2
aI1
asVhttps://www.reddit.com/r/manga/comments/1gr9a6/looking_for_info_on_highschool_of_the_dead/
p1465
(lp1466
I7
aI9
aI1
aI4
aI1
aI7
aI1
aI1
aI1
aI1
aI18
aI2
aI5
aI3
asVhttps://www.reddit.com/r/heroesofthestorm/comments/365w0g/blizzard_please_dont_just_flatout_kill_the_li_li/
p1467
(lp1468
I7
aI2
aI1
aI4
aI1
aI1
aI4
aI2
aI3
aI1
aI1
aI2
aI1
aI4
aI3
aI1
aI4
aI3
aI4
aI1
aI3
aI4
aI1
aI8
aI2
aI1
aI2
aI1
aI2
aI4
aI3
aI1
asVhttps://www.reddit.com/r/eagles/comments/4ap0m2/would_you_take_a_risk_on_jaylon_smith/
p1469
(lp1470
I6
aI1
aI3
aI1
aI3
aI7
aI1
aI2
aI2
aI2
aI2
aI3
aI2
aI1
aI3
aI1
aI1
aI2
aI2
aI5
aI1
aI2
aI1
aI1
aI2
aI2
aI4
aI2
aI1
aI5
aI1
aI2
aI3
asVhttps://www.reddit.com/r/drums/comments/1fy2nw/i_dont_want_to_be_clueless_on_drum_specs/
p1471
(lp1472
I5
aI4
aI2
aI2
aI2
aI2
aI3
aI7
aI1
aI4
aI1
aI1
aI1
aI1
aI2
asVhttps://www.reddit.com/r/bangtan/comments/4g35ds/rapmons_twitter_video_what_color_is_his_hair/
p1473
(lp1474
I4
aI3
aI4
aI3
aI6
aI19
aI1
aI7
aI2
asVhttps://www.reddit.com/r/iosgaming/comments/3gegj8/are_there_any_mmo_strategy_games_similar_to/
p1475
(lp1476
I3
aI1
aI4
aI5
aI1
aI3
aI1
aI7
aI5
aI1
asVhttps://www.reddit.com/r/fountainpens/comments/357sp8/anyone_know_frequency_of_twsbi_580_diamond_stock/
p1477
(lp1478
I5
aI2
aI2
aI1
aI2
aI3
aI1
aI1
aI2
asVhttps://www.reddit.com/r/araragi/comments/410by9/kizumonogatari_for_the_southeast/
p1479
(lp1480
I1
aI2
aI2
aI2
aI1
aI1
aI3
aI2
aI4
aI1
aI2
aI3
aI1
aI1
asVhttps://www.reddit.com/r/starwarscollecting/comments/4d3ikb/started_collecting_figurines/
p1481
(lp1482
I4
aI3
aI2
aI1
aI3
aI1
aI6
aI2
asVhttps://www.reddit.com/r/RocketLeague/comments/3crycf/is_it_a_huge_disadvantage_to_use_mousekeyboard/
p1483
(lp1484
I2
aI1
aI1
aI3
aI9
aI2
aI1
aI1
aI1
aI2
aI1
aI1
aI1
aI1
aI5
aI1
aI1
asVhttps://www.reddit.com/r/photography/comments/q6jx4/hdr/
p1485
(lp1486
I10
aI3
aI6
aI1
aI2
aI2
aI1
aI4
aI1
aI1
aI2
aI4
aI1
aI3
aI3
asVhttps://www.reddit.com/r/hwatch/comments/3vu2u8/battery_problems_with_new_watch/
p1487
(lp1488
I1
aI11
aI5
aI2
aI3
aI1
aI1
aI3
aI2
aI2
aI6
asVhttps://www.reddit.com/r/Malazan/comments/3d8zh9/done/
p1489
(lp1490
I4
aI1
aI3
aI4
aI3
aI2
aI2
aI2
aI2
aI5
aI2
aI5
aI3
aI1
aI1
asVhttps://www.reddit.com/r/web_design/comments/1dd12c/other_than_htmlcss_what_else_is_necessary_for_a/
p1491
(lp1492
I3
aI3
aI19
aI10
aI2
aI7
aI6
aI23
aI1
aI2
aI2
aI3
aI4
aI2
asVhttps://www.reddit.com/r/kvariety/comments/10sh2l/where_are_you_afphreak_youre_our_only_mod_and_its/
p1493
(lp1494
I1
aI5
aI2
aI8
aI6
aI1
aI1
asVhttps://www.reddit.com/r/vintageaudio/comments/18uxw0/vintage_tube_amp_advice/
p1495
(lp1496
I1
aI11
aI7
aI5
aI9
aI3
aI2
aI9
aI1
aI2
aI5
aI4
aI2
asVhttps://www.reddit.com/r/Drugs/comments/193lkh/25cnbome_life_of_pi_trip_report/
p1497
(lp1498
I53
aI3
aI1
aI1
aI1
aI2
aI1
aI3
asVhttps://www.reddit.com/r/leagueoflegends/comments/2ilytz/i_hit_gold_in_solo_que_and_now_the_ranked_is/
p1499
(lp1500
I10
aI4
aI2
aI1
aI3
aI1
aI9
aI14
aI2
aI1
aI1
aI1
aI1
aI1
aI1
aI1
aI2
aI1
aI1
aI1
aI1
aI2
aI1
aI3
aI3
aI2
aI1
aI1
aI3
asVhttps://www.reddit.com/r/arduino/comments/2mw9qi/newb_question_arduino_coding_languages/
p1501
(lp1502
I10
aI4
aI1
aI1
aI3
aI2
aI2
aI1
aI2
aI3
aI1
asVhttps://www.reddit.com/r/asktransgender/comments/1sq372/dysphoria_possibly_triggering/
p1503
(lp1504
I19
aI2
aI1
aI9
aI6
aI3
aI3
aI2
aI2
aI3
aI5
aI4
aI3
aI2
aI5
asVhttps://www.reddit.com/r/hearthstone/comments/3bv2m1/was_playing_the_brawl_as_a_priest/
p1505
(lp1506
I1
aI1
aI1
aI2
aI1
aI2
aI1
asVhttps://www.reddit.com/r/tf2/comments/1kqmps/if_you_spend_money_lets_say_10_dollarseuros_on/
p1507
(lp1508
I0
aI2
aI1
aI2
aI1
aI1
aI6
aI2
aI3
aI2
aI1
aI2
aI3
aI1
aI2
asVhttps://www.reddit.com/r/firefox/comments/4jbs82/defaulting_to_an_old_profile_in_firefox_developer/
p1509
(lp1510
I12
aI1
aI2
aI4
aI1
aI1
aI4
aI1
aI1
asVhttps://www.reddit.com/r/AskReddit/comments/3v510m/what_is_the_strangest_or_most_amusing_reason/
p1511
(lp1512
I0
aI2
aI4
aI14
aI2
aI2
aI1
aI2
aI2
aI2
aI2
aI2
aI3
aI2
aI1
aI4
aI3
aI6
aI2
aI2
aI2
aI2
aI4
aI1
aI3
aI2
aI2
aI1
aI2
aI3
asVhttps://www.reddit.com/r/Pokemongiveaway/comments/3yo0p7/lf_ha_chikorita_and_pachirisu/
p1513
(lp1514
I1
aI1
aI2
aI1
aI2
aI1
aI2
aI1
asVhttps://www.reddit.com/r/schizoaffective/comments/4e3je2/hospitalization/
p1515
(lp1516
I12
aI3
aI2
aI1
aI7
aI5
aI4
aI4
aI2
aI7
aI1
aI2
aI3
aI3
aI1
aI1
aI5
aI4
aI2
aI1
aI2
aI4
aI1
aI2
aI2
aI1
aI2
asVhttps://www.reddit.com/r/buildapc/comments/lxm3y/first_build_making_a_midrange_pc_for_a_non_gamer/
p1517
(lp1518
I1
aI3
aI1
aI1
aI10
aI2
aI1
aI3
aI3
asVhttps://www.reddit.com/r/rpg/comments/f1woc/pathfinder_help_needed_building_a_character_that/
p1519
(lp1520
I4
aI23
aI17
aI5
aI3
aI1
aI11
aI11
aI1
aI4
aI10
aI2
aI4
aI20
aI2
aI7
aI3
aI15
aI1
aI18
aI3
aI3
aI1
aI1
aI3
aI1
aI2
aI1
asVhttps://www.reddit.com/r/linux/comments/femwk/modifying_linux_default_sort_order_to_honor/
p1521
(lp1522
I5
aI1
aI2
aI1
aI3
aI1
aI1
aI1
aI1
aI1
aI2
aI1
asVhttps://www.reddit.com/r/SWORDS/comments/28i632/i_want_to_learn_more/
p1523
(lp1524
I2
aI6
aI3
aI2
aI4
aI1
asVhttps://www.reddit.com/r/SuicideWatch/comments/1x0opf/i_fucked_up/
p1525
(lp1526
I18
aI14
aI10
aI33
aI2
aI11
aI1
aI2
asVhttps://www.reddit.com/r/Mabinogi/comments/3hsky2/which_would_be_a_better_solo_mage_alchemist_human/
p1527
(lp1528
I3
aI1
aI2
aI6
aI2
aI2
aI2
aI5
aI1
aI1
aI1
aI2
asVhttps://www.reddit.com/r/fixit/comments/4k5hqg/how_can_i_remove_the_debris_off_my_pool_cover/
p1529
(lp1530
I9
aI4
aI6
aI2
aI5
aI2
aI4
aI1
aI2
aI2
aI1
aI2
aI2
aI1
aI1
aI2
aI3
aI3
aI2
asVhttps://www.reddit.com/r/askscience/comments/1dk37g/is_spacetime_discrete_or_continuous/
p1531
(lp1532
I2
aI2
aI3
aI4
aI2
aI3
aI3
aI2
aI1
asVhttps://www.reddit.com/r/speedrun/comments/3fr12j/sgdq_2015_save_vs_kill_the_animals_by_the_numbers/
p1533
(lp1534
I8
aI1
aI1
aI1
aI7
aI3
aI3
aI1
aI6
aI2
aI3
aI2
aI2
aI4
aI2
aI3
aI1
aI2
aI1
aI1
aI1
aI2
aI2
aI2
aI1
aI3
aI2
aI2
aI3
aI1
aI2
aI4
aI1
aI1
aI3
aI2
aI3
aI4
aI2
aI2
asVhttps://www.reddit.com/r/AskReddit/comments/22hvqh/urban_explorers_what_is_the_coolestcreepiestmost/
p1535
(lp1536
I0
aI12
aI5
aI2
aI1
aI2
aI2
aI3
aI6
aI2
aI2
aI1
aI3
aI1
aI1
aI1
aI1
aI1
asVhttps://www.reddit.com/r/geology/comments/1tkbyx/looking_through_great_uncles_rock_collection_and/
p1537
(lp1538
I11
aI12
aI2
aI5
aI2
aI3
aI1
aI1
aI10
aI4
aI2
aI2
aI2
aI2
aI2
aI3
aI7
aI4
aI1
asVhttps://www.reddit.com/r/recipes/comments/p02hw/chinatown_baked_bao_dough/
p1539
(lp1540
I4
aI4
aI4
aI2
aI1
aI3
aI1
aI2
aI2
aI17
aI2
asVhttps://www.reddit.com/r/DarkSouls2/comments/20m9of/question_magic_hands_d_possible_item_spoilers/
p1541
(lp1542
I1
aI3
aI1
aI1
aI2
aI2
aI2
aI1
aI1
aI1
aI4
asVhttps://www.reddit.com/r/techsupport/comments/1bxeoc/looking_for_allinone_that_does_not_suck_for_small/
p1543
(lp1544
I5
aI6
aI1
aI2
aI2
aI1
asVhttps://www.reddit.com/r/FeMRADebates/comments/2p57z0/concerning_male_empathy_and_torture_if_guantanamo/
p1545
(lp1546
I1
aI5
aI1
aI1
aI3
aI6
aI1
aI4
aI3
aI4
aI16
aI3
aI1
aI1
aI2
aI4
aI2
aI6
aI2
aI3
aI5
aI3
aI8
aI2
aI7
aI6
aI3
aI1
aI3
asVhttps://www.reddit.com/r/tampa/comments/2rczbm/bubba_is_back_bitches_6am_on_987_fm_anyone_care/
p1547
(lp1548
I3
aI19
aI2
aI3
aI1
aI3
aI1
aI3
aI2
aI3
aI1
aI2
aI5
aI2
aI7
aI1
aI4
aI5
aI7
asVhttps://www.reddit.com/r/SkincareAddiction/comments/2g8a3o/how_do_i_get_rid_of_these_skin_colored_bumps/
p1549
(lp1550
I24
aI4
aI11
aI4
aI5
aI2
aI2
asVhttps://www.reddit.com/r/vapor/comments/2p9tee/burnt_juice_in_drip_tip/
p1551
(lp1552
I2
aI3
aI2
aI1
aI3
aI4
aI2
aI1
asVhttps://www.reddit.com/r/whowouldwin/comments/2yglcu/sentry_vs_swamp_thing/
p1553
(lp1554
I7
aI6
aI7
aI2
aI5
aI2
aI1
aI2
aI1
aI1
aI1
aI1
aI3
aI3
aI3
aI1
aI3
asVhttps://www.reddit.com/r/leagueoflegends/comments/1oqqxb/drops_in_fps/
p1555
(lp1556
I10
aI2
aI1
aI1
aI1
aI1
aI1
aI1
aI2
aI1
aI1
aI1
aI1
asVhttps://www.reddit.com/r/startups/comments/3g1icn/doing_business_in_puerto_rico/
p1557
(lp1558
I7
aI3
aI3
aI3
aI1
aI2
aI2
aI2
aI1
asVhttps://www.reddit.com/r/wow/comments/2u0bto/help_me_figure_out_why_i_keep_disconnecting_from/
p1559
(lp1560
I20
aI21
aI3
aI12
aI3
aI5
aI3
aI5
aI19
aI8
aI2
aI9
aI2
aI7
aI4
aI2
asVhttps://www.reddit.com/r/DotA2/comments/3z6ska/now_that_kappa_crusaders_took_their_first_victory/
p1561
(lp1562
I1
aI1
aI1
aI1
aI1
aI2
aI1
aI1
aI1
aI1
aI1
aI1
aI2
aI1
aI1
aI1
aI1
aI1
aI1
aI1
aI1
aI1
aI1
aI1
aI1
aI1
asVhttps://www.reddit.com/r/androidapps/comments/2kzq7v/help_with_emojiswiftkey_app_specifically_no/
p1563
(lp1564
I6
aI1
aI3
aI4
aI1
aI9
aI3
aI4
asVhttps://www.reddit.com/r/energy_work/comments/16hk05/is_this_my_energy_killing_the_electronics_or/
p1565
(lp1566
I1
aI16
aI4
aI4
aI2
aI5
aI3
aI4
aI8
aI3
aI1
aI1
aI3
aI2
aI4
aI22
aI1
aI1
aI2
aI11
aI1
aI2
aI3
aI9
aI1
aI1
aI1
aI1
aI1
aI3
aI2
aI3
aI2
asVhttps://www.reddit.com/r/apple/comments/9izr5/in_case_like_me_you_never_upgraded_your_ipod/
p1567
(lp1568
I1
aI2
aI2
aI2
aI3
aI2
aI2
aI1
aI2
aI2
aI1
aI1
asVhttps://www.reddit.com/r/tressless/comments/431gxj/what_do_you_guys_think_am_i_thinning_on_top/
p1569
(lp1570
I0
aI1
aI1
aI1
aI1
aI1
aI1
aI4
aI2
asVhttps://www.reddit.com/r/kodi/comments/4d6eep/multiple_files_for_a_single_title/
p1571
(lp1572
I7
aI2
aI1
aI2
aI2
aI3
aI1
aI2
asVhttps://www.reddit.com/r/Standup/comments/1czcju/what_seems_to_be_an_effective_way_to_write/
p1573
(lp1574
I3
aI22
aI7
aI5
aI5
aI1
aI1
aI1
aI1
aI2
aI2
aI2
aI1
aI1
aI32
aI7
aI3
aI3
aI3
aI1
aI4
asVhttps://www.reddit.com/r/eagles/comments/2qr3nz/based_on_the_schedule/
p1575
(lp1576
I2
aI1
aI3
aI2
aI1
aI1
aI1
aI1
aI1
aI1
aI2
aI2
aI3
aI1
aI1
aI1
aI1
aI2
aI1
aI1
aI1
aI3
aI2
asVhttps://www.reddit.com/r/byu/comments/1wynv3/a_question_from_the_bunyion/
p1577
(lp1578
I11
aI13
aI1
aI3
aI4
aI2
aI3
aI2
aI1
aI1
aI1
aI13
aI3
aI1
aI1
aI1
aI4
aI2
asVhttps://www.reddit.com/r/Crouton/comments/3d4qdo/comprehensive_guide_to_linux_on_acer_c720_for/
p1579
(lp1580
I11
aI11
aI11
aI1
aI4
aI3
aI3
aI3
aI3
aI10
aI5
aI2
asVhttps://www.reddit.com/r/electricians/comments/3hiowz/lighthing_fixture/
p1581
(lp1582
I6
aI3
aI3
aI1
aI2
aI1
aI4
aI2
aI1
aI1
aI4
asVhttps://www.reddit.com/r/cats/comments/4idnth/i_see_a_orange_and_white_cat_roaming_through_my/
p1583
(lp1584
I6
aI2
aI4
aI3
aI3
aI1
aI6
aI1
aI3
aI1
aI4
aI2
aI3
aI7
asVhttps://www.reddit.com/r/AskReddit/comments/2zcqa6/what_is_something_that_is_relatively_simple_to/
p1585
(lp1586
I0
aI2
aI3
aI4
aI3
aI2
aI1
aI4
aI2
aI1
aI1
aI4
aI1
aI2
asVhttps://www.reddit.com/r/huntersbell/comments/3f2zs2/cddefiled130/
p1587
(lp1588
I5
aI1
aI1
aI1
aI2
aI4
aI3
aI4
aI2
aI5
aI2
aI1
aI2
aI5
aI5
aI1
aI2
asVhttps://www.reddit.com/r/pokemon/comments/3xz40u/need_help_creating_a_team_to_face_my_friend/
p1589
(lp1590
I18
aI2
aI5
aI9
aI2
aI2
aI2
aI7
aI2
aI1
aI3
aI1
aI5
aI4
aI2
aI1
aI1
aI1
aI3
aI2
aI2
aI4
aI2
aI4
aI5
aI1
aI3
aI2
aI2
aI1
aI1
aI4
aI1
aI3
aI3
aI5
aI3
aI2
aI9
aI2
asVhttps://www.reddit.com/r/demonssouls/comments/1rio39/having_trouble_getting_plat_due_to_the_world/
p1591
(lp1592
I3
aI1
aI1
aI2
aI2
aI1
aI6
aI1
asVhttps://www.reddit.com/r/singing/comments/4dnhub/how_to_get_volume_control/
p1593
(lp1594
I4
aI10
aI1
aI10
aI8
aI13
aI12
aI3
aI3
aI2
aI3
aI1
asVhttps://www.reddit.com/r/lfg/comments/2hsjag/online_dd_2e_need_dm_or_player_for_ist_4_to_1130/
p1595
(lp1596
I1
aI2
aI1
aI2
aI1
aI1
asVhttps://www.reddit.com/r/smallbusiness/comments/29imxh/i_have_an_idea_for_a_niche_bookstore_and_i_have/
p1597
(lp1598
I9
aI4
aI4
aI4
aI8
aI4
aI3
aI3
aI3
aI4
aI9
aI21
aI2
aI3
aI1
aI11
aI5
aI2
aI8
aI3
aI6
aI5
aI7
aI3
aI1
aI2
asVhttps://www.reddit.com/r/discododgeball/comments/34wcmk/hoops_league_fridays_8pm_et/
p1599
(lp1600
I1
aI8
aI3
aI4
aI2
aI1
aI1
aI2
asVhttps://www.reddit.com/r/AskReddit/comments/152xvo/where_can_i_find_really_good_porn_gifs/
p1601
(lp1602
I2
aI1
aI1
aI1
aI1
aI1
aI1
aI1
aI3
aI1
aI2
aI1
aI2
asVhttps://www.reddit.com/r/oculus/comments/1jez77/mmorpg_addicts_a_future_rift_problem/
p1603
(lp1604
I2
aI2
aI5
aI4
aI3
aI2
aI2
aI8
aI2
aI1
aI2
aI2
aI2
aI1
aI7
aI1
aI3
aI1
aI3
aI1
aI3
aI1
asVhttps://www.reddit.com/r/phoenix/comments/4elkew/rphoenix_daily_discussion_thread_april_13_2016/
p1605
(lp1606
I2
aI2
aI2
aI2
aI1
aI2
aI2
aI2
aI4
aI1
aI1
aI2
aI2
aI22
aI4
aI3
aI6
aI4
aI1
aI3
aI2
aI4
aI1
aI1
aI2
aI2
aI2
aI2
aI1
aI1
aI1
aI1
aI2
asVhttps://www.reddit.com/r/huntersbell/comments/326ure/ng135chalice_dungeonsskaloola/
p1607
(lp1608
I2
aI1
aI1
aI1
aI3
aI3
aI1
aI4
aI1
aI3
aI2
aI1
aI1
aI1
aI1
aI1
asVhttps://www.reddit.com/r/gta5/comments/4fp355/anyone_know_of_a_mod_that_slows_down_the_walking/
p1609
(lp1610
sVhttps://www.reddit.com/r/techsupport/comments/zby2d/my_roku_device_suddenly_stopped_connecting_to_my/
p1611
(lp1612
I4
aI3
aI4
aI4
aI4
aI2
aI2
aI5
aI1
aI2
aI8
aI2
aI4
aI2
aI1
aI2
aI2
aI3
aI1
aI1
aI3
aI3
aI2
aI2
aI1
aI5
aI2
aI1
aI1
aI2
aI1
aI2
aI3
aI1
aI2
aI1
aI2
aI1
aI5
aI4
asVhttps://www.reddit.com/r/ClickerHeroes/comments/2ehcw9/skillz_what_is_your_favorite_order_of_skills/
p1613
(lp1614
I5
aI11
aI1
aI18
aI4
aI1
aI2
aI9
aI1
aI3
aI6
aI2
aI4
aI4
aI3
asVhttps://www.reddit.com/r/leagueoflegends/comments/2zy4ko/ability_to_break_an_item_and_sell_a_part_of_it/
p1615
(lp1616
I3
aI1
aI2
aI1
aI1
aI2
aI4
aI1
asVhttps://www.reddit.com/r/techsupport/comments/37vo6i/recording_games_produces_unreadable_avi_files/
p1617
(lp1618
I10
aI1
aI4
aI3
aI1
aI4
aI1
aI4
aI2
aI4
aI2
aI3
aI2
aI2
asVhttps://www.reddit.com/r/diablo3/comments/2g45p4/finally_getting_d3_for_my_birthday_this_weekend/
p1619
(lp1620
I4
aI1
aI1
aI3
aI1
aI1
aI2
aI2
aI1
asVhttps://www.reddit.com/r/csmapmakers/comments/2gk86c/ive_hit_a_wall_with_detailing_my_map_de_fruit/
p1621
(lp1622
I5
aI10
aI7
aI1
aI2
aI4
aI1
aI2
aI1
aI2
aI1
aI1
asVhttps://www.reddit.com/r/Cleveland/comments/4hbbh2/goodtime_iii_vs_nautica_queen/
p1623
(lp1624
I3
aI14
aI3
aI2
aI1
aI2
aI1
aI2
asVhttps://www.reddit.com/r/rpg/comments/3b7zgn/ludology_are_there_relevant_fundamental_texts/
p1625
(lp1626
I3
aI4
aI10
aI6
aI3
aI1
aI10
aI2
aI2
aI2
aI1
asVhttps://www.reddit.com/r/evedreddit/comments/195f7z/im_looking_to_join_but_i_want_to_be_prepared/
p1627
(lp1628
I6
aI11
aI15
aI4
aI3
aI5
aI5
aI13
aI2
aI2
asVhttps://www.reddit.com/r/40kLore/comments/3au23g/a_human_in_taus_clothing/
p1629
(lp1630
I4
aI6
aI1
aI2
aI2
aI1
aI4
aI2
aI1
aI2
aI1
aI1
aI1
aI4
aI2
asVhttps://www.reddit.com/r/guns/comments/4aklyx/shiloh_sharps_1874_inherited_it_from_my/
p1631
(lp1632
I16
aI4
aI2
aI2
aI5
aI3
aI5
aI1
aI1
aI2
aI3
aI1
aI4
aI1
aI3
aI5
asVhttps://www.reddit.com/r/BurningMan/comments/2e30uw/yet_another_will_call_question_not_answered/
p1633
(lp1634
I5
aI1
aI8
aI1
aI1
aI1
aI1
aI2
asVhttps://www.reddit.com/r/Warframe/comments/4c5que/best_endgame_warframe/
p1635
(lp1636
I1
aI12
aI4
aI1
aI2
aI2
aI1
aI2
aI1
aI5
aI6
aI3
aI1
aI3
aI1
aI3
aI1
aI3
aI1
aI3
aI2
aI2
aI1
aI1
aI3
aI4
aI6
aI3
aI3
asVhttps://www.reddit.com/r/rocksmith/comments/2z9q4r/rocksmith_really_works_heres_where_im_at_after_a/
p1637
(lp1638
I0
aI3
aI1
aI4
aI3
aI5
aI17
aI3
aI6
aI3
aI2
aI4
aI1
aI1
aI2
aI1
aI1
aI1
aI2
aI2
aI2
asVhttps://www.reddit.com/r/oaklandraiders/comments/311ftm/what_do_you_guys_think_about_good_guys_new_look/
p1639
(lp1640
I4
aI2
aI1
aI4
aI3
aI10
aI1
aI3
aI2
aI3
aI1
aI1
aI1
aI6
aI3
aI2
aI2
aI1
aI1
aI3
asVhttps://www.reddit.com/r/dayz/comments/1vp8b6/should_i_get_the_dayz_sa_or_buy_arma_ii_and_get/
p1641
(lp1642
I0
aI1
aI3
aI1
aI1
aI1
aI1
aI3
aI1
aI1
aI2
aI1
aI2
asVhttps://www.reddit.com/r/WTF/comments/1f5j6q/found_this_on_the_windshield_of_ever_car_in_our/
p1643
(lp1644
I0
aI1
aI2
aI4
aI1
aI5
aI2
aI6
aI3
aI1
aI3
aI2
aI3
aI1
aI2
aI6
aI2
aI7
aI1
aI1
aI7
aI4
aI5
aI1
aI1
aI2
aI2
aI1
aI2
aI2
aI2
aI1
aI1
aI1
aI1
aI2
aI1
aI1
aI1
aI2
asVhttps://www.reddit.com/r/hockeyplayers/comments/1k4ksi/screening_the_goalie/
p1645
(lp1646
I10
aI16
aI3
aI12
aI24
aI1
aI5
aI21
aI2
aI2
aI2
aI3
aI4
aI6
aI4
aI4
aI4
aI2
aI2
aI1
aI1
aI2
aI2
aI1
aI3
asVhttps://www.reddit.com/r/Nexus5/comments/1uf55c/stuck_between_cases/
p1647
(lp1648
I6
aI2
aI2
aI3
aI3
aI8
aI2
aI2
aI1
aI2
aI2
aI1
aI3
aI1
aI5
aI1
aI3
asVhttps://www.reddit.com/r/asheville/comments/2c748d/what_is_an_upper_echelon_consignment_store_in/
p1649
(lp1650
I0
aI1
aI2
aI1
aI1
aI4
aI7
aI2
aI2
aI6
aI2
aI2
aI2
aI3
aI2
asVhttps://www.reddit.com/r/legaladvice/comments/1riqzr/bought_2000_worth_of_fake_gold/
p1651
(lp1652
I6
aI3
aI1
aI1
aI4
aI4
aI3
aI3
aI2
aI1
aI3
asVhttps://www.reddit.com/r/jobs/comments/23qq5y/do_interviewers_ask_for_references_if_they_arent/
p1653
(lp1654
I12
aI4
aI7
aI3
aI8
aI4
aI2
asVhttps://www.reddit.com/r/MinionHate/comments/3j4zip/it_finally_fucking_happened_to_me_god_damn_it/
p1655
(lp1656
I0
aI1
aI1
aI2
aI2
aI2
aI2
aI1
aI1
aI1
aI2
aI2
aI1
aI1
aI2
aI1
aI1
aI1
aI1
aI1
aI5
aI1
aI1
aI1
aI1
aI1
aI3
aI1
aI1
aI1
aI1
aI3
aI1
aI1
aI4
asVhttps://www.reddit.com/r/zen/comments/2rjq21/science_and_human_beings/
p1657
(lp1658
I33
aI2
aI2
aI7
aI4
aI2
aI16
aI1
aI1
aI3
aI1
aI2
aI1
aI2
aI3
aI19
aI2
aI5
aI2
aI7
aI17
aI2
aI1
aI2
aI10
aI11
aI19
aI2
aI1
aI3
aI21
aI2
aI1
aI2
aI1
aI1
aI7
aI2
aI9
aI1
aI14
asVhttps://www.reddit.com/r/batonrouge/comments/3bxcna/moving_to_br_soon_whats_the_area_like/
p1659
(lp1660
I9
aI3
aI1
aI3
aI2
aI12
aI5
aI3
aI2
aI3
aI7
aI1
aI12
aI2
aI3
aI1
aI1
aI1
aI6
aI2
aI2
aI2
aI3
aI2
aI1
aI1
aI1
aI2
aI4
aI1
aI2
aI2
aI3
aI3
aI7
aI3
aI4
aI1
aI1
asVhttps://www.reddit.com/r/androiddev/comments/34uehq/is_there_a_way_to_disable_the_subreddit_styles/
p1661
(lp1662
I3
aI5
aI14
aI3
aI1
aI2
aI2
aI1
aI3
aI2
aI1
asVhttps://www.reddit.com/r/MHOL/comments/4c7az1/b211_education_for_underdeveloped_nations_bill/
p1663
(lp1664
I22
aI5
aI5
aI1
aI2
aI8
aI6
aI5
aI1
aI3
aI1
aI1
aI10
aI1
aI17
aI8
aI15
asVhttps://www.reddit.com/r/electronic_cigarette/comments/171yzh/best_and_cheapest_place_to_buy_a_pair_of_18350/
p1665
(lp1666
I2
aI5
aI1
aI2
aI1
aI3
aI1
aI3
aI1
aI2
aI2
aI1
aI1
aI2
aI2
aI1
aI1
aI1
aI2
aI2
aI1
aI1
aI1
aI1
aI4
aI1
aI2
asVhttps://www.reddit.com/r/smashbros/comments/32acgk/mang0_being_mang0/
p1667
(lp1668
I1
aI1
aI1
aI1
aI1
aI1
aI2
aI2
aI1
aI2
aI2
aI1
aI1
aI1
aI4
aI1
aI3
aI1
aI1
aI2
aI2
aI1
aI4
aI1
aI1
aI1
aI1
aI1
aI2
aI2
aI1
aI1
aI2
aI1
aI3
aI2
aI1
aI1
aI4
aI1
aI1
asVhttps://www.reddit.com/r/buildapc/comments/3zxoya/troubleshooting_no_soundvisual_from_pc/
p1669
(lp1670
I3
aI3
aI1
aI1
aI1
aI1
aI1
aI1
asVhttps://www.reddit.com/r/FFRecordKeeper/comments/421a31/no_end_of_the_month_bonuses/
p1671
(lp1672
I5
aI6
aI2
aI2
aI2
aI3
aI1
aI2
aI1
aI1
aI1
aI2
aI1
aI3
aI2
aI1
asVhttps://www.reddit.com/r/taiko/comments/21gxkc/any_ideassuggestions_for_cool_taiko_tshirts/
p1673
(lp1674
I3
aI4
aI4
aI1
aI2
aI1
asVhttps://www.reddit.com/r/warframeclanrecruit/comments/2zs13p/napclfc_mincer558/
p1675
(lp1676
I3
aI3
aI13
aI2
aI2
aI1
aI1
asVhttps://www.reddit.com/r/marvelstudios/comments/4ej762/important_antman_movie_question/
p1677
(lp1678
I2
aI2
aI1
aI1
aI1
aI3
aI3
aI2
aI1
asVhttps://www.reddit.com/r/zen/comments/4bqqeo/everything_is_black_and_white/
p1679
(lp1680
I1
aI20
aI4
aI1
aI2
aI1
aI1
aI10
aI1
aI1
aI1
aI1
aI1
aI1
aI1
aI1
aI1
aI1
aI1
aI1
as.