(dp0
Vhttps://www.reddit.com/r/buildapc/comments/14ylcw/build_help_this_probably_gets_asked_a_lot_but/
p1
(lp2
I90
aI32
aI27
aI60
aI383
aI37
aI16
aI1
aI52
asVhttps://www.reddit.com/r/rock/comments/vt3mx/because_accordion/
p3
(lp4
I0
aI11
aI6
aI19
aI51
aI10
asVhttps://www.reddit.com/r/teclast/comments/3gmf1k/teclast_x98fixing_error_0xc0000225/
p5
(lp6
I62
aI14
aI4
aI1
aI8
aI29
aI21
aI10
aI9
aI41
aI25
aI21
aI14
aI19
aI14
aI30
asVhttps://www.reddit.com/r/trees/comments/14otha/anyone_clean_a_bowl_with_a_selfcleaning_oven/
p7
(lp8
I65
aI17
aI35
aI46
aI44
aI10
aI5
aI5
asVhttps://www.reddit.com/r/buildapcforme/comments/3i05e9/livingroom_pc/
p9
(lp10
I236
aI19
aI24
aI553
aI38
aI67
asVhttps://www.reddit.com/r/oblivion/comments/1qp1qg/new_to_oblivion_skyrim_was_the_first_es_game_i/
p11
(lp12
I33
aI267
aI323
aI366
aI15
aI42
aI6
aI20
aI42
aI27
aI94
aI53
aI1
aI26
aI48
aI164
aI94
aI40
aI44
aI21
aI28
aI27
aI78
aI90
aI79
aI41
aI61
aI29
aI73
aI15
aI8
asVhttps://www.reddit.com/r/shittyadvice/comments/10qzqz/not_very_popular_at_work_right_now/
p13
(lp14
I17
aI7
aI9
aI21
aI42
aI44
aI11
aI10
aI22
aI7
aI8
aI14
aI1
aI23
aI16
aI9
aI11
aI2
asVhttps://www.reddit.com/r/dayz/comments/2155i7/where_to_find_pistol_mags/
p15
(lp16
I13
aI38
aI10
aI3
aI58
aI3
aI5
asVhttps://www.reddit.com/r/legaladvice/comments/2qg6bb/neighbours_left_me_an_angry_letter_and_threatened/
p17
(lp18
I335
aI85
aI56
aI74
aI22
aI54
aI12
aI17
aI8
aI37
aI50
aI3
aI13
aI47
aI80
aI29
aI37
aI46
aI26
aI17
aI116
aI58
aI22
aI34
aI41
aI253
aI21
aI6
aI80
aI39
aI179
aI12
aI8
aI10
aI83
aI8
aI28
aI59
aI15
aI14
aI16
asVhttps://www.reddit.com/r/picrequests/comments/1iabie/can_you_help_me_remove_this_smudge_on_this_old_pic/
p19
(lp20
I1
aI4
aI1
aI4
aI1
aI9
asVhttps://www.reddit.com/r/stlouisblues/comments/1ua960/gifs_1214_kings_blues_blues_win_50/
p21
(lp22
I361
aI3
aI30
aI3
aI19
aI68
aI17
aI18
aI17
aI4
aI1
aI57
aI11
aI50
aI2
aI192
aI11
aI2
aI17
aI1
aI12
asVhttps://www.reddit.com/r/pkmntcg/comments/oqxk0/looking_for_1st_edition_base_set_cards/
p23
(lp24
I76
aI52
aI3
aI35
aI35
aI9
asVhttps://www.reddit.com/r/fireemblem/comments/31wprt/possibility_of_same_sex_marriages_in_fe14/
p25
(lp26
I77
aI21
aI13
aI21
aI377
aI25
aI38
aI64
aI365
aI211
aI19
aI41
aI14
aI2
aI35
aI43
aI77
aI4
aI6
aI52
aI4
aI78
aI22
aI7
aI140
aI21
aI20
aI20
aI167
aI19
aI60
aI25
aI228
aI36
aI54
aI213
aI52
aI190
aI40
aI208
aI5
asVhttps://www.reddit.com/r/cigars/comments/4fvjk5/beer_and_cigars_contest_entry_tatuaje_tattoo_and/
p27
(lp28
I462
aI3
aI54
aI103
aI40
aI20
aI25
aI56
aI42
aI39
aI31
asVhttps://www.reddit.com/r/britishproblems/comments/1giqbd/just_walked_past_a_group_of_youths_proclaiming/
p29
(lp30
I22
aI14
aI27
aI32
aI46
aI8
aI7
aI44
aI28
aI11
aI11
aI5
aI2
aI8
aI20
aI32
aI12
aI13
aI14
aI8
aI17
aI6
aI25
aI5
aI8
aI5
asVhttps://www.reddit.com/r/makinghiphop/comments/2t0kur/discuss_how_do_you_guys_compose_good_melodies/
p31
(lp32
I52
aI185
aI380
aI45
aI95
aI4
aI56
aI14
aI156
aI22
aI16
aI128
aI88
aI24
aI18
aI78
aI116
aI51
aI3
aI7
aI50
aI11
aI22
aI45
aI19
aI16
aI8
asVhttps://www.reddit.com/r/nihilism/comments/1qjn6i/a_really_nice_quote_i_came_across_sums_up_my/
p33
(lp34
I97
aI3
aI51
aI25
aI100
aI59
aI136
aI36
aI22
aI8
aI38
aI1
aI53
aI26
aI35
aI18
aI17
aI43
aI7
aI89
aI115
asVhttps://www.reddit.com/r/learnprogramming/comments/13jevc/java_how_to_improve_performance_of_arraylist/
p35
(lp36
I121
aI140
aI36
aI44
aI119
aI65
aI72
aI74
asVhttps://www.reddit.com/r/gamecollecting/comments/2uxzyo/been_playing_games_since_the_late_1980s_still/
p37
(lp38
I41
aI146
aI8
aI21
aI21
aI28
aI105
aI59
aI39
aI82
aI40
aI46
aI45
asVhttps://www.reddit.com/r/summonerschool/comments/1dzwxr/what_do_you_do_as_an_adc_when_your_team_is_behind/
p39
(lp40
I64
aI128
aI12
aI73
aI33
aI8
aI61
aI40
aI107
aI19
aI118
aI35
aI12
aI48
aI31
aI40
aI16
aI14
asVhttps://www.reddit.com/r/conspiro/comments/1vfgak/the_doctor_who_claimed_there_was_a_link_between/
p41
(lp42
I46
aI21
aI58
aI41
aI255
aI37
aI93
aI28
aI31
aI119
aI32
aI69
aI30
aI42
aI27
aI340
aI56
aI81
aI97
aI48
aI34
aI106
aI32
aI61
aI75
aI36
aI33
aI28
aI54
aI31
aI102
aI297
aI35
aI97
aI41
aI29
aI35
aI99
aI27
aI37
aI69
asVhttps://www.reddit.com/r/seduction/comments/2g3rb6/my_experience_with_edm_shows/
p43
(lp44
I364
aI13
aI355
aI20
aI71
aI10
aI15
aI48
aI4
aI201
aI219
aI33
aI130
aI22
aI16
aI3
aI26
aI3
aI158
aI13
aI33
aI6
aI192
aI57
aI44
asVhttps://www.reddit.com/r/buildapc/comments/2g13n8/build_help_best_budget_motherboard_for_the/
p45
(lp46
I34
aI30
aI13
aI15
aI30
aI14
aI13
asVhttps://www.reddit.com/r/AskReddit/comments/20bl8l/reddit_what_is_one_taste_good_or_bad_that_you/
p47
(lp48
I0
aI11
aI22
aI14
aI47
aI46
aI5
aI29
aI22
aI3
aI30
aI1
aI20
aI40
aI22
aI18
aI16
aI1
aI1
aI20
aI48
aI2
aI13
aI11
aI28
aI3
aI18
aI19
aI30
aI40
asVhttps://www.reddit.com/r/pcmasterrace/comments/351t8o/need_help_with_gaming_laptop_under_1000_this/
p49
(lp50
I109
aI19
aI17
aI15
aI60
aI4
aI18
aI5
aI51
aI33
aI12
aI29
aI57
aI126
aI45
aI14
aI17
aI60
aI69
aI26
aI44
aI47
aI18
aI130
aI11
aI31
aI53
aI15
aI31
aI22
aI6
aI59
aI79
aI28
aI105
aI56
aI264
aI67
aI114
aI58
asVhttps://www.reddit.com/r/relationship_advice/comments/qcobj/fwb_and_i_have_feelings_for_each_other_now/
p51
(lp52
I152
aI218
aI10
aI4
aI5
aI29
aI80
aI13
aI94
aI8
aI24
aI45
aI3
aI69
aI2
aI84
aI59
aI180
aI120
aI5
aI14
asVhttps://www.reddit.com/r/learnprogramming/comments/1xw309/php_in_shell_question_how_to_reload_from_the/
p53
(lp54
I179
aI9
aI62
aI12
aI11
aI11
aI30
asVhttps://www.reddit.com/r/windowsphone/comments/1akc9l/lumia_920_glass_replacement/
p55
(lp56
I32
aI19
aI5
aI13
aI45
aI17
aI57
asVhttps://www.reddit.com/r/counting/comments/2lj4yz/time_counting_thread_20000_am/
p57
(lp58
I0
aI4
aI4
aI4
aI8
aI4
aI4
aI4
aI4
aI4
aI4
asVhttps://www.reddit.com/r/polyamory/comments/r61z9/how_do_you_define_primary_partner_do_you_think/
p59
(lp60
I95
aI190
aI70
aI58
aI87
aI49
aI168
aI178
aI34
aI21
aI73
aI58
aI96
aI81
aI1
aI35
aI27
aI30
aI28
aI83
aI219
aI77
aI256
aI167
aI6
asVhttps://www.reddit.com/r/askportland/comments/3wutrg/parking_for_visitors/
p61
(lp62
I94
aI59
aI68
aI108
aI10
aI77
aI79
aI31
aI13
asVhttps://www.reddit.com/r/dailyprogrammer_ideas/comments/39rm5g/alice_through_the_looking_glass/
p63
(lp64
I444
aI55
aI59
aI20
aI34
aI15
asVhttps://www.reddit.com/r/TalesFromRetail/comments/1xf2kq/the_bowie_knife/
p65
(lp66
I350
aI89
aI9
aI11
aI30
aI6
aI26
aI5
aI47
aI3
aI55
aI28
aI10
aI38
asVhttps://www.reddit.com/r/jailbreak/comments/1jmtse/upgrade_to_70_then_back_to_612/
p67
(lp68
I35
aI55
aI42
aI42
aI78
aI57
aI231
aI110
aI100
asVhttps://www.reddit.com/r/science/comments/gdft3/is_the_earth_6000_years_old/
p69
(lp70
I0
aI1
aI37
aI6
aI76
aI8
aI10
aI5
aI11
asVhttps://www.reddit.com/r/offmychest/comments/3aj98m/if_youre_aggravated_by_something_please_dont_vent/
p71
(lp72
I226
aI79
aI101
aI43
aI101
aI56
asVhttps://www.reddit.com/r/ftm/comments/44ajoa/fantastic_friday_interesting_images_february_05/
p73
(lp74
I9
aI9
aI15
aI8
aI10
aI4
aI10
aI11
asVhttps://www.reddit.com/r/Juve/comments/2pcn5o/well_face_borussia_dortmund_thoughts/
p75
(lp76
I0
aI33
aI134
aI35
aI113
aI49
aI44
aI13
aI109
aI128
aI28
aI53
aI53
aI47
aI72
aI91
aI51
aI39
aI62
aI31
aI25
aI11
aI80
aI1
aI32
aI100
aI40
aI73
aI45
aI11
aI59
aI7
aI14
aI39
aI25
aI33
aI31
aI16
asVhttps://www.reddit.com/r/darksouls3/comments/4fjxhy/tips_for_mercenary_load_out/
p77
(lp78
I62
aI47
aI44
aI79
aI8
aI167
asVhttps://www.reddit.com/r/blackops3/comments/4jjrff/new_everything_apparently/
p79
(lp80
I55
aI63
aI17
aI15
aI4
aI8
aI7
asVhttps://www.reddit.com/r/loremasters/comments/28pr5n/need_some_feedback_on_the_main_plot_of_my_campaign/
p81
(lp82
I1741
aI117
aI314
aI67
aI194
aI13
aI14
aI40
aI8
aI2
aI9
aI59
aI2
aI76
aI40
aI29
aI35
aI29
aI145
aI60
aI93
aI126
aI24
asVhttps://www.reddit.com/r/formula1/comments/4jmsiw/dutch_max_got_wasted_last_night/
p83
(lp84
I0
aI41
aI34
aI62
aI16
aI23
aI16
aI7
aI22
aI13
aI35
aI6
aI17
aI26
aI12
aI47
aI14
aI36
aI71
aI4
aI4
asVhttps://www.reddit.com/r/hardware/comments/1d3fni/i_have_a_unique_problem_and_i_am_looking_for_a/
p85
(lp86
I179
aI61
aI33
aI8
aI30
aI10
aI12
aI56
asVhttps://www.reddit.com/r/bloodborne/comments/4fn86y/none_of_my_friends_can_summon_me_but_i_can_summon/
p87
(lp88
I107
aI59
aI6
aI33
aI46
aI1
aI7
aI14
aI14
aI1
aI7
aI16
aI79
aI23
aI32
aI9
aI59
aI5
asVhttps://www.reddit.com/r/teslore/comments/1v5ugj/a_last_lecture_on_sithis/
p89
(lp90
I765
aI100
aI17
aI43
aI9
aI67
aI161
aI5
aI35
aI139
aI106
aI9
aI140
aI4
aI32
aI55
asVhttps://www.reddit.com/r/buildapc/comments/3c3xwu/troubleshooting_bios_splash_screen_disabled_by/
p91
(lp92
I71
aI5
aI2
aI14
aI16
aI20
asVhttps://www.reddit.com/r/Guildwars2/comments/35niq1/eles_minor_trait_versus_mesmers_minor_trait/
p93
(lp94
I49
aI29
aI17
asVhttps://www.reddit.com/r/karate/comments/kz88r/shamo_an_awesome_manga_about_karate_that_you_guys/
p95
(lp96
I45
aI59
aI13
aI44
aI10
aI23
aI47
aI50
aI42
aI29
asVhttps://www.reddit.com/r/Nikon/comments/4ebr2l/artistic_wideangle_lens_for_d7200/
p97
(lp98
I98
aI36
aI88
aI20
aI39
aI40
aI29
aI100
aI29
aI31
asVhttps://www.reddit.com/r/pcmasterracents/comments/48u618/minecraft_server/
p99
(lp100
I8
aI10
aI12
aI33
aI9
aI3
aI9
asVhttps://www.reddit.com/r/fantasyfootball/comments/2dqiot/about_to_draft_in_a_20_team_league/
p101
(lp102
I12
aI18
aI3
aI12
aI21
aI10
aI50
aI19
aI6
asVhttps://www.reddit.com/r/exjw/comments/r5b28/time_to_come_out_as_exjw/
p103
(lp104
I376
aI509
aI27
aI30
aI172
aI19
aI14
aI3
aI30
aI2
asVhttps://www.reddit.com/r/weddingplanning/comments/4aymd3/psa_gta_brides_nordstrom_warehouse_sale_march/
p105
(lp106
I142
aI4
aI17
aI16
aI9
aI12
aI8
aI20
aI6
aI18
asVhttps://www.reddit.com/r/bipolar/comments/4g0j4h/im_so_thankful_for_nice_pharmacists/
p107
(lp108
I144
aI38
aI17
aI97
aI6
aI181
aI20
aI37
aI14
aI21
aI49
aI54
aI47
aI32
aI71
aI11
aI30
aI13
aI10
aI13
aI9
aI86
aI6
aI72
aI29
aI38
aI31
asVhttps://www.reddit.com/r/motorcycles/comments/17r8mm/water_in_oil_on_my_oil_cooled_bike/
p109
(lp110
I114
aI127
aI64
aI19
aI24
aI17
aI28
aI24
aI63
aI40
aI20
aI10
aI199
aI6
asVhttps://www.reddit.com/r/politics/comments/16c68q/big_donors_hope_to_challenge_nra_on_gun_control/
p111
(lp112
I0
aI12
aI18
aI11
aI192
aI17
aI11
aI50
asVhttps://www.reddit.com/r/keto/comments/15adwk/started_last_saturday_223_today_im_216_thats/
p113
(lp114
I109
aI59
aI196
aI58
aI80
aI14
aI41
aI60
aI134
aI74
aI32
aI47
aI19
aI17
aI91
aI5
asVhttps://www.reddit.com/r/MechanicAdvice/comments/3w7dfn/windows_wont_defog/
p115
(lp116
I88
aI15
aI66
aI71
aI58
aI114
aI63
aI50
aI37
aI104
aI37
aI57
aI10
aI83
aI6
aI14
aI24
aI37
aI9
aI18
asVhttps://www.reddit.com/r/linux/comments/1rraow/such_useful_error_messages_we_get_these_days/
p117
(lp118
I0
aI5
aI3
aI1
aI12
aI14
aI271
aI14
aI8
aI2
aI280
aI1
asVhttps://www.reddit.com/r/buildapc/comments/2afmpk/build_help_pc_upgrading/
p119
(lp120
I80
aI54
aI27
aI18
aI10
aI3
aI12
asVhttps://www.reddit.com/r/buildapc/comments/2b10qe/build_help_and_build_ready_im_seeking_help_with/
p121
(lp122
I1
aI49
aI85
aI53
aI100
aI17
aI115
asVhttps://www.reddit.com/r/GetStudying/comments/46a0av/cant_grasp_simple_math_homework/
p123
(lp124
I264
aI43
aI34
aI66
aI40
aI11
aI198
aI81
aI38
aI68
aI60
aI50
aI139
aI30
aI193
aI102
aI95
aI2
asVhttps://www.reddit.com/r/houston/comments/4jenwx/photography_of_houston/
p125
(lp126
I34
aI104
aI2
aI11
aI7
aI36
aI9
aI13
aI65
aI55
aI50
aI76
aI114
aI150
asVhttps://www.reddit.com/r/fantasyhockey/comments/1phm5l/not_busy_all_day_will_answer_any_and_all_questions/
p127
(lp128
I0
aI51
aI14
aI20
aI13
aI36
aI34
aI25
aI42
aI64
aI22
aI66
aI7
aI37
aI28
aI6
aI18
aI33
aI12
aI29
aI2
aI42
aI7
aI27
aI16
aI35
aI2
aI11
aI1
aI6
aI23
aI9
aI56
aI30
aI29
aI20
aI9
aI51
aI31
aI45
aI14
asVhttps://www.reddit.com/r/sales/comments/4jboyd/i_just_finished_reading_my_first_sales_book_and/
p129
(lp130
I358
aI330
aI46
aI28
aI16
aI23
aI90
aI5
aI94
aI57
aI547
aI7
aI14
asVhttps://www.reddit.com/r/fatestaynight/comments/3h5f1b/fhollow_ataraxia_voice_patch_question/
p131
(lp132
I46
aI20
aI25
aI32
aI7
aI34
aI25
aI30
aI12
aI27
aI21
aI20
aI68
aI69
aI84
aI8
aI21
aI26
aI24
aI2
aI141
aI51
aI15
aI8
aI29
aI26
aI142
aI6
aI21
aI15
aI21
asVhttps://www.reddit.com/r/OSU/comments/2mi0p4/got_a_jaywalking_ticket_is_it_worth_it_to_contest/
p133
(lp134
I40
aI16
aI50
aI2
aI26
aI8
aI37
aI2
aI6
aI19
aI5
aI4
aI6
aI5
aI37
aI28
aI6
asVhttps://www.reddit.com/r/offmychest/comments/2p37rx/i_am_on_the_look_out_for_another_manwhile_with_my/
p135
(lp136
I424
aI124
aI143
aI121
aI135
aI152
aI57
aI28
aI57
asVhttps://www.reddit.com/r/opieandanthony/comments/2sy4na/burr_cumia_and_norton_would_have_been_the_perfect/
p137
(lp138
I87
aI39
aI11
aI7
aI25
aI69
aI18
aI31
aI42
aI175
aI23
aI63
aI6
aI5
aI11
aI26
aI16
aI7
aI15
aI12
aI2
aI97
aI188
aI20
aI11
aI72
aI7
aI49
aI2
aI8
aI15
aI54
aI17
aI6
aI1
aI113
aI86
aI19
aI4
aI5
asVhttps://www.reddit.com/r/ota/comments/4agn5d/hauppauge_new_4x_atsc_tuner_card_99/
p139
(lp140
I109
aI82
aI177
aI63
aI70
aI103
aI209
asVhttps://www.reddit.com/r/design_critiques/comments/31l9ka/logobusiness_cardswebsite_design_student_in_final/
p141
(lp142
I79
aI84
aI140
aI167
aI187
aI125
aI61
asVhttps://www.reddit.com/r/techsupport/comments/1ia3vt/laptop_seems_weaker_than_it_should_be/
p143
(lp144
I126
aI18
aI38
aI46
aI25
aI20
aI27
aI43
aI47
asVhttps://www.reddit.com/r/synthesizers/comments/22mrsf/inside_of_pocket_piano_gr_uses_the_same_pcb_as/
p145
(lp146
I40
aI7
aI49
aI15
aI63
aI23
aI95
aI50
aI10
aI14
aI8
asVhttps://www.reddit.com/r/casualiama/comments/4f9l1e/super_knowledgeable_on_plants_fashion_and_strange/
p147
(lp148
I10
aI11
aI16
aI6
aI24
aI13
aI6
aI8
aI27
aI42
aI9
aI27
aI11
aI82
aI24
aI43
aI85
aI80
aI10
aI11
aI19
aI30
aI45
aI43
aI9
aI18
aI15
aI22
aI9
aI13
aI16
aI14
aI12
aI23
aI26
aI15
aI21
aI31
aI3
aI29
aI29
asVhttps://www.reddit.com/r/gaming/comments/yq9cl/dark_souls_pc_controls_are_funky/
p149
(lp150
I32
aI28
aI7
aI67
aI25
aI36
aI84
asVhttps://www.reddit.com/r/guns/comments/2lox2o/talk_me_out_of_a_ruger_ar556/
p151
(lp152
I46
aI3
aI37
aI29
aI18
aI72
aI61
aI35
aI7
aI17
aI25
aI6
aI35
aI8
aI26
aI5
aI9
aI2
aI14
aI14
aI8
aI9
aI2
aI18
aI7
aI12
aI11
aI5
aI19
aI84
aI25
aI5
aI23
aI11
aI7
aI40
aI27
aI23
aI8
asVhttps://www.reddit.com/r/keto/comments/1sewkc/thinking_about_trying_keto/
p153
(lp154
I103
aI37
aI66
aI20
aI5
aI33
aI195
aI7
aI29
aI92
aI86
aI115
aI21
aI6
asVhttps://www.reddit.com/r/audioengineering/comments/4iyyr2/plugin_chain_or_track_effects/
p155
(lp156
I150
aI115
aI95
aI77
aI54
aI7
aI26
aI60
aI100
aI70
aI27
aI91
aI55
aI207
aI23
aI29
aI2
aI39
aI58
aI73
aI36
aI12
aI24
asVhttps://www.reddit.com/r/leagueoflegends/comments/3gexqm/lunity_the_bounty_hunter/
p157
(lp158
I0
aI3
aI4
aI1
aI1
aI1
aI0
aI1
aI4
aI5
aI2
asVhttps://www.reddit.com/r/cpp_questions/comments/43b0bh/difference_between_const_string_s_string_and/
p159
(lp160
I106
aI84
aI98
aI73
aI119
aI33
aI121
aI86
aI76
aI31
aI124
aI57
aI47
asVhttps://www.reddit.com/r/NoStupidQuestions/comments/49vjo5/i_accidentally_left_my_laundry_in_the_washing/
p161
(lp162
I23
aI34
aI57
aI121
aI38
aI76
aI149
aI23
aI4
aI67
aI17
aI29
aI25
aI10
aI22
aI35
aI63
aI16
aI30
aI5
aI10
aI8
aI15
aI22
aI28
aI8
aI18
aI5
aI56
aI9
aI35
aI21
aI50
aI1
aI31
aI30
asVhttps://www.reddit.com/r/relationships/comments/3fwitf/me_20_f_with_my_friends_20sf_of_about_a_year_i/
p163
(lp164
I996
aI60
aI49
aI37
aI52
aI106
aI111
aI111
asVhttps://www.reddit.com/r/bipolar/comments/39hfh6/mixed_state_what_does_it_mean_to_you/
p165
(lp166
I52
aI85
aI27
aI10
aI32
aI5
aI17
aI25
aI3
aI5
aI13
asVhttps://www.reddit.com/r/politics/comments/4hhb4b/for_top_federal_contractors_investments_in/
p167
(lp168
I0
aI84
aI20
aI15
aI69
aI200
aI50
aI4
aI1
asVhttps://www.reddit.com/r/ultimate/comments/43qnuz/up_line_flick_vs_lefty_backhand/
p169
(lp170
I55
aI195
aI112
aI69
aI68
aI41
aI31
aI50
aI63
aI19
aI95
aI97
aI7
aI197
aI26
aI2
aI18
aI36
aI28
aI16
aI12
aI39
aI101
aI5
aI44
aI63
asVhttps://www.reddit.com/r/windows8/comments/1lln1p/need_help_with_games_on_windows_8/
p171
(lp172
I72
aI21
aI45
aI6
aI6
aI10
aI32
aI31
aI1
aI32
aI22
aI36
aI90
asVhttps://www.reddit.com/r/darksouls3/comments/40cskn/question_about_socalled_fanservice/
p173
(lp174
I121
aI160
aI16
aI127
aI54
aI96
aI87
aI9
aI122
aI26
aI113
aI51
aI40
aI11
aI13
aI13
aI109
aI308
aI129
aI56
aI28
aI40
aI135
aI77
aI7
aI45
aI34
aI120
aI36
aI127
aI36
aI43
aI11
aI11
aI10
aI61
aI2
aI10
aI11
aI76
aI22
asVhttps://www.reddit.com/r/Charadefensesquad/comments/4jh0ir/chara_did_kill_someone/
p175
(lp176
I1
aI127
aI8
aI143
aI16
aI315
aI67
aI127
aI65
aI238
aI11
aI22
aI393
asVhttps://www.reddit.com/r/tarnation/comments/35m2xp/anyone_on_elder_scrolls_online/
p177
(lp178
I0
aI50
aI28
aI15
aI13
aI2
aI23
aI11
aI26
aI23
aI6
aI9
asVhttps://www.reddit.com/r/ffxiv/comments/nfgpb/cant_log_in_to_ffxiv/
p179
(lp180
I70
aI32
aI28
aI55
aI18
aI29
aI9
aI25
aI10
aI33
asVhttps://www.reddit.com/r/mathriddles/comments/31bwr3/the_magic_chessboard/
p181
(lp182
I20
aI31
aI14
aI28
aI44
aI54
aI34
aI28
aI275
aI68
aI14
asVhttps://www.reddit.com/r/sticker/comments/s633l/thanks_to_user_caseyl_for_those_dope_stickers/
p183
(lp184
I0
aI14
aI10
aI1
aI3
aI2
aI1
aI22
aI9
aI42
aI30
aI22
aI29
aI18
asVhttps://www.reddit.com/r/ffxiv/comments/1ljuxe/got_in/
p185
(lp186
I11
aI14
aI9
aI2
aI8
aI16
aI6
aI18
aI2
aI29
aI43
aI19
aI25
asVhttps://www.reddit.com/r/slashdiablo/comments/463x39/ft_crafter_pack_40_ral_40_p_amethyst/
p187
(lp188
I22
aI17
aI25
aI12
aI4
aI4
aI3
aI14
aI1
aI15
aI22
asVhttps://www.reddit.com/r/pcmasterrace/comments/2ntwgv/so_i_showed_my_mom_a_4k_resolution_tv_at_the/
p189
(lp190
I212
aI7
aI12
aI37
aI223
aI12
aI47
aI10
aI20
aI13
aI26
aI8
aI9
aI14
aI14
aI76
aI11
aI108
aI4
aI105
aI36
aI44
aI18
aI9
aI23
aI14
aI41
aI3
aI14
aI17
aI3
aI15
aI19
aI13
aI8
aI10
aI11
aI52
aI14
asVhttps://www.reddit.com/r/Steam/comments/39mnsy/non_steam_game_compatibility_with_steam_link/
p191
(lp192
I95
aI13
aI26
aI29
aI39
aI63
aI2
asVhttps://www.reddit.com/r/networking/comments/27puqu/so_what_do_you_guys_think_about_the_juniper_and/
p193
(lp194
I135
aI166
aI25
aI28
aI60
aI178
aI41
aI25
aI74
aI104
aI17
aI78
aI18
aI45
aI30
aI31
aI39
aI41
aI17
aI8
aI10
aI183
asVhttps://www.reddit.com/r/casualiama/comments/1cwgu0/i_just_want_to_be_the_center_of_attention_for_a/
p195
(lp196
I30
aI8
aI14
aI3
aI38
aI19
aI40
aI3
aI12
aI109
aI6
aI24
aI7
aI17
aI26
aI34
aI3
aI20
aI6
aI4
aI7
aI2
aI12
aI8
aI10
asVhttps://www.reddit.com/r/explainlikeimfive/comments/20hg9k/eli5_how_do_airplanes_not_show_up_everywhere_on/
p197
(lp198
I0
aI11
aI50
asVhttps://www.reddit.com/r/buildapcforme/comments/4bslx4/hey_all_i_require_assistance_in_upgradingbuilding/
p199
(lp200
I633
aI454
aI80
aI313
aI73
aI14
aI117
aI237
aI9
aI9
aI24
aI3
aI31
aI21
aI6
asVhttps://www.reddit.com/r/chemistry/comments/1983z2/chemistry_work_reu_for_summer/
p201
(lp202
I84
aI91
aI33
aI111
aI29
aI96
aI85
aI35
aI41
aI28
aI42
aI24
aI8
asVhttps://www.reddit.com/r/PrettyLittleLiars/comments/3etxrj/your_friend_and_ally_the_painting_and_charles/
p203
(lp204
I143
aI89
aI78
aI46
aI47
aI26
aI11
aI52
aI51
aI61
aI12
aI18
aI19
aI85
aI26
aI11
aI50
aI66
aI13
aI19
aI11
aI62
aI26
aI11
aI22
aI27
aI24
asVhttps://www.reddit.com/r/lgg2/comments/37u2c4/wifi_cant_go_above_42_mbit/
p205
(lp206
I1
aI54
aI34
aI56
aI41
aI29
aI21
aI19
asVhttps://www.reddit.com/r/leagueoflegends/comments/28ww7w/tips_on_how_to_play_against_fiora/
p207
(lp208
I22
aI27
aI102
aI24
aI57
aI5
aI56
aI48
aI117
asVhttps://www.reddit.com/r/leagueoflegends/comments/1pfegm/drop_the_d1bomb_and_get_1k_karma/
p209
(lp210
I129
aI62
aI34
aI27
aI31
aI147
aI52
aI75
aI56
asVhttps://www.reddit.com/r/relationship_advice/comments/i37nf/2_year_dating_anniversary_coming_up_yet_im_going/
p211
(lp212
I128
aI58
aI39
aI33
aI123
aI47
aI130
aI61
asVhttps://www.reddit.com/r/madisonwi/comments/3c6y6y/weekly_catchall_july_05_2015/
p213
(lp214
I467
aI9
aI19
aI24
aI28
aI162
aI236
aI28
aI35
aI36
aI12
aI3
aI12
aI10
aI2
aI11
aI31
aI5
aI42
aI1
aI41
aI118
asVhttps://www.reddit.com/r/AskReddit/comments/1at5ow/what_book_do_you_think_is_beautifully_written/
p215
(lp216
I25
aI7
aI27
aI14
aI81
aI7
aI25
aI19
aI20
aI47
aI2
aI13
aI2
aI6
aI5
aI4
aI4
aI13
asVhttps://www.reddit.com/r/starcraft/comments/2nej87/anybody_from_logitech_g_or_myi_here/
p217
(lp218
I74
aI20
aI1
aI3
aI3
aI4
aI8
aI17
aI14
asVhttps://www.reddit.com/r/feedthebeast/comments/2xpngt/help_me_i_just_want_to_find_an_origin_valley/
p219
(lp220
I54
aI21
aI86
aI91
aI8
aI23
aI44
aI6
aI31
aI11
asVhttps://www.reddit.com/r/WouldYouRather/comments/2fcldn/wyr_always_have_a_wasp_within_15_feet_of_you_or/
p221
(lp222
I0
aI49
aI26
aI55
aI20
aI10
aI18
aI21
aI34
aI11
aI36
aI16
aI26
aI20
aI35
aI62
aI18
aI17
aI64
aI43
aI5
aI5
aI41
aI51
aI48
aI77
aI14
aI1
aI11
aI16
aI16
aI4
aI13
aI91
aI22
aI28
aI9
aI67
aI68
asVhttps://www.reddit.com/r/minecraftsuggestions/comments/4lkmjl/named_items_dont_despawn/
p223
(lp224
I0
aI12
aI48
aI23
aI175
aI15
aI31
aI16
aI37
aI33
aI156
asVhttps://www.reddit.com/r/PS3/comments/1p0pwq/how_can_i_listen_to_game_audio_with_bluetooth/
p225
(lp226
I83
aI39
aI13
aI49
aI43
aI61
aI9
aI6
aI11
asVhttps://www.reddit.com/r/bakchodi/comments/1ewiap/saar_muslims_suxxawar_gr8_nation_belaang_2/
p227
(lp228
I18
aI8
aI14
aI12
aI7
aI65
aI77
aI121
aI4
aI6
aI36
aI2
aI31
aI8
aI15
aI36
aI7
asVhttps://www.reddit.com/r/stopdrinking/comments/221tiw/well_this_might_be_it_about_to_hit_bottom_bottom/
p229
(lp230
I310
aI118
aI26
aI125
aI35
aI198
aI53
aI37
aI53
aI33
aI16
aI57
aI37
aI244
aI21
aI129
aI39
aI33
aI71
aI63
aI44
aI44
aI34
aI70
aI78
aI29
aI59
aI77
aI49
aI14
aI63
aI3
aI110
aI58
aI30
aI30
asVhttps://www.reddit.com/r/dreamcast/comments/4f3yct/mod_request/
p231
(lp232
I189
aI75
aI12
aI88
aI23
aI22
aI10
asVhttps://www.reddit.com/r/LetsNotMeet/comments/1m7acm/how_my_dad_convinced_me_never_to_hitchhike/
p233
(lp234
I488
aI12
aI15
aI26
aI38
aI47
aI26
aI9
aI60
aI7
aI10
aI42
aI3
aI3
aI97
aI95
aI18
aI12
aI6
aI18
aI32
aI19
aI14
aI9
aI56
aI4
aI30
aI30
aI27
asVhttps://www.reddit.com/r/steroids/comments/1mpn03/lab_results_baseline_can_you_interpret_if_okay/
p235
(lp236
I102
aI7
aI91
aI40
aI59
aI28
asVhttps://www.reddit.com/r/NHLHUT/comments/3ybp3f/mov_kreider_vs_thornton_upgrade_possibility/
p237
(lp238
I70
aI6
aI40
aI9
aI11
aI16
aI24
aI9
aI11
aI13
aI32
aI31
aI2
aI14
aI19
aI23
asVhttps://www.reddit.com/r/ecigclassifieds/comments/250bpe/mvp_v2/
p239
(lp240
I7
aI31
aI14
aI26
aI9
aI8
aI9
asVhttps://www.reddit.com/r/saplings/comments/3c2666/advice_acquiring_dealerpickup/
p241
(lp242
I101
aI23
aI40
aI168
aI67
aI59
aI25
aI123
aI54
aI60
aI22
aI34
aI67
aI26
aI27
aI29
aI75
asVhttps://www.reddit.com/r/AskReddit/comments/whdiq/is_admiring_someone_off_facebook_creepy/
p243
(lp244
I232
aI18
aI32
aI53
aI33
aI19
aI42
aI71
aI56
aI77
aI46
aI45
asVhttps://www.reddit.com/r/TumblrInAction/comments/2kc134/a_lesson_in_sjw_biology/
p245
(lp246
I0
aI32
aI147
aI30
aI12
aI132
aI39
aI51
aI8
aI16
aI5
aI3
aI23
aI11
aI47
aI68
aI31
aI66
aI53
aI14
aI10
aI74
aI61
aI86
aI12
aI31
aI4
aI33
aI15
aI18
aI25
aI72
aI8
aI362
aI8
aI120
aI5
aI214
aI29
aI33
asVhttps://www.reddit.com/r/wow/comments/4i28qi/your_game_account_showing_korea_kr_account/
p247
(lp248
I144
aI42
aI30
aI11
aI47
aI51
aI30
aI12
asVhttps://www.reddit.com/r/rupaulsdragrace/comments/36xmbc/now_that_the_duggars_are_off_tlc_maybe_rdr_can/
p249
(lp250
I9
aI5
aI7
aI5
aI1
aI14
aI7
aI59
aI3
aI13
aI15
aI24
aI12
aI22
aI8
asVhttps://www.reddit.com/r/prowrestling/comments/jos4q/is_the_money_in_the_bank_briefcase_really_a_good/
p251
(lp252
I337
aI23
aI44
aI118
aI284
aI50
aI58
aI104
aI33
aI25
aI128
aI75
aI15
aI27
aI36
aI28
aI76
aI77
aI54
aI41
aI23
aI175
aI32
aI21
aI19
asVhttps://www.reddit.com/r/DestinyTheGame/comments/2qkek2/explaining_destiny_to_your_so_parents/
p253
(lp254
I270
aI47
aI38
aI12
aI18
aI48
aI41
aI12
aI26
aI159
aI30
aI18
aI73
aI1
aI65
asVhttps://www.reddit.com/r/britishproblems/comments/4ilzux/this_very_british_problems_tv_program_is_shit/
p255
(lp256
I15
aI29
aI21
aI4
aI18
aI18
aI26
aI12
aI14
aI19
aI2
aI8
aI13
aI19
aI31
aI33
aI36
aI1
aI77
aI19
aI24
aI18
aI21
aI10
aI8
aI12
aI26
aI9
aI47
aI52
aI4
aI7
aI12
aI14
aI14
aI9
aI5
aI1
aI19
aI2
asVhttps://www.reddit.com/r/politics/comments/hoxjn/ok_downvote_if_this_is_stupid_but_i_do_it_to/
p257
(lp258
I113
aI16
aI86
aI8
aI60
aI59
aI44
aI24
aI69
aI101
aI69
aI17
asVhttps://www.reddit.com/r/depression/comments/4lm0xz/you_know_you_live_a_sad_existence_when/
p259
(lp260
I65
aI54
aI34
aI5
aI33
aI31
aI47
aI10
aI17
aI11
aI22
aI6
aI30
aI15
aI28
aI124
aI9
aI7
aI18
aI28
aI18
aI13
aI1
aI78
aI167
aI27
aI24
aI44
aI27
aI30
aI17
aI10
aI19
aI32
aI10
aI12
aI38
aI41
asVhttps://www.reddit.com/r/XMenRP/comments/2e8gmj/dinner_218/
p261
(lp262
I60
aI17
aI42
aI12
aI6
aI9
aI22
aI11
aI8
aI2
aI4
aI6
aI3
aI39
aI9
aI5
aI7
aI5
aI4
aI14
aI1
aI7
aI4
aI4
aI3
aI52
aI8
aI3
aI8
aI12
aI6
aI7
aI3
aI42
aI14
aI6
aI5
aI10
aI9
aI78
aI37
asVhttps://www.reddit.com/r/pcmasterrace/comments/35uz52/i_dont_play_by_your_surround_rules_nvidia/
p263
(lp264
I0
aI14
aI4
aI9
aI7
aI31
aI26
aI2
aI28
aI10
aI2
aI24
aI5
aI46
aI12
aI93
aI41
aI17
aI13
aI97
aI6
aI35
aI44
aI9
aI30
aI6
aI26
aI17
aI24
aI2
asVhttps://www.reddit.com/r/CrusaderKings/comments/2vxvko/question_on_culture_conversion_english_culture/
p265
(lp266
I36
aI29
aI28
aI44
aI5
aI53
aI43
asVhttps://www.reddit.com/r/buildapc/comments/3amzre/build_ready_second_build_woo/
p267
(lp268
I530
aI12
aI40
aI27
aI24
aI29
aI24
aI4
aI21
aI24
aI22
aI28
aI27
aI16
aI27
aI7
aI108
aI7
aI5
aI9
aI20
aI34
asVhttps://www.reddit.com/r/running/comments/oclfu/been_running_for_3_months_little_or_no_progress/
p269
(lp270
I146
aI33
aI63
aI196
aI298
aI67
aI21
aI98
aI19
aI47
aI43
aI14
aI18
aI39
aI37
aI16
aI20
aI102
aI109
aI283
aI32
aI21
aI32
aI3
aI121
aI35
aI41
aI42
aI234
aI192
aI276
aI319
aI92
aI51
aI28
aI31
aI21
asVhttps://www.reddit.com/r/WhoWouldWinVerse/comments/4cbyp5/super_tantrum/
p271
(lp272
I82
aI32
aI11
aI40
aI23
aI44
aI21
aI20
aI10
aI26
aI57
aI41
aI23
aI41
aI25
aI18
aI8
aI24
aI31
aI83
aI32
aI12
aI9
aI11
aI10
aI23
aI62
aI37
aI54
aI13
aI32
aI37
aI48
aI33
aI37
aI17
aI12
aI29
aI55
aI28
aI53
asVhttps://www.reddit.com/r/Fitness/comments/yogjv/hello_fittit_i_am_looking_for_advice_on_weight/
p273
(lp274
I510
aI22
aI285
aI128
aI25
aI24
aI18
aI17
aI10
aI50
aI38
aI7
asVhttps://www.reddit.com/r/cpp_questions/comments/2k6wa6/fsteam_think/
p275
(lp276
I195
aI32
aI66
aI31
aI13
aI13
aI4
aI10
aI11
aI45
aI23
aI5
asVhttps://www.reddit.com/r/techsupport/comments/2gbg5d/how_can_i_boot_my_pc_into_bios/
p277
(lp278
I47
aI6
aI32
aI17
aI24
aI20
aI8
aI2
asVhttps://www.reddit.com/r/diablo3/comments/2r147m/i_feel_like_i_really_suck/
p279
(lp280
I22
aI23
aI35
aI27
aI4
aI39
aI61
aI11
aI14
aI11
aI164
asVhttps://www.reddit.com/r/truegaming/comments/3icl63/jrpgs_of_the_type_popular_in_the_late_90s_and/
p281
(lp282
I1257
aI109
aI63
aI192
aI240
aI68
aI303
aI151
aI93
aI52
aI119
aI164
aI125
aI107
aI25
aI81
aI131
aI17
aI158
aI19
aI56
aI45
aI29
aI12
aI504
aI115
aI6
aI31
aI37
aI12
aI125
aI66
aI45
aI153
aI149
aI41
aI58
aI303
aI337
aI65
aI109
asVhttps://www.reddit.com/r/xboxone/comments/3795w4/due_to_winning_your_xbox_live_reputation_has/
p283
(lp284
I163
aI12
aI57
aI20
aI21
aI74
aI35
aI157
aI1
aI13
aI97
aI71
aI14
aI14
aI24
aI1
aI37
aI36
aI27
aI81
aI43
aI37
aI13
aI25
aI12
asVhttps://www.reddit.com/r/cigars/comments/q2q03/could_use_some_help_remembering_an_old_fav/
p285
(lp286
I90
aI67
aI19
aI32
aI19
aI25
asVhttps://www.reddit.com/r/buildapc/comments/2akgqz/discussion_non_modular_psus/
p287
(lp288
I40
aI26
aI47
aI33
aI75
aI8
aI7
aI25
aI59
aI28
aI7
aI17
aI19
aI28
aI12
aI29
aI53
aI41
aI59
asVhttps://www.reddit.com/r/pathofexile/comments/1906i8/login_screen_lags_me_bad_any_way_to_fix_this/
p289
(lp290
I14
aI8
aI44
aI30
aI8
aI5
aI6
asVhttps://www.reddit.com/r/buildapc/comments/2z15gi/troubleshooting_im_on_the_verge_of_a_mental/
p291
(lp292
I83
aI27
aI30
aI29
aI27
aI28
aI68
aI125
aI81
aI56
aI74
aI10
aI119
asVhttps://www.reddit.com/r/roguelikes/comments/4im8e6/dcss_need_help_with_my_2rune_mibe/
p293
(lp294
I237
aI300
aI192
aI45
aI57
aI160
aI122
aI225
aI338
aI145
aI8
aI96
aI33
aI43
asVhttps://www.reddit.com/r/personalfinance/comments/2yabw2/just_got_hired_at_my_first_jobwhat_should_i_know/
p295
(lp296
I89
aI176
aI11
aI164
aI122
aI195
aI39
aI39
aI74
aI18
aI91
aI22
aI32
aI11
aI9
aI17
aI61
aI24
aI16
aI17
aI5
aI30
aI10
aI7
aI93
aI34
aI37
aI1
aI24
aI41
aI11
asVhttps://www.reddit.com/r/wardrobepurge/comments/29up04/sell_dresses_shoes_and_tops_sizes_xss/
p297
(lp298
I77
aI34
aI9
aI14
aI6
aI52
aI11
aI2
asVhttps://www.reddit.com/r/dogecoin/comments/2pic6g/help_my_broken_wallet_cant_update/
p299
(lp300
I53
aI6
aI23
aI304
aI159
aI14
aI14
aI12
aI35
aI14
aI4
aI42
aI19
aI26
aI8
aI5
aI5
asVhttps://www.reddit.com/r/heroesofthestorm/comments/3dx6rs/somethings_odd_about_the_map_rotation/
p301
(lp302
I43
aI19
aI14
aI12
aI23
aI92
aI19
aI11
aI1
aI37
aI91
aI24
aI50
aI22
aI20
aI221
asVhttps://www.reddit.com/r/wheelanddeal/comments/28px2z/ps3_ng_15m/
p303
(lp304
I50
aI21
aI14
aI115
aI25
aI94
aI15
aI36
aI5
aI17
aI5
asVhttps://www.reddit.com/r/jailbreak/comments/2ljviy/my_remaining_jailbreak_issues_care_to_help_out_if/
p305
(lp306
I423
aI53
aI27
aI135
aI380
aI159
aI20
aI52
aI18
aI179
aI1
aI11
aI24
aI23
asVhttps://www.reddit.com/r/DestinyTheGame/comments/2x8l5o/suggestion_an_exotic_vendor_not_xur/
p307
(lp308
I285
aI17
aI36
aI17
aI54
aI87
aI25
aI43
aI16
aI53
aI53
aI31
aI19
aI55
aI86
aI74
aI174
aI89
aI240
asVhttps://www.reddit.com/r/Drugs/comments/3fludd/curious_what_every_bodies_personal_relationship/
p309
(lp310
I56
aI24
aI94
aI22
aI6
aI37
aI58
aI95
aI25
aI12
aI26
aI199
aI41
aI57
aI37
aI99
aI32
aI42
aI1
aI100
aI73
aI13
aI2
aI25
aI18
aI38
aI22
aI58
aI434
aI14
aI3
aI35
aI1
aI33
aI125
aI13
aI52
aI8
aI19
aI74
aI15
asVhttps://www.reddit.com/r/legaladvice/comments/2hk56h/federal_production_of_child_pornography_charge/
p311
(lp312
I128
aI64
aI58
aI91
aI59
aI140
aI163
aI34
aI58
aI27
aI65
aI78
aI51
aI13
asVhttps://www.reddit.com/r/puns/comments/1zts00/a_friend_and_i_were_talking_about_a_book/
p313
(lp314
I0
aI5
aI3
aI33
aI5
aI18
aI38
aI10
asVhttps://www.reddit.com/r/coolermaster/comments/1h30gi/is_there_a_program_for_controlling_fan_speeds_for/
p315
(lp316
I37
aI7
aI78
aI100
aI66
aI41
aI14
aI15
asVhttps://www.reddit.com/r/matheducation/comments/4iuuvh/i_have_a_simple_math_question_and_dont_know_where/
p317
(lp318
I45
aI43
aI8
aI86
aI26
aI75
aI52
aI44
aI134
aI14
aI7
aI104
aI1
aI25
aI11
aI11
aI27
asVhttps://www.reddit.com/r/Rainbow6/comments/4daitq/psa_if_you_keep_receiving_connection_error_switch/
p319
(lp320
I53
aI12
aI14
aI36
aI17
aI17
aI18
aI11
aI8
aI123
aI43
aI42
aI117
aI94
aI222
aI212
asVhttps://www.reddit.com/r/findareddit/comments/1k8z3n/a_subreddit_to_ask_about_how_it_is_to_work_at_a/
p321
(lp322
I30
aI29
aI11
aI10
aI80
aI58
aI33
aI29
aI31
asVhttps://www.reddit.com/r/thedivision/comments/4ce834/got_dz50_already_have_a_number_of_best_in_class/
p323
(lp324
I111
aI88
aI26
aI20
aI15
aI155
aI42
aI52
aI81
aI51
aI2
aI15
aI20
aI1
aI7
aI16
aI16
aI41
aI43
aI39
asVhttps://www.reddit.com/r/whowouldwin/comments/27m29d/tug_of_war_magneto_vs_luke_skywalker/
p325
(lp326
I27
aI117
aI44
aI16
aI65
aI58
aI13
aI27
aI10
aI186
aI26
aI27
aI43
aI165
aI20
aI7
aI20
aI13
aI33
aI10
aI41
aI48
aI7
aI43
aI2
aI27
aI10
aI9
aI1
asVhttps://www.reddit.com/r/DestinyTheGame/comments/3gm2hw/prison_of_elders_retirement_home/
p327
(lp328
I73
aI45
aI48
aI12
aI45
aI62
aI9
aI177
aI20
aI46
aI18
aI12
aI36
aI14
aI10
aI5
aI10
aI8
aI13
aI8
aI8
aI1
aI1
aI12
aI15
aI7
aI11
aI3
aI28
aI2
aI8
aI2
aI7
aI7
aI9
aI12
aI8
aI4
aI11
aI8
aI10
asVhttps://www.reddit.com/r/atheism/comments/dv7d6/need_some_help_here/
p329
(lp330
I19
aI14
aI165
aI4
aI86
aI24
aI35
aI51
aI7
aI10
asVhttps://www.reddit.com/r/createthisworld/comments/4gaaqg/the_outcast_legions_of_vord/
p331
(lp332
I659
aI24
aI69
aI30
aI7
aI32
aI37
aI12
aI12
aI86
aI20
aI18
asVhttps://www.reddit.com/r/YGOBinders/comments/498ado/dave_dzs_trade_binder_h_ulti_effect_veilers/
p333
(lp334
sVhttps://www.reddit.com/r/dayz/comments/11ebf0/been_on_an_extended_dayz_break_where_do_you_get/
p335
(lp336
I0
aI23
aI14
aI33
aI3
aI2
asVhttps://www.reddit.com/r/bleach/comments/16xgg2/reading_chap_510_and_we_saw_as_nodt_steal/
p337
(lp338
I49
aI28
aI41
aI30
aI46
aI18
aI35
aI24
aI13
aI21
aI4
aI18
aI9
asVhttps://www.reddit.com/r/rockhounds/comments/rytez/getting_ready_for_the_spring_show/
p339
(lp340
I94
aI5
aI12
aI25
aI18
aI24
aI11
asVhttps://www.reddit.com/r/civ/comments/1ku71e/warmonger_changes_id_like_to_see/
p341
(lp342
I214
aI16
aI5
aI33
aI24
aI8
asVhttps://www.reddit.com/r/relationships/comments/2192js/i_f22_want_to_move_back_home_to_europe_in_the/
p343
(lp344
I502
aI164
aI31
aI67
aI123
aI22
aI218
aI228
aI7
aI37
aI55
aI36
aI107
aI37
aI72
aI12
aI151
asVhttps://www.reddit.com/r/bourbon/comments/20zo93/what_would_be_the_difference_in_taste_between_a/
p345
(lp346
I54
aI21
aI45
aI7
aI34
aI131
aI25
aI83
aI59
aI19
aI6
aI20
aI51
aI19
aI17
aI17
aI36
aI117
aI72
aI11
aI12
aI114
aI39
aI48
aI34
aI142
aI63
aI206
aI129
aI168
asVhttps://www.reddit.com/r/buildapc/comments/2akcng/build_ready_ready_to_go_for_it_looking_for/
p347
(lp348
I274
aI27
aI33
aI16
aI10
aI13
aI4
aI426
aI21
asVhttps://www.reddit.com/r/skyrimmods/comments/1kqg1q/looking_for_some_clarification/
p349
(lp350
I112
aI107
aI62
aI53
aI110
aI75
aI105
aI42
aI9
asVhttps://www.reddit.com/r/mwo/comments/45ts2g/i_get_an_error_anytime_i_change_settings_please/
p351
(lp352
I1
aI53
aI37
aI18
aI26
aI23
aI46
asVhttps://www.reddit.com/r/DuelingCorner/comments/topeg/the_rematch_of_gallantgunslinger_and/
p353
(lp354
I73
aI85
aI18
aI30
aI74
aI57
aI16
aI26
aI14
aI68
aI36
asVhttps://www.reddit.com/r/relationship_advice/comments/38ciyx/about_my_fwb_24m_and_myself_19f_i_need_advice/
p355
(lp356
I1334
aI37
aI21
aI81
aI42
aI32
aI89
aI319
aI45
asVhttps://www.reddit.com/r/saskatoon/comments/wg40d/cyclists_looking_for_shelter/
p357
(lp358
I92
aI34
aI9
aI9
aI41
aI10
aI38
aI46
aI44
aI21
aI18
aI12
asVhttps://www.reddit.com/r/GirlGamers/comments/38qj9l/what_would_you_do_if_bethesda_used_the_female/
p359
(lp360
I20
aI96
aI1
aI9
aI34
aI53
aI21
aI13
aI48
aI77
aI56
aI37
aI125
aI10
aI23
aI6
aI54
aI37
aI284
aI2
aI89
aI72
aI10
aI4
aI37
aI18
aI36
aI18
aI86
aI22
aI6
aI6
aI17
aI20
aI99
aI3
aI67
aI8
aI30
aI10
aI67
asVhttps://www.reddit.com/r/googleglass/comments/1s3iaf/glass_question_left_eye_dominant/
p361
(lp362
I1
aI102
aI65
aI69
aI28
aI38
aI18
aI36
aI24
asVhttps://www.reddit.com/r/MonsterHunter/comments/1wo0zc/any_news_on_monhun_4s_weapon_mechanics/
p363
(lp364
I47
aI392
aI147
aI47
aI21
aI43
aI22
aI15
aI29
aI32
aI175
aI11
aI36
aI15
aI19
aI13
aI39
aI17
aI29
asVhttps://www.reddit.com/r/TheWitness/comments/49uqyv/spoilers_can_i_just_whine_about_the_shipwreck_for/
p365
(lp366
I265
aI49
aI77
aI62
aI100
aI136
aI6
aI32
aI106
aI68
aI13
aI118
aI51
aI36
aI24
aI36
aI16
aI76
aI95
aI37
aI6
aI130
aI74
aI59
aI56
aI24
aI37
aI54
asVhttps://www.reddit.com/r/Insurance/comments/430kqh/will_my_rate_go_up_for_failure_to_obey_control/
p367
(lp368
I73
aI44
aI33
aI63
aI85
aI74
aI65
aI44
asVhttps://www.reddit.com/r/makemychoice/comments/1x27uj/should_i_smoke_another_bowl_and_stay_up_watching/
p369
(lp370
I0
aI7
aI8
aI8
aI12
aI15
aI41
aI10
aI13
aI13
aI4
aI11
aI6
aI1
aI22
aI26
aI5
aI21
aI6
aI8
aI1
aI6
aI11
aI4
aI22
aI6
aI4
aI36
aI19
aI5
aI7
aI14
aI18
aI6
aI20
aI1
aI25
aI50
aI26
aI2
aI50
asVhttps://www.reddit.com/r/MonsterHunter/comments/2xll8o/when_do_weapons_show_up_at_the_blacksmith_for_the/
p371
(lp372
I38
aI27
aI7
aI72
aI21
aI11
aI34
aI21
aI16
aI35
aI13
asVhttps://www.reddit.com/r/talesfromtechsupport/comments/3cl41f/can_you_please_open_this_backpack/
p373
(lp374
I599
aI20
aI15
aI23
aI17
aI1
aI7
aI15
aI11
aI17
aI27
aI28
aI6
aI33
aI2
aI32
aI7
aI32
aI23
aI7
aI23
aI5
aI42
aI5
aI20
asVhttps://www.reddit.com/r/trees/comments/o4xpj/my_friend_said_to_me_you_only_enjoy_smoking_trees/
p375
(lp376
I0
aI38
aI14
aI122
aI117
aI69
aI86
aI44
aI23
asVhttps://www.reddit.com/r/Aquariums/comments/2uesut/whats_the_name_of_your_lfs_in_your_home_town/
p377
(lp378
I23
aI32
aI11
aI10
aI6
aI8
aI98
aI3
aI24
aI2
aI11
aI10
aI17
aI131
aI28
aI23
aI19
aI25
aI35
aI10
aI5
aI5
aI5
aI27
aI103
aI50
aI16
aI6
aI15
aI37
aI9
aI14
aI16
aI10
aI19
asVhttps://www.reddit.com/r/iOSthemes/comments/2hnyrw/lbi_signalwifi_revamp/
p379
(lp380
I172
aI13
aI72
aI44
aI9
aI12
aI31
aI82
aI13
aI6
aI25
aI5
aI21
aI42
aI7
aI14
aI15
aI16
aI14
aI22
aI13
aI8
aI10
aI10
aI17
aI2
aI37
aI12
aI2
aI10
asVhttps://www.reddit.com/r/starcraft/comments/h2fnl/there_are_32966_people_here_on_starcraftthats/
p381
(lp382
I53
aI7
aI101
aI32
aI5
aI25
aI12
aI17
aI3
aI18
aI15
aI24
aI7
aI7
aI7
aI23
aI17
aI13
aI11
aI21
aI18
aI19
aI18
aI15
aI4
aI18
aI29
aI6
aI21
aI6
aI10
aI33
aI5
aI2
aI8
aI16
aI9
aI6
aI2
aI11
aI18
asVhttps://www.reddit.com/r/chelseafc/comments/334gki/hazard_chant/
p383
(lp384
I20
aI14
aI8
aI4
asVhttps://www.reddit.com/r/starcraft/comments/1fmdyr/age_versus_race_frequency_data_collection_project/
p385
(lp386
I329
aI149
aI7
aI24
aI12
aI40
aI3
aI14
aI58
aI8
aI68
aI6
aI13
aI3
aI10
aI39
aI144
aI21
aI9
aI6
aI10
aI17
aI5
aI29
aI27
aI24
aI44
aI35
aI41
aI57
aI12
aI4
asVhttps://www.reddit.com/r/AskReddit/comments/18fazr/what_made_you_smile_today/
p387
(lp388
I0
aI29
aI69
aI40
aI18
aI25
aI47
aI15
aI29
aI14
aI14
aI33
aI28
aI14
aI26
aI8
aI8
aI4
aI3
aI4
aI24
aI16
aI9
aI12
aI9
aI42
aI5
aI14
aI69
asVhttps://www.reddit.com/r/Silverbugs/comments/4dxoc2/mexican_coin_broker/
p389
(lp390
I5
aI11
aI9
aI7
aI17
aI2
aI34
aI2
aI26
aI6
asVhttps://www.reddit.com/r/bicycling/comments/1rvzzc/carbon_carbon_every_last_part_is_carbon_lunch/
p391
(lp392
I0
aI9
aI17
aI3
aI44
aI23
aI36
aI18
aI1
aI34
aI20
aI52
aI26
aI46
aI26
aI145
aI5
asVhttps://www.reddit.com/r/watch_dogs/comments/286hh6/what_would_you_like_to_see_a_watch_dogs_sequel/
p393
(lp394
I348
aI119
aI10
aI7
aI90
aI15
aI108
aI32
aI28
aI18
aI14
aI424
aI15
aI25
aI82
aI93
aI112
aI132
aI21
aI48
asVhttps://www.reddit.com/r/chicagor4r/comments/2v35ji/29_m4r_drinks_sometime_video_games_lisle_il/
p395
(lp396
I80
aI62
aI39
aI221
aI140
aI266
aI35
asVhttps://www.reddit.com/r/techsupport/comments/32pppl/ide_hdd_not_detected_by_bios_but_is_detected_in/
p397
(lp398
I141
aI34
aI40
aI40
aI15
aI74
aI42
aI35
aI6
asVhttps://www.reddit.com/r/WildernessBackpacking/comments/3f5pai/transitioning_from_day_hikes_to_backpackingcamping/
p399
(lp400
I167
aI22
aI72
aI92
aI65
aI164
aI33
aI49
aI96
aI70
aI114
aI89
aI33
aI168
aI49
aI15
aI44
aI17
aI61
aI2
aI18
aI24
aI200
aI130
aI9
aI22
aI9
asVhttps://www.reddit.com/r/facepalm/comments/2r297y/can_someone_please_tell_lindsay_lohan_what_year/
p401
(lp402
I0
aI16
aI7
aI4
aI6
aI11
aI8
aI7
aI28
aI11
aI13
aI8
aI13
aI26
aI3
aI12
aI10
aI18
aI3
aI10
aI2
aI3
aI6
aI22
aI7
aI12
aI8
aI5
aI13
aI10
aI40
aI9
aI10
aI2
aI24
aI16
aI12
aI8
aI54
asVhttps://www.reddit.com/r/sto/comments/4fkz4t/finding_the_istaap_for_an_accolade/
p403
(lp404
I33
aI31
aI43
aI25
aI2
aI30
aI8
aI25
aI47
aI25
asVhttps://www.reddit.com/r/AskLEO/comments/38x3zt/cbp_officer_entrance_exam_questions/
p405
(lp406
I55
aI13
aI6
aI26
aI1
aI5
asVhttps://www.reddit.com/r/mac/comments/2qkixq/buying_13_rmbp_question_about_ssd/
p407
(lp408
I73
aI18
aI68
aI169
aI32
aI14
aI17
aI27
aI46
asVhttps://www.reddit.com/r/leagueoflegends/comments/2tbcqv/why_is_there_no_mana_biscuit_id_love_to_have_one/
p409
(lp410
I39
aI15
aI20
aI2
aI11
aI38
aI9
aI15
aI15
asVhttps://www.reddit.com/r/vegan/comments/4gvirz/help_me_out_guys_is_this_vegan_nesquik_powder/
p411
(lp412
I64
aI6
aI2
aI19
aI22
aI11
aI32
aI7
asVhttps://www.reddit.com/r/techsupport/comments/30ubu9/browser_speed_at_253_mbit_steam_and_torrents_at/
p413
(lp414
I16
aI18
aI17
aI3
aI26
aI43
aI36
asVhttps://www.reddit.com/r/knitting/comments/1rm8ln/advice_on_what_increasedecrease_to_use/
p415
(lp416
I71
aI30
aI22
aI13
aI4
aI4
asVhttps://www.reddit.com/r/fountainpens/comments/22cry1/new_toy_from_pen_place_in_kc/
p417
(lp418
I81
aI7
aI53
aI13
aI20
aI14
aI28
aI42
aI51
aI24
aI20
aI11
aI73
aI16
aI40
aI15
aI23
aI32
aI21
aI18
aI25
aI3
aI35
asVhttps://www.reddit.com/r/flextweak/comments/1tsnm7/requesting_youtube_tutorials/
p419
(lp420
I61
aI6
aI11
aI4
aI25
aI12
aI19
aI54
aI50
aI8
aI26
aI57
aI19
aI4
asVhttps://www.reddit.com/r/wow/comments/2dxx0b/looking_for_healthy_alliance_favored_pve_servers/
p421
(lp422
I62
aI14
aI3
aI15
aI10
aI44
aI61
aI10
asVhttps://www.reddit.com/r/TheNarutoWorld/comments/1wqxyy/looking_for_information_on_taro/
p423
(lp424
I23
aI16
aI11
aI13
aI7
aI14
aI16
aI14
aI27
aI19
aI21
aI12
aI9
aI32
aI8
aI8
aI17
aI4
aI35
aI25
aI29
aI35
aI25
aI15
aI9
aI23
aI6
aI12
aI10
aI18
aI12
aI17
aI17
aI6
aI16
aI8
aI10
aI5
aI21
aI10
aI30
asVhttps://www.reddit.com/r/Cooking/comments/1noffg/what_kinds_of_panspots_for_what_kind_of_dishes/
p425
(lp426
I90
aI263
aI75
aI80
aI34
aI157
aI42
aI18
aI148
aI42
aI98
aI137
aI84
aI439
aI38
asVhttps://www.reddit.com/r/wiiu/comments/1wgjnx/is_it_possible_from_turning_the_wiiu_on_to_play/
p427
(lp428
I105
aI86
aI128
aI23
aI22
aI11
aI36
aI14
aI42
aI32
aI42
aI5
aI14
aI9
aI16
aI56
aI48
aI7
aI15
aI1
aI10
aI6
aI30
aI146
aI62
aI1
aI14
asVhttps://www.reddit.com/r/nba/comments/qyvrv/as_a_warriors_fan_i_am_wary_and_certainly_hopeful/
p429
(lp430
I118
aI17
aI44
aI14
aI19
aI93
aI16
aI15
aI31
aI35
aI55
aI4
asVhttps://www.reddit.com/r/relationships/comments/447mz6/my_m22_girlfriend_f22_consistently_looks_up_her/
p431
(lp432
I1
aI43
aI16
aI26
aI8
aI15
aI1
aI36
aI1
aI14
aI55
aI31
aI14
aI31
aI6
asVhttps://www.reddit.com/r/masseffect/comments/1ddkmv/spoilers_a_crazy_theory_about_the_protheans/
p433
(lp434
I289
aI280
aI303
aI155
aI210
aI3
aI61
aI8
aI32
aI3
aI143
aI30
aI7
aI20
aI161
aI29
aI43
aI100
aI8
aI11
aI3
asVhttps://www.reddit.com/r/woodworking/comments/x8z5u/help_a_newb_understand_the_difference_between_a/
p435
(lp436
I62
aI143
aI15
aI47
aI72
aI33
aI7
aI38
aI44
asVhttps://www.reddit.com/r/RealEstate/comments/4ckzf7/fl_realty_company_wants_double_security_deposit/
p437
(lp438
I48
aI18
aI38
aI36
aI8
aI48
aI17
aI4
aI7
aI25
aI5
aI4
aI8
aI8
aI40
aI16
aI48
aI20
aI22
aI3
aI18
aI17
aI2
aI22
aI18
asVhttps://www.reddit.com/r/conspiracy/comments/2pp5gh/any_conspiracy_theorist_programmers_here_i_need/
p439
(lp440
I94
aI86
aI198
aI10
aI73
aI111
aI28
aI51
aI29
aI42
aI20
aI1
aI25
aI22
aI57
aI2
asVhttps://www.reddit.com/r/webdev/comments/3xrt8y/should_i_be_handwritting_all_my_html/
p441
(lp442
I106
aI86
aI1
aI26
aI8
aI82
aI95
aI88
aI41
aI31
aI43
aI12
aI40
aI59
aI45
aI8
aI15
aI37
aI280
aI26
aI22
asVhttps://www.reddit.com/r/letsplay/comments/39mtd7/facecam_problems_again/
p443
(lp444
I53
aI143
aI68
aI139
aI3
aI5
aI2
aI28
asVhttps://www.reddit.com/r/gaming/comments/pwodg/halo_reach_question/
p445
(lp446
I38
aI73
aI5
aI22
aI1
aI2
aI46
aI7
asVhttps://www.reddit.com/r/buildapc/comments/1slm1o/help_my_build_im_working_on_wont_post/
p447
(lp448
I1
aI12
aI5
aI1
aI14
aI1
aI1
aI3
aI65
aI132
aI19
aI57
aI1
aI29
aI19
aI1
aI21
aI38
aI23
aI1
aI25
asVhttps://www.reddit.com/r/fantasyfootball/comments/2nz95x/how_can_those_of_us_who_are_knocked_out_stay/
p449
(lp450
I32
aI26
aI17
aI21
aI45
aI35
aI26
aI35
aI15
aI57
aI67
aI46
aI72
aI4
aI5
aI89
aI94
aI79
aI12
aI47
aI11
aI6
aI2
aI15
aI4
aI14
asVhttps://www.reddit.com/r/talesfromtechsupport/comments/vz7ep/one_of_my_first_windows_97/
p451
(lp452
I272
aI21
aI10
aI50
aI7
aI15
aI20
aI7
aI21
aI1
aI71
aI1
aI36
aI10
aI29
aI7
aI11
aI21
aI11
aI36
aI22
aI10
aI21
aI30
aI8
aI18
aI14
aI2
aI2
aI15
aI27
aI17
aI3
aI4
aI17
aI1
aI8
aI16
aI5
aI8
aI5
asVhttps://www.reddit.com/r/cycling/comments/2bqd7v/hit_by_a_car_yesterday_bike_and_nerves_are_a/
p453
(lp454
I86
aI91
aI96
aI66
aI76
aI307
aI88
aI259
aI52
aI77
aI135
aI127
aI82
aI181
aI4
aI16
aI14
aI21
aI66
aI51
aI8
aI31
aI29
aI1
aI33
aI12
aI20
aI60
aI5
aI13
aI15
aI20
aI28
aI1
aI7
asVhttps://www.reddit.com/r/LawSchool/comments/2o6sio/does_anyone_have_strict_liability_tort_problems/
p455
(lp456
I23
aI16
aI32
aI24
aI72
aI21
aI29
aI38
aI29
aI25
aI107
aI338
aI72
aI21
aI32
asVhttps://www.reddit.com/r/poecilia/comments/2ic19o/how_common_are_blackchinned_livebearers/
p457
(lp458
I52
aI18
aI21
aI25
aI8
aI3
aI34
aI24
aI5
asVhttps://www.reddit.com/r/electricians/comments/3ie2sz/single_wall_outlet_failure_usa/
p459
(lp460
I136
aI98
aI11
aI131
aI24
aI14
aI17
aI6
aI45
aI7
aI17
aI39
aI16
aI45
aI82
aI31
aI8
aI10
aI22
asVhttps://www.reddit.com/r/buildmeapc/comments/4gh6bj/request_cheapish_low_mid_end_art_pc/
p461
(lp462
I256
aI4
aI333
aI58
aI29
aI500
aI12
asVhttps://www.reddit.com/r/buildapc/comments/12jo5z/troubleshooting_after_installing_video_card/
p463
(lp464
I89
aI30
aI8
aI16
aI5
aI36
aI30
aI50
aI14
asVhttps://www.reddit.com/r/Guitar/comments/n2in9/hey_rguitar_im_auditioning_for_a_music_school_in/
p465
(lp466
I69
aI315
aI10
aI21
aI39
aI79
aI5
aI12
aI81
aI32
aI123
aI44
aI32
aI89
aI15
aI28
aI40
aI22
aI2
aI313
aI79
aI22
aI11
asVhttps://www.reddit.com/r/casualiama/comments/3bna8h/we_eliminated_95_of_red_meat_from_our_diet_on_jan/
p467
(lp468
I0
aI4
aI33
aI13
aI6
aI2
aI87
aI43
aI10
aI21
aI22
aI40
aI10
aI13
aI12
asVhttps://www.reddit.com/r/discgolf/comments/2h2yo2/top_5_disc_of_all_time/
p469
(lp470
I1
aI4
aI6
aI5
aI41
aI177
aI6
aI23
aI5
aI16
aI15
aI6
aI33
aI6
aI32
aI16
aI13
aI1
aI4
aI7
aI19
aI10
aI1
aI54
aI3
aI27
aI109
aI8
aI3
aI16
aI7
aI4
aI114
aI14
aI29
aI10
aI9
aI8
aI6
asVhttps://www.reddit.com/r/mylittlepony/comments/17paj4/this_has_probably_been_asked_before_but_what_are/
p471
(lp472
I63
aI9
aI19
aI19
aI42
aI45
aI39
aI52
aI113
aI18
aI26
aI106
aI5
aI19
aI57
aI14
aI2
aI18
aI20
aI4
aI13
aI9
aI37
aI60
aI9
aI37
aI18
aI10
aI55
aI16
asVhttps://www.reddit.com/r/waterporn/comments/tiuis/river_camel_estuary_padstow_cornwall_720x540/
p473
(lp474
I0
aI24
aI27
aI17
aI30
aI7
aI47
aI7
aI8
aI54
asVhttps://www.reddit.com/r/arma/comments/1fy1xp/system_lags_after_using_thermal_imaging_for_a/
p475
(lp476
I31
aI10
aI4
aI19
aI54
aI44
aI27
aI41
aI19
aI15
aI30
asVhttps://www.reddit.com/r/pcmasterrace/comments/2fcoop/brothers_i_need_your_guidance/
p477
(lp478
I182
aI28
aI68
aI51
aI29
aI43
aI19
aI12
aI46
aI26
aI11
aI73
aI35
aI7
asVhttps://www.reddit.com/r/legaladvice/comments/20kjy9/nj_dui_last_night/
p479
(lp480
I415
aI13
aI35
aI34
aI318
aI22
aI24
aI39
aI127
aI131
aI43
aI103
asVhttps://www.reddit.com/r/flyfishing/comments/3xkx1e/end_of_the_season_in_the_black_forest_in_germany/
p481
(lp482
I0
aI11
aI22
aI8
aI25
aI27
aI15
aI60
asVhttps://www.reddit.com/r/SocialEngineering/comments/xufgo/why_you_should_check_your_flash_player_for_csrf/
p483
(lp484
I125
aI12
aI58
aI19
aI4
aI26
aI4
aI35
asVhttps://www.reddit.com/r/evolution/comments/33hwp1/evolution_of_vestigial_organs/
p485
(lp486
I62
aI188
aI152
aI111
aI11
aI156
aI68
aI89
aI151
aI148
aI31
aI91
aI168
aI98
aI97
aI7
asVhttps://www.reddit.com/r/llsif/comments/3gn1il/en_score_match_11_nico_and_jp_token_event_28/
p487
(lp488
I164
aI24
aI26
aI95
aI51
aI34
aI48
aI18
aI40
aI70
aI205
aI41
aI77
aI76
aI129
aI63
aI110
aI20
aI1
asVhttps://www.reddit.com/r/pcmasterrace/comments/3yk5oc/recently_ascended_games_are_crashing_im_lost_help/
p489
(lp490
I1
aI34
aI19
aI171
aI21
aI43
aI44
aI21
aI42
aI235
aI12
aI34
aI56
aI45
aI73
aI23
aI48
aI86
aI14
aI42
aI99
aI25
aI67
aI126
aI34
aI44
aI48
asVhttps://www.reddit.com/r/trees/comments/3d5gnu/the_future_cannabis_clubs/
p491
(lp492
I0
aI42
aI19
aI23
aI20
aI10
aI14
aI6
aI8
aI58
aI15
aI4
aI9
aI17
aI18
aI18
aI27
aI196
aI5
aI19
aI4
aI21
aI33
aI7
aI7
aI34
aI11
aI22
aI19
aI11
aI11
aI31
aI26
aI22
aI25
aI6
aI10
aI103
aI43
aI30
asVhttps://www.reddit.com/r/AskBattlestations/comments/1ywx3e/im_a_noob/
p493
(lp494
I178
aI66
aI605
aI93
aI0
aI33
aI10
aI38
aI13
aI4
aI8
aI13
asVhttps://www.reddit.com/r/Nexus5/comments/37puhp/got_my_screen_replaced_now_my_led_notification/
p495
(lp496
I53
aI57
aI13
aI30
aI18
aI44
aI32
aI39
aI53
aI15
aI2
aI47
aI28
aI24
aI22
aI15
aI20
aI15
aI88
aI10
aI12
asVhttps://www.reddit.com/r/GPGpractice/comments/4dm0g0/iso_encryption_buddy/
p497
(lp498
I26
aI34
aI132
aI1
aI7
aI14
aI14
aI4
aI1
aI8
aI43
aI8
aI2
asVhttps://www.reddit.com/r/skyrim/comments/mvega/college_of_winterhold_good_intentions_doesnt/
p499
(lp500
I49
aI26
aI49
aI18
aI37
aI119
aI11
asVhttps://www.reddit.com/r/trees/comments/3cv9po/mddcva_residents_any_clues_as_to_when_dc_will/
p501
(lp502
I24
aI29
aI51
aI46
aI25
aI49
asVhttps://www.reddit.com/r/AskHistorians/comments/3g6fd8/i_found_this_dress_at_a_thrift_store_what_era_and/
p503
(lp504
I69
aI98
aI28
aI13
aI22
aI9
aI37
aI158
aI13
asVhttps://www.reddit.com/r/wallstreetbets/comments/4cr53n/gluu_undervalued/
p505
(lp506
I64
aI45
aI42
aI25
aI63
aI9
aI27
aI6
asVhttps://www.reddit.com/r/shittyaskscience/comments/3d2o3o/if_i_have_water_in_my_ear_is_it_safe_to_listen_to/
p507
(lp508
I0
aI6
aI25
aI10
aI34
aI8
aI5
aI3
aI1
aI3
aI6
aI2
aI2
aI2
asVhttps://www.reddit.com/r/LiverpoolFC/comments/g8gde/quick_question_why_do_we_need_to_finish_5th_to/
p509
(lp510
I44
aI127
aI13
aI23
aI5
aI81
aI15
aI40
aI350
asVhttps://www.reddit.com/r/touchpad/comments/ynjp7/up_to_date_cm9_guide/
p511
(lp512
I141
aI18
aI25
aI7
aI12
aI47
aI30
aI8
aI90
aI19
asVhttps://www.reddit.com/r/hearthstone/comments/4ati4h/wow_questing_to_level_20/
p513
(lp514
I40
aI15
aI7
aI32
aI34
aI12
aI30
aI56
aI35
asVhttps://www.reddit.com/r/relationships/comments/3ymw85/how_do_i_20f_tell_my_new_boyfriend_24m_about_my/
p515
(lp516
I215
aI143
aI84
aI109
aI51
aI134
aI143
aI33
aI212
aI150
aI267
aI191
aI48
aI28
aI24
aI24
aI28
aI10
aI71
aI39
aI61
aI4
aI5
aI2
aI15
asVhttps://www.reddit.com/r/1911/comments/35igzp/help_with_a_possible_trade/
p517
(lp518
I158
aI152
aI6
aI47
aI81
aI35
aI7
aI63
asVhttps://www.reddit.com/r/explainlikeimfive/comments/1wa29o/eli5_how_does_nafta_benefit_the_countries_signed/
p519
(lp520
I53
aI24
aI50
aI184
aI54
aI38
aI37
aI3
aI4
asVhttps://www.reddit.com/r/GalaxyS3/comments/179tye/help_was_trying_to_install_cm101_when_the/
p521
(lp522
I0
aI27
aI63
aI57
aI126
aI27
aI131
aI111
aI42
aI18
aI43
aI15
aI40
aI14
aI76
aI7
aI20
asVhttps://www.reddit.com/r/buildapc/comments/41fhwr/troubleshooting_multiple_problems/
p523
(lp524
I676
aI59
aI6
aI18
aI38
aI57
aI11
asVhttps://www.reddit.com/r/DotA2/comments/46edrj/make_iron_talon_a_requirement_for_battlefurry/
p525
(lp526
I14
aI2
aI12
aI4
aI9
aI151
aI4
aI12
aI6
aI11
aI19
aI29
aI11
aI15
aI27
aI12
aI13
asVhttps://www.reddit.com/r/stalker/comments/2x1235/need_help_in_valley_of_whispers_dolina_shorohov/
p527
(lp528
I40
aI30
aI4
aI32
aI37
aI4
aI23
aI6
asVhttps://www.reddit.com/r/jailbreak/comments/qgbrz/easy_way_to_jailbreak_ipod_4g/
p529
(lp530
I35
aI17
aI22
aI28
aI4
aI40
aI11
aI35
aI15
aI6
asVhttps://www.reddit.com/r/buildapcforme/comments/26mbkn/please_help_8001100_ultra_gaminggraphic_design_pc/
p531
(lp532
I309
aI312
aI41
aI35
aI348
aI5
aI5
aI16
aI65
asVhttps://www.reddit.com/r/nyjets/comments/34g96m/predraft_lets_not_fuck_this_up_upvote_party/
p533
(lp534
I1
aI1
aI3
aI35
aI27
aI36
aI2
aI15
aI21
aI5
aI9
aI8
aI29
aI1
aI10
aI22
aI8
aI3
aI4
aI10
aI8
aI6
aI4
aI1
aI4
aI1
aI6
aI10
aI8
aI12
aI18
aI1
aI7
aI9
aI1
aI1
aI1
asVhttps://www.reddit.com/r/deadliestcatch/comments/1cj5pf/who_is_your_favorite_captain_who_is_your_least/
p535
(lp536
I21
aI32
aI100
aI5
aI49
aI16
aI15
aI65
aI14
aI58
aI7
aI14
asVhttps://www.reddit.com/r/asktrp/comments/2nd4fd/after_or_during_swallowing_the_red_pill_how_did/
p537
(lp538
I164
aI28
aI105
aI423
aI5
aI48
aI279
aI11
aI109
aI79
aI28
aI126
aI57
aI29
aI13
aI113
aI208
aI89
aI288
aI63
aI379
aI8
aI10
aI27
asVhttps://www.reddit.com/r/dndnext/comments/3xp07s/how_bad_a_low_wisdom_save/
p539
(lp540
I65
aI55
aI73
aI79
aI113
aI103
aI23
aI13
aI150
aI32
aI19
aI54
aI67
aI84
aI300
aI97
aI58
aI42
asVhttps://www.reddit.com/r/leagueoflegends/comments/2251o0/lux_skin_please_riot/
p541
(lp542
I31
aI6
aI18
aI8
aI13
aI17
aI4
aI4
aI8
aI4
asVhttps://www.reddit.com/r/truegaming/comments/1dxf7i/has_the_age_of_regular_updates_led_to_a_greater/
p543
(lp544
I0
aI133
aI112
aI156
aI49
aI374
aI93
aI30
aI614
aI185
aI87
aI63
aI37
aI25
aI20
aI22
aI61
aI88
aI12
aI81
aI110
aI131
aI105
aI82
aI55
aI93
aI30
aI125
aI145
aI43
aI26
aI61
aI191
aI37
aI13
asVhttps://www.reddit.com/r/playrust/comments/4jf2wb/a_simple_idea_to_help_improve_solo_play/
p545
(lp546
I28
aI10
aI17
aI9
aI15
aI8
asVhttps://www.reddit.com/r/elementaryos/comments/4gdsno/installing_from_usb_error/
p547
(lp548
I90
aI26
aI31
aI51
aI9
aI26
aI38
aI68
aI5
asVhttps://www.reddit.com/r/headphones/comments/2jc4ub/isolating_instruments/
p549
(lp550
I210
aI167
aI9
aI16
aI103
aI19
aI149
aI56
aI33
aI63
aI108
aI214
aI27
aI18
aI3
aI122
aI40
aI130
aI23
aI75
aI67
aI85
aI9
aI113
aI16
asVhttps://www.reddit.com/r/TalesFromRetail/comments/2fn3qz/how_my_retail_job_became_a_living_hell/
p551
(lp552
I1446
aI27
aI14
aI25
aI38
aI32
aI22
aI13
aI37
aI10
aI92
aI11
aI11
aI55
aI65
aI15
aI46
aI38
aI10
aI89
aI6
aI47
aI9
aI46
aI17
aI11
aI32
aI9
aI11
aI37
aI12
asVhttps://www.reddit.com/r/CyberSleuth/comments/4af1qy/question_about_new_game_plus/
p553
(lp554
I12
aI15
aI18
aI21
aI8
aI10
asVhttps://www.reddit.com/r/wwesupercard/comments/377ioi/log_in_bonus_is_it_the_same_for_everybody/
p555
(lp556
I48
aI64
aI34
aI65
aI106
aI28
aI60
aI19
aI23
aI38
aI49
aI15
aI17
aI78
aI39
aI153
aI68
aI39
aI70
aI165
asVhttps://www.reddit.com/r/Dogtraining/comments/236orn/any_tips_on_curbing_serious_feardefensive/
p557
(lp558
I400
aI425
aI104
aI211
aI152
aI110
aI140
aI44
aI97
aI240
aI329
aI25
aI56
aI207
aI15
aI8
aI11
asVhttps://www.reddit.com/r/resumes/comments/35g133/i_was_offered_a_job_but_the_manager_also/
p559
(lp560
I397
aI30
aI88
aI123
aI61
aI26
aI54
aI20
aI296
aI23
aI45
aI46
aI36
aI16
aI34
aI23
aI21
aI47
aI53
asVhttps://www.reddit.com/r/funkopop/comments/3ikswe/flocked_simba_available_htcom/
p561
(lp562
I0
aI62
aI16
aI7
aI5
aI18
aI2
aI23
aI60
aI18
aI6
aI44
aI8
aI21
aI17
aI13
aI32
aI18
aI33
aI30
aI18
aI19
aI2
aI7
aI36
aI5
aI14
aI13
asVhttps://www.reddit.com/r/BuildPC/comments/42yo6b/building_a_pc_for_oculus_rift/
p563
(lp564
I1
aI82
aI39
aI45
aI70
aI19
aI25
aI63
aI139
aI19
aI22
aI12
aI51
aI33
asVhttps://www.reddit.com/r/buildapc/comments/mmo8t/troubleshooting_random_hard_locks_bsods_under/
p565
(lp566
I196
aI17
aI24
aI45
aI8
aI21
asVhttps://www.reddit.com/r/peloton/comments/1ks26y/roadcc_prevuelta_standings_and_registration/
p567
(lp568
I342
aI391
aI109
aI203
aI51
aI27
aI53
aI8
aI124
aI48
aI184
aI9
aI33
aI16
aI14
aI93
aI8
aI36
aI29
aI5
aI6
aI31
aI90
aI19
aI36
aI9
aI11
aI72
aI34
aI2
aI131
aI36
asVhttps://www.reddit.com/r/truegaming/comments/10gb8n/moba_control_scheme/
p569
(lp570
I134
aI144
aI22
aI14
aI67
aI35
aI88
aI187
aI49
aI33
aI26
aI45
aI10
aI16
aI175
aI33
aI8
aI70
aI30
aI48
aI40
aI16
aI50
aI38
aI64
aI50
aI59
aI75
aI13
aI31
aI40
aI33
aI54
aI64
aI14
aI9
aI30
aI10
aI29
aI65
aI9
asVhttps://www.reddit.com/r/thedivision/comments/46jelz/is_there_a_resource_to_find_all_the_phonesintel/
p571
(lp572
I15
aI22
aI41
aI13
aI43
aI48
aI27
aI23
aI11
aI3
aI35
aI58
aI14
aI42
asVhttps://www.reddit.com/r/steroids/comments/1a95y6/understanding_testosterone_levels/
p573
(lp574
I247
aI340
aI103
aI193
aI351
aI44
aI110
aI111
aI69
aI5
aI34
aI144
aI104
asVhttps://www.reddit.com/r/FUTMobile/comments/4d7v6k/dropped_down_two_divisions_this_game_is_becoming/
p575
(lp576
I52
aI58
aI29
aI4
aI79
aI18
aI44
aI6
aI26
aI8
aI39
aI30
aI31
aI43
aI31
aI35
aI21
aI256
aI56
aI32
aI40
aI13
aI40
aI23
aI9
aI47
aI12
aI1
asVhttps://www.reddit.com/r/SRSsucks/comments/1hdosc/exposing_the_truth_about_the_ban_of_rners/
p577
(lp578
I1078
aI65
aI257
aI234
aI171
aI16
aI45
aI3
aI1
aI9
aI101
aI182
aI59
aI49
aI76
aI13
aI203
aI93
aI71
aI30
aI58
aI65
aI49
aI22
aI76
aI413
aI26
aI38
asVhttps://www.reddit.com/r/edmundm/comments/2x2sxp/host/
p579
(lp580
I72
aI2
aI12
aI6
aI7
aI6
aI2
aI3
asVhttps://www.reddit.com/r/Throwers/comments/2rn11n/beginner_fine_tuning_my_throwing/
p581
(lp582
I162
aI196
aI118
aI63
aI20
aI17
aI13
aI65
aI5
asVhttps://www.reddit.com/r/leagueoflegends/comments/1mgmh2/big_thanks_to_riot_for_getting_monte_for_analyst/
p583
(lp584
I22
aI23
aI23
aI30
aI9
aI5
aI54
aI42
aI6
aI8
aI15
aI18
aI7
aI18
aI5
aI11
aI4
aI13
aI10
aI54
aI20
aI12
aI9
aI11
aI2
aI9
aI20
aI39
aI2
aI17
aI2
aI4
aI14
aI2
aI5
aI14
aI1
aI4
aI19
aI39
aI14
asVhttps://www.reddit.com/r/dominion/comments/1yypuy/trader_question/
p585
(lp586
I58
aI28
aI172
aI50
aI197
aI48
aI148
aI81
aI68
aI117
aI1
aI53
aI5
aI117
aI95
aI183
aI59
asVhttps://www.reddit.com/r/noveltranslations/comments/406a4h/cn_heavenly_jewel_change_book_6_chapter_42_part_1/
p587
(lp588
I308
aI18
aI11
aI2
aI13
aI10
aI17
aI37
aI6
aI6
aI1
aI9
aI5
aI55
aI26
aI12
aI10
aI5
aI14
aI3
aI6
aI10
asVhttps://www.reddit.com/r/ShouldIbuythisgame/comments/4cga1r/sib_masters_of_orion_collectors_edition/
p589
(lp590
I32
aI92
aI24
aI4
aI18
aI8
aI10
aI56
aI64
aI14
aI12
aI8
aI23
aI12
aI52
aI29
asVhttps://www.reddit.com/r/MMA/comments/4jgm0c/spoilers_mostleast_surprising_fight_results/
p591
(lp592
I64
aI13
aI6
aI21
aI4
aI40
aI27
aI25
aI2
aI52
aI298
aI74
aI23
aI12
aI9
aI17
aI37
aI9
aI24
aI15
aI10
aI14
aI69
aI46
aI5
aI8
aI4
aI10
aI86
aI18
aI11
aI139
aI73
aI30
aI21
aI77
asVhttps://www.reddit.com/r/tarantulas/comments/2y2y3l/a_question_thats_been_bothering_me_about_freebies/
p593
(lp594
I43
aI42
aI143
aI64
aI115
aI108
aI4
aI12
aI19
aI50
aI29
aI50
aI39
aI18
aI29
aI19
asVhttps://www.reddit.com/r/wildwhittlers/comments/2vgpg2/im_sorry_i_know_there_are_a_lot_of_these_but_i/
p595
(lp596
I28
aI160
aI33
aI54
aI58
aI70
aI40
aI6
aI69
aI66
aI4
asVhttps://www.reddit.com/r/WildStar/comments/3yf14r/hey_so_when_i_try_to_launch_the_game_i_get_this/
p597
(lp598
I19
aI23
aI55
aI27
aI13
aI6
aI75
aI7
aI118
aI11
asVhttps://www.reddit.com/r/EliteDangerous/comments/4k7o5w/disrupt_the_neits_cg_heres_how/
p599
(lp600
I29
aI1
aI1
aI13
aI23
aI106
aI18
aI7
aI14
aI70
aI33
aI11
asVhttps://www.reddit.com/r/thedivision/comments/410gb6/level_advantage/
p601
(lp602
I68
aI37
aI15
aI33
aI8
aI45
aI49
aI17
aI67
aI52
aI15
aI25
aI23
aI5
aI23
aI38
aI1
aI19
aI41
asVhttps://www.reddit.com/r/techsupport/comments/2s1gkg/help_recovering_drive_data_from_img_file/
p603
(lp604
I187
aI31
aI7
aI224
aI25
aI204
aI74
aI26
aI109
aI27
aI24
aI29
aI72
aI34
aI161
aI195
asVhttps://www.reddit.com/r/conlangs/comments/3c5j1o/presenting_ixikyinn_my_first_conlang/
p605
(lp606
I561
aI94
aI27
aI32
aI26
aI28
aI126
aI17
aI43
aI48
aI33
aI74
aI15
aI21
aI24
aI55
aI2
aI38
aI50
aI15
aI13
aI25
aI17
aI9
asVhttps://www.reddit.com/r/wow/comments/3blhdr/what_do_the_different_mage_specs_do/
p607
(lp608
I55
aI19
aI3
aI5
aI20
aI26
aI5
aI2
aI17
aI25
aI22
aI14
aI39
aI3
asVhttps://www.reddit.com/r/malefashionadvice/comments/1k2mgq/i_need_help_with_outfits_to_go_with_this/
p609
(lp610
I85
aI65
aI4
aI9
aI37
aI27
aI31
aI37
aI10
aI1
asVhttps://www.reddit.com/r/homelab/comments/2odo8x/new_homelab/
p611
(lp612
I122
aI26
aI76
aI16
aI28
aI71
aI8
aI4
aI28
aI25
aI34
aI22
aI79
aI1
aI33
aI2
asVhttps://www.reddit.com/r/LearnJapanese/comments/48dk4f/im_looking_for_something_like_realkana_but_with/
p613
(lp614
I167
aI8
aI20
aI15
aI31
aI18
aI71
aI63
aI104
asVhttps://www.reddit.com/r/bindingofisaac/comments/4kjaic/the_lost_unlock_on_wii_u/
p615
(lp616
I82
aI24
aI17
aI11
aI23
aI22
aI9
aI2
aI30
asVhttps://www.reddit.com/r/ideasfortheadmins/comments/7ziwp/please_give_us_the_ability_to_see_what_subreddits/
p617
(lp618
I0
aI4
aI14
aI34
aI171
aI59
aI18
aI12
asVhttps://www.reddit.com/r/Guildwars2/comments/qucf9/me_and_the_girlfriend_was_wondering_if_the_combat/
p619
(lp620
I86
aI78
aI74
aI49
aI9
aI24
aI36
aI14
aI81
aI4
aI34
aI10
aI250
aI116
aI23
aI17
aI25
aI41
aI39
aI34
aI117
aI186
aI35
aI15
aI1
aI12
aI10
aI28
aI24
aI39
aI35
aI70
asVhttps://www.reddit.com/r/space/comments/392xse/ldsd_parachute_is_partially_deployed/
p621
(lp622
I48
aI35
aI7
aI24
aI47
aI47
aI38
aI31
aI126
aI4
aI121
aI80
aI52
aI8
aI33
aI58
aI101
aI30
aI28
aI23
aI10
asVhttps://www.reddit.com/r/buildapc/comments/2sqie0/is_this_an_atx_or_microatx_mobo/
p623
(lp624
I30
aI10
aI25
aI11
aI10
aI23
aI5
aI13
aI21
aI12
aI35
aI12
aI3
aI33
aI21
aI62
aI13
aI38
aI59
aI58
aI44
aI29
aI11
aI37
asVhttps://www.reddit.com/r/webdev/comments/4igxug/creating_a_site_to_go_along_with_a_school_project/
p625
(lp626
I208
aI95
aI28
aI36
aI30
aI7
aI51
aI19
aI23
aI162
aI57
aI34
asVhttps://www.reddit.com/r/Coffee/comments/40upol/i_have_an_8_cup_chemex_what_if_i_want_to_make_4/
p627
(lp628
I0
aI54
aI39
aI19
aI49
aI138
asVhttps://www.reddit.com/r/buildapc/comments/1trddi/i_just_bought_a_pny_geforce_gtx_650_and_i_cant/
p629
(lp630
I37
aI14
aI17
aI17
aI2
aI28
aI23
aI8
aI47
aI41
aI25
aI48
asVhttps://www.reddit.com/r/evangelion/comments/16mxbe/something_i_noticed_about_mari_spoilers/
p631
(lp632
I69
aI25
aI16
aI28
aI35
aI58
aI14
aI115
aI23
aI90
aI80
aI44
aI6
aI12
aI4
aI28
aI68
aI13
aI38
aI29
aI9
aI5
aI14
aI11
aI100
aI21
aI66
aI5
aI17
aI13
aI5
asVhttps://www.reddit.com/r/Health/comments/tdtoq/question_about_birth_control_and_possible/
p633
(lp634
I97
aI133
aI44
aI31
aI86
aI18
aI19
aI37
aI45
aI21
aI49
aI12
aI20
asVhttps://www.reddit.com/r/GODZILLA/comments/2c2url/favorite_roars/
p635
(lp636
I166
aI8
aI21
aI2
aI11
aI19
aI9
aI10
aI22
aI3
aI8
aI19
aI6
aI2
aI0
aI1
aI5
aI14
aI8
aI4
aI1
aI6
aI5
aI5
aI17
aI0
asVhttps://www.reddit.com/r/guns/comments/29hzwp/quick_questions_on_fixing_up_an_old_german_ww2/
p637
(lp638
I123
aI37
aI141
aI9
aI100
aI35
aI34
aI62
aI36
aI14
aI6
aI56
aI22
aI3
aI23
asVhttps://www.reddit.com/r/Games/comments/2wyqgj/chris_roberts_says_star_citizen_is_about_to_start/
p639
(lp640
I0
aI84
aI48
aI78
aI83
aI1
aI119
aI28
aI104
aI11
aI19
aI11
aI33
aI33
aI14
aI28
aI172
aI15
aI12
aI15
aI31
aI26
aI80
asVhttps://www.reddit.com/r/shittyadvice/comments/1dyg5f/both_of_my_girlfriends_have_trust_issues_help/
p641
(lp642
I0
aI16
aI12
aI9
aI30
aI9
aI36
aI50
aI15
aI10
aI11
aI32
aI5
aI11
aI8
aI27
aI7
aI6
aI8
aI1
aI30
aI37
aI1
aI42
aI8
aI6
aI26
aI15
asVhttps://www.reddit.com/r/askmath/comments/29x3n0/algebraic_structures_group_and_field/
p643
(lp644
I18
aI154
aI45
aI87
aI111
aI2
aI39
aI60
asVhttps://www.reddit.com/r/legaladvice/comments/4cfioo/beaver_dams_in_county_drain_flooding_homes/
p645
(lp646
I358
aI172
aI38
aI89
aI87
aI81
aI25
aI103
aI50
aI236
aI120
asVhttps://www.reddit.com/r/flying/comments/39r81f/what_can_i_do_to_keep_me_satisfied_while_i_wait/
p647
(lp648
I93
aI33
aI3
aI30
aI4
aI40
aI71
aI129
aI10
aI9
aI215
aI61
aI41
aI10
aI12
aI209
aI31
aI14
aI113
aI66
aI57
aI49
aI22
aI32
aI24
asVhttps://www.reddit.com/r/circlejerk/comments/2uc12h/i_am_dan_k_meme_ama/
p649
(lp650
I7
aI2
aI2
aI7
aI7
asVhttps://www.reddit.com/r/asktransgender/comments/10556k/what_to_do/
p651
(lp652
I204
aI399
aI43
aI145
aI4
aI56
aI16
aI64
aI9
aI76
asVhttps://www.reddit.com/r/linux/comments/1ldmw6/devurandom_very_slow/
p653
(lp654
I308
aI16
aI26
aI82
aI10
aI93
aI61
aI30
aI48
aI91
aI23
aI5
asVhttps://www.reddit.com/r/Bellingham/comments/2dk0lr/good_first_date_places/
p655
(lp656
I55
aI84
aI24
aI20
aI11
aI29
aI85
aI178
aI21
aI120
aI71
aI13
asVhttps://www.reddit.com/r/gaming/comments/1hb0kd/the_last_of_us_is_great_so_far_but_something/
p657
(lp658
I166
aI24
aI74
aI41
aI47
aI35
aI72
aI5
aI49
aI3
aI22
aI32
aI30
aI20
aI30
aI19
aI27
aI34
asVhttps://www.reddit.com/r/MURICA/comments/3z2qdb/my_view_on_gun_control_dont_know_the_proper_place/
p659
(lp660
I437
aI181
aI118
aI16
aI17
aI32
aI5
aI115
aI124
asVhttps://www.reddit.com/r/htcone/comments/1uelmj/cm_11/
p661
(lp662
I63
aI26
aI18
aI25
aI14
aI5
aI4
aI29
asVhttps://www.reddit.com/r/skyrim/comments/1pw7gh/skyrim_permadeath_roleplay_part_1/
p663
(lp664
I1
aI47
aI19
aI6
aI28
aI10
aI13
aI4
aI102
aI51
aI37
aI30
aI57
aI43
aI115
aI27
aI17
aI9
aI13
aI37
asVhttps://www.reddit.com/r/BadSocialScience/comments/2er7z1/muh_habitus/
p665
(lp666
I9
aI28
aI25
aI29
aI18
aI44
asVhttps://www.reddit.com/r/Lightpack/comments/28097w/prismatik_ambi_box_eating_cpu/
p667
(lp668
I68
aI12
aI10
aI77
aI51
aI9
aI5
aI140
aI56
aI12
aI13
aI42
aI73
aI3
aI15
aI11
aI64
aI98
aI109
asVhttps://www.reddit.com/r/battlestations/comments/119kki/dorm_style/
p669
(lp670
I0
aI24
aI3
aI6
aI12
aI49
aI81
aI12
aI16
aI77
aI32
aI32
aI5
aI18
aI31
aI80
aI3
aI59
aI11
aI30
aI7
aI6
asVhttps://www.reddit.com/r/roosterteeth/comments/2j44rx/if_you_were_going_to_be_on_an_episode_of_quick/
p671
(lp672
I137
aI16
aI87
aI9
aI10
aI64
aI13
aI3
aI15
aI32
aI10
aI10
aI4
aI11
asVhttps://www.reddit.com/r/pcmasterrace/comments/2rjkdx/help_me_rpcmasterrace_youre_my_only_help/
p673
(lp674
I282
aI15
aI6
aI158
aI8
aI34
aI65
aI11
aI4
aI1
aI54
aI48
aI13
aI15
aI6
aI24
aI18
aI28
asVhttps://www.reddit.com/r/cars/comments/3e72rv/all_motor_ford_taurus_runs_an_118x_in_the_14_mile/
p675
(lp676
I0
aI6
aI9
aI13
aI46
aI9
aI10
aI53
aI63
aI39
aI11
asVhttps://www.reddit.com/r/aion/comments/4d04ps/just_like_most_of_these_posts_should_i_play/
p677
(lp678
I92
aI121
aI39
aI131
aI2
aI17
aI17
asVhttps://www.reddit.com/r/Christianity/comments/19kaws/not_a_christian_but_have_a_question/
p679
(lp680
I79
aI14
aI108
aI59
aI9
aI5
aI28
aI42
aI24
aI14
aI18
aI72
aI34
aI9
aI82
aI2
asVhttps://www.reddit.com/r/criticalrole/comments/4lf8gv/no_spoilers_come_on_guys_stop_the_flaming/
p681
(lp682
I80
aI64
aI134
aI30
aI119
aI71
aI224
aI31
aI65
aI24
aI12
aI39
aI30
aI36
aI36
aI3
aI52
aI47
aI168
aI102
aI79
aI31
aI35
aI53
aI25
aI18
aI116
aI184
aI57
aI57
aI21
aI199
aI186
aI10
aI34
aI26
aI83
aI48
aI15
aI35
aI23
asVhttps://www.reddit.com/r/tifu/comments/27qzjj/tifu_by_adjusting_my_package_and_picking_my_nose/
p683
(lp684
I194
aI27
aI16
aI64
aI7
aI32
aI11
asVhttps://www.reddit.com/r/VINChecks/comments/2wvnor/full_2007_toyota_camry_xle/
p685
(lp686
I1
aI6
aI10
aI41
aI48
aI60
aI16
aI42
aI19
asVhttps://www.reddit.com/r/buildapc/comments/2w351t/build_help_600800_upgrade/
p687
(lp688
I304
aI33
aI15
aI50
aI28
aI15
aI15
aI34
aI64
aI30
aI32
aI19
aI3
aI34
aI9
asVhttps://www.reddit.com/r/destinyknot/comments/1urjh5/h_5iv_imperfect_charmanders_and_4iv_female_noibat/
p689
(lp690
I0
aI29
aI10
aI27
aI34
aI18
aI2
asVhttps://www.reddit.com/r/whitecapsfc/comments/24tr4i/whitcaps_vs_tfc_viewing_in_new_west/
p691
(lp692
I10
aI117
aI22
aI23
aI31
aI28
aI39
aI62
aI44
asVhttps://www.reddit.com/r/buildapc/comments/zmb80/build_help_i_need_a_decision_now_and_i_dont_know/
p693
(lp694
I58
aI6
aI98
aI32
aI55
aI13
aI96
aI25
aI20
aI12
aI15
aI37
asVhttps://www.reddit.com/r/bloodborne/comments/4cvhw2/chalice_dungeon_help_anyone/
p695
(lp696
I166
aI22
aI260
aI16
aI22
aI57
aI66
aI15
asVhttps://www.reddit.com/r/goodyearwelt/comments/24rxbp/apprehensions_about_handsewns/
p697
(lp698
I169
aI7
aI56
aI65
aI11
aI54
aI5
aI3
aI127
aI12
aI16
aI88
aI39
aI64
aI3
aI48
aI48
aI10
aI9
aI21
aI22
aI30
aI17
aI16
aI19
aI45
aI25
asVhttps://www.reddit.com/r/teenagers/comments/2bxinw/those_nights_where_youre_stuck_thinking_about/
p699
(lp700
I9
aI5
aI8
aI19
aI24
aI14
aI17
aI25
aI6
aI22
aI21
aI38
aI34
aI36
aI32
aI24
aI6
aI14
aI12
aI27
aI18
aI4
aI32
aI19
aI5
aI3
aI3
asVhttps://www.reddit.com/r/trees/comments/4awb8j/took_my_first_dabs_today/
p701
(lp702
I89
aI110
aI6
aI3
aI6
aI18
asVhttps://www.reddit.com/r/buildapc/comments/1nsfo9/is_there_any_reason_not_to_use_an_amd_fx_8350/
p703
(lp704
I20
aI20
aI26
aI146
aI54
aI12
aI6
aI23
aI27
aI16
aI28
aI75
aI53
asVhttps://www.reddit.com/r/medlabprofessionals/comments/3zh33c/anyone_work_at_mayo_clinic_in_ohio/
p705
(lp706
I16
aI15
aI37
aI41
aI1
aI88
aI52
aI11
aI38
aI36
asVhttps://www.reddit.com/r/nosgoth/comments/2z0j90/why_help_the_razielim_the_other_clans/
p707
(lp708
I24
aI131
aI65
aI36
aI31
aI21
aI60
aI58
aI2
asVhttps://www.reddit.com/r/reloading/comments/1pc7zr/what_is_your_favorite_press_or_what_do_you_think/
p709
(lp710
I40
aI247
aI119
aI35
aI49
aI31
aI58
aI193
aI102
aI72
aI29
aI18
aI52
aI8
aI12
aI62
aI13
aI22
aI55
aI51
aI79
aI62
aI32
aI36
aI8
aI2
aI13
aI67
aI11
aI54
aI91
asVhttps://www.reddit.com/r/crayonpop/comments/19l4vn/crayon_pop_tv_ep_10/
p711
(lp712
I0
aI8
aI25
aI15
aI25
aI2
aI2
aI15
aI19
asVhttps://www.reddit.com/r/electronic_cigarette/comments/4cc5xw/question_how_to_get_in_contact_with_aspiring/
p713
(lp714
I76
aI33
aI13
aI22
aI22
aI18
aI25
aI23
aI12
aI33
aI29
aI8
aI28
aI4
aI7
aI2
asVhttps://www.reddit.com/r/blackberry/comments/19luk7/i_have_a_new_z10_on_wind_mobile_any_clue_on_the/
p715
(lp716
I84
aI23
aI37
aI66
aI154
aI36
aI68
asVhttps://www.reddit.com/r/formula1/comments/1ap72a/question_about_ferrari_drivers_red_chair_in_garage/
p717
(lp718
I65
aI16
aI30
aI76
aI8
aI3
aI9
aI10
asVhttps://www.reddit.com/r/ripcity/comments/r5d15/caution_blazersedge_deleting_comments_and_banning/
p719
(lp720
I410
aI44
aI100
aI19
aI43
aI15
aI14
aI28
aI105
aI25
aI40
aI19
aI12
aI9
aI3
asVhttps://www.reddit.com/r/electronic_cigarette/comments/2q4bsi/newbie_needs_help_replacing_nautilus_mini/
p721
(lp722
I147
aI1
aI76
aI35
aI46
aI42
aI94
aI100
aI1
aI42
aI29
aI1
aI1
aI48
aI113
aI1
aI1
aI37
aI89
asVhttps://www.reddit.com/r/Marvel/comments/tk5mz/in_need_of_some_help_rmarvel_im_really_wanting_to/
p723
(lp724
I0
aI38
aI45
aI11
aI31
aI46
aI28
aI47
aI16
aI29
aI69
aI26
aI37
aI64
asVhttps://www.reddit.com/r/PS3/comments/gi91t/headset_recommendations/
p725
(lp726
I79
aI130
aI14
aI13
aI27
aI22
aI21
aI87
aI152
aI32
aI239
aI91
asVhttps://www.reddit.com/r/paradoxplaza/comments/18udz4/how_do_i_stop_france_i_have_created_a_monster_of/
p727
(lp728
I0
aI32
aI77
aI4
aI21
aI48
aI80
aI21
aI12
aI14
aI6
aI34
aI4
aI6
asVhttps://www.reddit.com/r/magicTCG/comments/1ogeun/differences_between_mtgo_and_paper_drafting/
p729
(lp730
I183
aI40
aI18
aI24
aI37
aI40
aI33
asVhttps://www.reddit.com/r/Warframe/comments/2cz29k/90_day_affinity_and_credit_boosters/
p731
(lp732
I20
aI3
aI27
aI10
aI13
aI28
aI25
aI47
aI21
aI9
aI15
aI19
aI17
aI47
aI35
aI25
aI12
aI19
aI58
aI75
aI56
aI17
asVhttps://www.reddit.com/r/pcmasterrace/comments/3a1868/does_anybody_know_at_what_time_the_amd/
p733
(lp734
I5
aI7
aI14
aI9
aI11
aI8
aI8
aI8
aI9
aI11
aI29
asVhttps://www.reddit.com/r/nosleep/comments/1isdw0/there_was_a_really_creepy_customer_where_i_work/
p735
(lp736
I246
aI24
aI69
aI6
aI15
aI20
aI17
aI8
aI53
aI17
aI22
aI16
aI11
aI7
aI22
aI16
aI6
aI14
aI3
aI1
aI10
aI9
aI15
aI63
aI4
aI8
aI49
aI5
aI48
aI8
aI11
aI3
aI8
aI4
aI1
aI20
aI2
aI1
aI9
aI8
asVhttps://www.reddit.com/r/leagueoflegends/comments/2zwdpp/how_many_of_you_would_play_a_1v1_designed_map/
p737
(lp738
I10
aI7
aI7
aI22
aI9
aI57
aI22
aI12
aI17
aI45
aI17
aI14
aI8
aI14
aI8
asVhttps://www.reddit.com/r/grammar/comments/33g728/can_i_use_dash_in_this_sentencesorry_for_not/
p739
(lp740
I29
aI30
aI27
aI10
aI5
aI41
aI110
aI71
aI41
aI77
aI50
aI34
asVhttps://www.reddit.com/r/edmproduction/comments/2xm2nu/need_help_with_warping/
p741
(lp742
I60
aI61
aI38
aI33
aI77
aI9
aI40
aI99
aI55
aI154
aI95
aI21
aI60
aI29
aI77
aI9
asVhttps://www.reddit.com/r/CrusaderKings/comments/2amj2n/trouble_moving_troops/
p743
(lp744
I78
aI4
aI8
aI16
aI44
aI164
aI36
asVhttps://www.reddit.com/r/synthesizers/comments/3yl7ek/issue_with_my_korg_ms2000r/
p745
(lp746
I89
aI61
aI57
aI6
aI21
aI22
aI52
aI52
aI36
asVhttps://www.reddit.com/r/gaming/comments/i0qyv/valve_vs_ea_heres_what_happened/
p747
(lp748
I178
aI21
aI52
aI26
aI15
aI2
aI33
aI35
aI28
aI18
aI57
aI6
aI3
aI5
aI34
asVhttps://www.reddit.com/r/self/comments/14v8zf/for_some_reason_comedy_central_is_airing_those/
p749
(lp750
I49
aI19
aI5
aI37
aI41
aI31
aI13
aI17
aI17
aI14
asVhttps://www.reddit.com/r/relationships/comments/42qpl3/me_21f_with_my_ex_coworker_29m_of_half_a_year_is/
p751
(lp752
I554
aI125
aI210
aI108
aI146
aI69
aI47
aI164
aI172
aI112
aI46
aI46
aI48
asVhttps://www.reddit.com/r/lgbt/comments/2us465/the_most_frequented_lgbtq_subreddits/
p753
(lp754
I14
aI10
aI64
aI15
aI25
aI30
aI5
asVhttps://www.reddit.com/r/KeepWriting/comments/4bkh77/discussion_geographic_symbolism_in_literature/
p755
(lp756
I68
aI279
aI247
aI80
aI75
aI8
aI58
aI41
aI72
asVhttps://www.reddit.com/r/anchorage/comments/1b098s/have_a_decent_chance_of_getting_a_job_in/
p757
(lp758
I158
aI133
aI305
aI68
aI155
aI46
aI99
aI85
aI122
aI37
aI78
aI33
aI56
aI47
aI31
aI34
aI22
aI128
aI8
asVhttps://www.reddit.com/r/asktrp/comments/2jbud8/dealing_with_women_phones_and_trust/
p759
(lp760
I402
aI31
aI15
aI22
aI12
aI14
aI19
aI34
aI77
aI114
aI54
aI46
aI35
aI54
aI31
aI178
aI186
aI21
aI38
aI81
aI162
aI253
aI32
aI43
aI38
aI174
aI28
aI27
aI11
aI29
aI23
aI118
aI71
aI69
aI31
aI14
aI23
aI140
aI322
aI18
aI172
asVhttps://www.reddit.com/r/leagueoflegends/comments/2godv3/wither_should_affect_yasuos_steel_tempest/
p761
(lp762
I75
aI14
aI13
aI14
aI27
aI12
aI49
aI38
aI17
aI9
aI3
aI16
aI8
aI73
aI13
aI23
aI31
aI18
aI112
aI4
aI42
aI57
aI7
aI35
aI86
aI62
aI18
aI4
aI148
aI8
aI15
aI21
aI14
aI12
aI22
aI4
aI13
aI1
aI6
aI21
aI16
asVhttps://www.reddit.com/r/Windows10/comments/3fuedo/everything_is_blank_windows_10/
p763
(lp764
I73
aI22
aI36
aI13
aI35
aI15
aI27
aI64
asVhttps://www.reddit.com/r/elderscrollsonline/comments/2urzo7/what_eso_going_sub_free/
p765
(lp766
I9
aI8
aI17
aI9
aI6
aI3
aI31
aI56
aI58
aI13
aI33
aI73
aI35
asVhttps://www.reddit.com/r/webdev/comments/1lmr7o/10_year_experience_programmer_seeking_advice_on/
p767
(lp768
I1
aI245
aI40
aI147
aI137
aI61
aI107
aI38
aI1
aI1
aI1
aI14
aI44
aI1
aI1
aI58
aI30
aI284
aI39
aI117
aI412
aI10
aI1
aI1
aI1
aI171
aI151
aI56
asVhttps://www.reddit.com/r/audio/comments/4lw8lp/how_to_connect_an_audio_interface_and_dac_amp_to/
p769
(lp770
I201
aI102
aI143
aI40
aI105
aI40
aI34
asVhttps://www.reddit.com/r/skyrim/comments/3x3hxs/possible_ps3_bug_does_anyone_elses_character/
p771
(lp772
I181
aI86
aI61
aI48
aI56
aI33
aI42
asVhttps://www.reddit.com/r/civbattleroyale/comments/4eza74/city_capture_data_for_parts_5051/
p773
(lp774
I257
aI43
aI24
aI9
aI12
aI13
aI26
aI10
aI41
aI18
aI10
aI16
aI13
aI1
aI7
aI1
asVhttps://www.reddit.com/r/CHIBears/comments/39gbl8/te_tim_wright_released_by_pats_xpost_from_rnfl/
p775
(lp776
I72
aI15
aI49
aI9
aI23
aI41
aI21
aI8
aI7
aI41
asVhttps://www.reddit.com/r/AdviceAnimals/comments/4a78u1/dodged_a_bullet_big_time/
p777
(lp778
I0
aI10
aI22
aI32
aI6
aI34
aI3
aI34
aI9
aI45
aI130
aI10
aI8
aI10
aI5
aI15
aI7
aI26
aI17
aI2
aI5
aI9
aI17
aI17
aI7
asVhttps://www.reddit.com/r/xxfitness/comments/2sigov/question_is_it_possible_to_lose_weight_as_fast_as/
p779
(lp780
I113
aI174
aI151
aI252
aI47
aI9
aI56
aI70
aI20
aI42
aI6
aI13
aI7
aI17
aI28
aI33
aI17
aI24
aI10
aI14
aI11
aI13
aI15
aI12
aI21
aI15
aI6
aI9
aI100
aI11
aI3
aI52
aI3
aI8
aI13
aI2
aI35
aI28
asVhttps://www.reddit.com/r/minipainting/comments/33etgs/starting_airbrushing_for_under_300/
p781
(lp782
I111
aI194
aI36
aI18
aI34
aI49
aI38
aI110
aI27
aI10
aI92
aI23
aI70
aI10
aI13
aI19
aI13
aI8
aI8
asVhttps://www.reddit.com/r/personalfinance/comments/1ixlxz/looking_for_advice_on_a_car_loan/
p783
(lp784
I372
aI75
aI38
aI60
aI21
aI183
aI24
aI119
aI52
aI188
aI114
asVhttps://www.reddit.com/r/fivenightsatfreddys/comments/3itleb/random_thought_of_the_night_isnt_springtrap/
p785
(lp786
I15
aI17
aI21
aI28
aI12
aI18
aI32
aI34
aI12
aI16
aI6
aI2
aI10
aI18
aI33
aI29
aI10
aI35
aI14
aI9
aI33
aI3
aI14
aI11
aI1
aI3
asVhttps://www.reddit.com/r/HoloLens/comments/34u8vn/why_hololens_will_be_popular_among_writers/
p787
(lp788
I240
aI116
aI33
aI40
aI19
aI60
aI129
aI51
asVhttps://www.reddit.com/r/nvidia/comments/4bm9x9/one_more_980ti_or_wait_for_new_nvidia_cards/
p789
(lp790
I9
aI22
aI17
aI37
aI12
aI18
aI23
aI1
aI21
aI5
aI6
aI1
aI10
aI1
aI10
aI1
aI78
aI5
aI24
aI25
aI1
aI51
aI4
aI14
aI185
aI19
aI49
aI1
aI21
aI6
aI43
aI20
aI1
aI31
asVhttps://www.reddit.com/r/jailbreak/comments/3d7j8r/tutorial_how_to_i_safely_rid_a_phone_of_jailbreak/
p791
(lp792
I7
aI45
aI2
aI37
aI21
aI22
aI2
aI47
aI25
aI100
aI19
aI23
aI33
aI18
aI35
aI22
aI47
asVhttps://www.reddit.com/r/dayz/comments/17wya3/i_want_to_ask_you_guys_if_my_friend_can_run_dayz/
p793
(lp794
I43
aI51
aI17
aI38
aI9
aI45
aI23
aI67
aI6
aI47
aI3
aI50
aI1
aI57
aI15
asVhttps://www.reddit.com/r/mintuit/comments/49dzy0/double_counting_spending_transactions/
p795
(lp796
I56
aI18
aI10
aI25
aI2
aI10
asVhttps://www.reddit.com/r/r4r/comments/2cuw9e/22_f4r_anywhere_international_friends/
p797
(lp798
I74
aI42
aI18
aI13
aI1
aI5
aI1
aI8
asVhttps://www.reddit.com/r/puregrease/comments/1l1m5j/accept_jesus/
p799
(lp800
I0
aI7
aI14
aI5
aI24
aI3
aI2
aI4
aI1
asVhttps://www.reddit.com/r/electronic_cigarette/comments/1g6fzc/myvaporgasm/
p801
(lp802
I53
aI290
aI89
aI34
aI15
aI68
aI39
aI14
aI20
aI43
aI11
aI17
aI5
aI16
aI18
aI20
aI9
aI23
aI31
aI4
aI15
aI7
aI6
aI1
asVhttps://www.reddit.com/r/Firefighting/comments/32xyk4/when_the_alarm_sounds_at_2am_after_a_long_day_of/
p803
(lp804
I0
aI28
aI62
aI58
aI3
aI31
aI23
aI45
aI14
aI12
aI5
aI2
asVhttps://www.reddit.com/r/explainlikeimfive/comments/4acs7u/eli5_how_do_dogs_sense_blood_pressure_levels_in/
p805
(lp806
I25
aI60
aI41
aI49
asVhttps://www.reddit.com/r/relationship_advice/comments/to8g3/need_helpadvice_on_saving_a_long_term_relationship/
p807
(lp808
I1507
aI59
aI311
aI64
aI135
aI23
aI65
aI63
aI46
asVhttps://www.reddit.com/r/travel/comments/2wu0xt/denied_at_airport_due_to_damaged_passport_help/
p809
(lp810
I344
aI19
aI183
aI99
aI28
aI49
aI58
aI56
aI146
aI7
aI10
aI99
aI19
aI46
aI32
aI6
aI128
aI64
aI12
aI6
aI22
aI5
aI75
aI40
aI63
aI23
asVhttps://www.reddit.com/r/electronic_cigarette/comments/3vtitg/battery_amps_question/
p811
(lp812
I17
aI11
aI12
aI30
aI28
aI7
aI13
aI18
aI30
aI16
aI3
aI29
aI26
aI20
aI16
aI35
aI7
asVhttps://www.reddit.com/r/conlangs/comments/2bwl6g/root_system_of_wagthen_ideas_to_improve/
p813
(lp814
I300
aI34
aI40
aI45
aI67
aI70
aI33
aI44
aI9
asVhttps://www.reddit.com/r/stormchasing/comments/36bqnd/quick_question_about_divotscircles_on_the_ground/
p815
(lp816
I93
aI316
aI40
aI43
aI31
aI43
aI104
aI70
aI95
aI16
aI39
aI21
aI8
aI16
aI57
aI88
aI3
aI65
aI101
aI98
asVhttps://www.reddit.com/r/discgolf/comments/1b3fxv/my_bag/
p817
(lp818
I133
aI89
aI182
aI5
aI11
aI34
aI17
aI38
aI35
aI19
aI42
aI12
aI144
asVhttps://www.reddit.com/r/leangains/comments/2av7ah/simple_web_app_and_android_app_i_built_to_search/
p819
(lp820
I71
aI12
aI21
aI18
aI51
aI48
aI36
aI33
aI35
aI16
aI5
aI13
aI9
aI21
aI42
aI45
aI30
aI62
aI44
aI23
asVhttps://www.reddit.com/r/mtgfinance/comments/22si7v/fetch_lands_dropping_in_price_think_well_see/
p821
(lp822
I46
aI131
aI21
aI12
aI20
aI69
aI79
aI18
aI34
aI59
aI6
aI13
aI23
aI17
aI40
aI57
aI125
aI18
aI2
aI69
aI12
aI112
aI12
aI12
aI26
aI19
aI9
aI71
aI31
asVhttps://www.reddit.com/r/rawdenim/comments/2ldh1e/oni_517xx_7_months/
p823
(lp824
I70
aI13
aI38
aI19
aI26
aI8
aI8
aI53
aI12
aI2
aI10
aI20
aI3
aI11
aI9
aI10
aI15
aI33
aI45
aI17
aI29
aI24
aI5
aI22
aI30
aI8
aI8
aI11
aI42
aI1
aI15
aI3
aI40
aI57
aI18
aI11
aI8
aI19
aI13
aI3
aI28
asVhttps://www.reddit.com/r/buildapc/comments/2jlt9v/build_help_780_ti_or_980_and_what_brand/
p825
(lp826
I325
aI46
aI2
aI32
aI43
aI33
aI31
aI18
asVhttps://www.reddit.com/r/GlobalOffensive/comments/4lbuq4/buffalo_wild_wings_showing_eleague/
p827
(lp828
I14
aI1
aI12
aI44
aI20
aI44
aI17
aI37
aI21
aI29
aI2
aI1
aI3
aI6
aI4
aI10
aI8
aI21
aI15
aI16
aI17
aI17
aI10
aI22
aI34
aI9
aI3
aI22
aI13
aI16
aI18
aI28
aI1
aI51
aI3
aI1
aI1
aI1
aI1
aI3
asVhttps://www.reddit.com/r/thedivision/comments/49sb5d/i_need_of_some_helpadvise_about_this_game/
p829
(lp830
I489
aI216
aI399
aI1
aI156
aI28
aI123
aI35
aI180
aI6
aI16
aI9
aI113
aI47
aI61
aI78
aI33
aI59
aI14
aI34
aI30
aI34
aI71
aI175
aI24
aI62
aI71
aI24
aI40
aI26
aI11
aI32
asVhttps://www.reddit.com/r/mildlyinteresting/comments/4dibeq/the_date_stamp_on_this_bottle_was_unaffected_by/
p831
(lp832
I0
aI3
aI1
aI1
aI40
aI2
aI3
asVhttps://www.reddit.com/r/techsupport/comments/3a4dg8/bought_new_video_card_and_psu_frequent_crashing/
p833
(lp834
I362
aI30
aI19
aI115
aI9
aI191
aI91
asVhttps://www.reddit.com/r/gamemaker/comments/3behum/gmsgmlhow_can_i_make_the_game_look_for_a_file_in/
p835
(lp836
I1
aI9
aI1
aI88
aI1
aI65
aI42
asVhttps://www.reddit.com/r/SuggestALaptop/comments/26uyuz/want_something_that_wont_break_1415_usa_300500/
p837
(lp838
I308
aI139
aI20
aI24
aI5
aI2
aI54
aI57
asVhttps://www.reddit.com/r/asoiaf/comments/3zbw2n/spoiler_all_a_note_on_a_character_grrm_talked/
p839
(lp840
I1
aI7
aI11
aI61
aI42
aI1
aI7
aI7
aI15
aI11
aI16
aI32
asVhttps://www.reddit.com/r/jailbreak/comments/3ydont/request_tweak_to_hide_the_status_bar_on/
p841
(lp842
I16
aI38
aI12
aI40
aI27
aI11
aI13
aI4
aI12
asVhttps://www.reddit.com/r/rupaulsdragrace/comments/4lmuwj/did_anyone_else_fall_asleep/
p843
(lp844
I1
aI10
aI21
aI19
aI25
aI14
aI48
aI13
aI10
aI5
aI7
aI4
aI3
asVhttps://www.reddit.com/r/fo4/comments/4ep30s/spoilers_bethesdas_missed_mark_on_unique/
p845
(lp846
I1981
aI60
aI92
aI20
aI129
aI70
aI325
aI38
aI90
aI44
aI179
aI9
aI52
aI80
aI41
aI136
aI131
aI29
aI585
aI71
aI88
aI50
aI11
aI51
aI25
aI16
aI62
aI55
aI136
aI9
aI36
aI84
aI113
aI30
aI19
aI22
aI16
aI90
aI45
aI67
asVhttps://www.reddit.com/r/civ/comments/2zo483/bnw_how_to_play_babylon/
p847
(lp848
I26
aI67
aI162
aI20
aI37
aI53
aI130
aI41
aI41
asVhttps://www.reddit.com/r/AskHistorians/comments/2ns3zy/was_hannibal_black/
p849
(lp850
I79
aI31
aI38
aI27
aI25
aI8
aI43
aI15
aI65
aI10
aI54
aI12
aI6
asVhttps://www.reddit.com/r/thewitcher3/comments/3iq9qh/my_one_big_problem_with_the_witcher_3/
p851
(lp852
I278
aI18
aI563
aI36
aI13
aI58
aI203
aI2
aI73
aI54
aI55
asVhttps://www.reddit.com/r/solotravel/comments/2jxz66/hostel_recommendations_in_ubud_bali/
p853
(lp854
I89
aI54
aI49
aI143
aI63
aI6
aI8
aI18
aI18
aI130
aI60
aI22
aI16
aI12
aI5
aI46
aI131
aI34
asVhttps://www.reddit.com/r/gamegrumps/comments/33mttj/game_grumps_and_youtubers_allowed_to_sing_now/
p855
(lp856
I38
aI11
aI9
aI59
aI68
aI50
asVhttps://www.reddit.com/r/ptsd/comments/272t3w/why_is_it_common_for_victims_of_trauma_to_get/
p857
(lp858
I199
aI65
aI97
aI59
aI539
aI35
aI19
aI26
aI457
aI26
aI63
aI110
aI117
aI52
aI79
aI376
aI313
aI152
aI43
aI190
aI5
aI151
aI257
aI32
aI1
asVhttps://www.reddit.com/r/gameofthrones/comments/4ljxf8/s6_what_i_feel_this_season_lacks/
p859
(lp860
I46
aI6
aI6
aI15
aI14
aI94
aI1
aI117
aI3
aI24
aI32
aI27
aI19
aI21
aI17
aI8
aI38
aI11
aI5
aI4
aI2
aI4
aI10
aI5
aI13
aI11
aI7
aI3
aI13
aI0
aI37
aI8
aI3
aI5
aI29
aI2
aI8
aI6
asVhttps://www.reddit.com/r/ApplyingToCollege/comments/4jeje4/is_there_a_list_of_schools_that_look_at_intended/
p861
(lp862
I18
aI24
aI43
aI5
aI4
aI25
aI39
asVhttps://www.reddit.com/r/hockeycards/comments/4b4qsa/sales_official_steals_and_deals_thread_31816/
p863
(lp864
I327
aI30
aI39
aI11
aI8
aI73
aI25
aI17
asVhttps://www.reddit.com/r/vita/comments/2o4com/game_of_thrones_ep_1_apparently_releasing_on/
p865
(lp866
I41
aI21
aI1
aI22
aI20
aI26
aI10
aI10
aI31
asVhttps://www.reddit.com/r/dayz/comments/2lq3tg/stuck_in_a_portapotty/
p867
(lp868
I13
aI73
aI9
aI17
aI21
aI3
aI44
aI21
aI9
aI9
aI3
aI10
aI2
aI35
aI7
aI6
aI4
aI102
aI3
asVhttps://www.reddit.com/r/selfpublish/comments/48jg7y/launch_parties/
p869
(lp870
I18
aI81
aI110
aI31
aI10
aI18
aI52
aI42
aI40
aI137
aI28
aI40
aI13
aI4
asVhttps://www.reddit.com/r/wow/comments/364wec/garrison_question_can_you_outgear_missions/
p871
(lp872
I84
aI13
aI12
aI52
aI60
aI23
aI15
aI33
aI27
aI33
aI6
asVhttps://www.reddit.com/r/applehelp/comments/27gooo/bootcamp_partition_shows_up_in_disk_utility_but/
p873
(lp874
I1
aI47
aI1
aI50
aI1
aI129
aI1
aI41
aI1
aI22
aI1
asVhttps://www.reddit.com/r/ripcity/comments/4ag8l7/nba_draft_2nd_round_where_can_we_buy_in_and_who/
p875
(lp876
I709
aI3
aI85
aI17
aI188
aI30
aI8
aI56
aI66
aI98
aI11
aI9
aI18
aI164
aI35
aI31
aI24
aI39
aI17
aI87
asVhttps://www.reddit.com/r/uncharted/comments/4lhh88/uncharted_4_crushing_is_extremely_difficult/
p877
(lp878
I42
aI6
aI21
aI3
aI11
aI11
aI8
aI6
aI23
aI1
aI18
aI4
aI10
asVhttps://www.reddit.com/r/gaming/comments/qtwhv/my_personal_question_regarding_dlc_longwinded_so/
p879
(lp880
I412
aI120
aI8
aI30
aI87
aI30
asVhttps://www.reddit.com/r/worldnews/comments/2arhjv/uks_new_energy_environment_ministers_opposed/
p881
(lp882
I0
aI36
aI12
aI40
aI36
aI16
aI14
aI7
aI112
aI11
aI10
aI34
aI12
aI13
aI26
aI65
aI5
aI3
aI4
aI94
aI32
aI65
aI9
aI14
aI2
aI38
aI3
aI18
aI44
aI73
aI14
aI1
aI18
aI92
aI2
aI68
aI75
aI171
aI2
aI6
asVhttps://www.reddit.com/r/relationships/comments/3j063c/me_16_m_with_my_friend_17_f_gets_awkward_i_dont/
p883
(lp884
I239
aI3
aI21
aI11
aI49
aI18
aI21
aI30
aI25
aI34
aI28
asVhttps://www.reddit.com/r/AskReddit/comments/1y9lal/men_of_reddit_which_would_you_prefer_two_6s_at/
p885
(lp886
I0
aI5
aI20
aI18
aI9
aI14
aI3
aI52
aI9
aI3
aI2
aI8
aI7
aI3
aI38
aI2
aI8
aI21
aI4
aI58
aI19
aI9
aI4
aI10
aI9
aI6
aI13
aI15
aI8
aI10
aI15
aI19
aI9
aI13
aI60
aI20
aI7
aI6
aI5
aI12
aI7
asVhttps://www.reddit.com/r/askcarsales/comments/38nvli/bought_cpo_now_potentially_facing_a_400_repair/
p887
(lp888
I451
aI103
aI35
aI127
aI17
aI58
aI10
aI81
aI43
aI38
aI32
aI15
aI76
aI100
aI64
aI136
aI62
aI18
aI68
aI7
aI30
aI70
asVhttps://www.reddit.com/r/tmobile/comments/39j0qb/psa_motos_51_update_to_the_2015_moto_e_disables/
p889
(lp890
I145
aI9
aI11
aI135
aI43
aI7
aI28
aI47
aI33
aI4
aI31
aI64
aI91
aI109
aI18
aI24
aI53
aI31
aI60
aI122
aI15
aI25
aI23
aI32
aI24
aI26
aI22
aI12
aI72
aI17
aI11
aI30
aI30
aI23
aI59
aI3
aI11
aI46
aI48
aI6
aI8
asVhttps://www.reddit.com/r/wrestlingisreddit/comments/2f1gqj/what_youve_waited_all_week_for_im_jack_anchor_amaa/
p891
(lp892
I94
aI16
aI9
aI13
aI9
aI7
aI6
aI21
aI53
aI12
aI34
aI11
aI37
aI16
aI28
aI10
aI23
aI13
aI17
aI14
aI7
aI39
aI27
aI17
aI4
aI12
aI7
aI7
aI12
aI10
aI32
aI8
aI9
aI16
aI2
aI14
aI1
aI10
asVhttps://www.reddit.com/r/sgsflair/comments/24xggi/flair_profile_umanmana/
p893
(lp894
I37
aI26
aI24
aI22
aI21
aI1
aI1
aI11
aI5
aI5
asVhttps://www.reddit.com/r/ableton/comments/1hu9ki/whos_a_pro_here/
p895
(lp896
I62
aI37
aI5
aI14
aI321
aI45
aI61
aI9
aI190
asVhttps://www.reddit.com/r/circlejerk/comments/si27x/i_am_a_21_year_old_white_atheist_american_male/
p897
(lp898
I12
aI15
aI17
aI50
aI54
aI44
aI17
aI19
aI38
aI34
aI13
aI36
aI16
aI16
aI50
aI7
aI10
aI37
aI20
aI22
aI14
aI12
aI23
aI2
aI25
aI10
aI13
aI1
aI2
aI11
aI7
aI15
asVhttps://www.reddit.com/r/woodworking/comments/22omh9/how_difficult_is_it_to_make_a_half_decent/
p899
(lp900
I128
aI91
aI137
aI86
aI107
aI23
aI50
aI118
aI43
aI22
aI51
aI34
aI20
aI53
aI41
aI21
aI44
aI67
aI17
aI28
aI10
asVhttps://www.reddit.com/r/MonsterHunter/comments/2h4i3m/i_just_got_to_high_rank_what_should_i_do_now/
p901
(lp902
I120
aI113
aI115
aI53
aI3
aI64
aI44
aI13
aI4
aI2
asVhttps://www.reddit.com/r/MigrantFleet/comments/3dme4r/waits_in_the_mess_hall_of_the_avius/
p903
(lp904
I63
aI34
aI27
aI35
aI29
aI11
aI7
aI32
aI11
aI16
aI4
aI32
aI18
aI14
aI16
aI6
aI17
aI22
aI10
aI9
aI18
aI31
aI17
aI17
aI37
aI16
aI10
aI19
aI16
aI44
aI5
aI4
aI73
aI32
aI4
aI24
aI14
aI4
aI9
aI5
asVhttps://www.reddit.com/r/eindhoven/comments/4bu1x1/got_fined_in_stratumseind_but_never_received_the/
p905
(lp906
I1
aI82
aI66
aI56
aI15
aI19
asVhttps://www.reddit.com/r/Civcraft/comments/21qdrr/krosh_griefing_a_day_after_he_was_released_50d/
p907
(lp908
I67
aI6
aI3
aI25
aI65
aI11
aI6
aI71
aI7
aI14
aI17
aI4
aI27
aI33
aI10
aI11
aI43
aI6
aI17
aI28
aI8
aI125
aI44
aI28
aI3
asVhttps://www.reddit.com/r/taiwan/comments/36hmli/i_will_be_representing_taiwan_at_an_mun/
p909
(lp910
I127
aI21
aI43
aI5
aI8
aI29
aI16
aI179
aI35
aI15
aI9
aI17
aI54
aI59
aI8
aI18
aI6
aI1
aI7
aI43
aI9
aI42
aI30
aI24
aI24
aI40
aI6
aI16
aI8
asVhttps://www.reddit.com/r/urbanfarming/comments/2lbpoy/what_is_the_term_used_for_people_who_plant/
p911
(lp912
I0
aI2
aI7
aI8
aI8
aI3
aI43
aI12
aI30
aI28
aI27
aI19
aI3
aI6
aI36
aI10
asVhttps://www.reddit.com/r/Khador/comments/3eejcy/komrades_i_request_advice_in_dealing_with_skorne/
p913
(lp914
I201
aI410
aI12
aI205
aI185
aI612
aI291
aI688
aI174
aI319
aI187
asVhttps://www.reddit.com/r/picrequests/comments/1ffatw/request_just_put_a_scumbag_steve_hat_on_this_guy/
p915
(lp916
I1
aI9
aI10
aI9
aI15
aI19
aI9
aI2
asVhttps://www.reddit.com/r/buildapc/comments/3vv8bw/so_i_randomly_decided_to_set_up_a_nas/
p917
(lp918
I496
aI84
aI91
aI162
aI73
aI72
aI20
aI26
asVhttps://www.reddit.com/r/StardewValley/comments/4ahr4u/suggestion_make_kegs_etc_stackable_please/
p919
(lp920
I20
aI100
aI10
aI6
aI5
aI14
aI18
aI22
aI12
asVhttps://www.reddit.com/r/Smite/comments/2r6j90/its_casuals_so_we_can_do_whatever_we_want_rant/
p921
(lp922
I128
aI4
aI1
aI54
aI57
aI49
aI180
aI67
aI48
aI8
aI77
aI43
aI71
aI18
aI9
aI300
aI12
aI7
aI6
aI55
aI39
aI14
aI50
aI19
aI87
aI13
aI10
aI9
aI4
aI21
aI76
aI8
aI50
aI15
aI13
aI14
aI27
aI18
aI17
asVhttps://www.reddit.com/r/techsupport/comments/35n4ds/hdd_is_dead_on_pc_with_preinstalled_w8_how_would/
p923
(lp924
I30
aI63
aI94
aI11
aI13
aI16
aI122
aI27
aI7
aI21
asVhttps://www.reddit.com/r/MotoX/comments/2939av/not_a_huge_fan_of_google_play_music/
p925
(lp926
I76
aI6
aI5
aI58
aI33
aI36
aI55
aI63
aI10
aI13
aI9
aI7
aI25
aI12
aI23
aI61
aI26
aI23
aI15
aI52
aI121
aI20
aI37
aI11
aI21
aI22
aI21
asVhttps://www.reddit.com/r/SquaredCircle/comments/4l491f/meltzer_on_shawn_michaelsaj_styles_comparison/
p927
(lp928
I173
aI8
aI25
aI250
aI27
aI14
aI40
aI8
aI17
aI17
aI8
aI62
aI15
aI17
aI5
aI17
aI12
aI8
aI14
aI6
aI66
aI1
aI4
aI21
aI56
aI14
aI21
aI1
aI135
aI1
aI101
asVhttps://www.reddit.com/r/wow/comments/32jid7/is_hellfire_citadel_the_final_raid/
p929
(lp930
I58
aI67
aI26
aI93
aI11
aI6
aI31
aI54
aI5
aI1
aI36
aI47
aI133
aI13
aI125
aI7
aI10
aI78
aI1
aI17
aI23
aI25
aI4
aI32
asVhttps://www.reddit.com/r/fweddit/comments/uezxo/fweddit_fleet_info_for_rookies/
p931
(lp932
I163
aI7
aI24
aI18
aI69
aI59
aI56
aI127
aI82
aI32
asVhttps://www.reddit.com/r/HondaCB/comments/29cfeq/are_cls_welcome_here_as_well/
p933
(lp934
I22
aI1
aI1
aI10
aI8
aI0
aI14
aI9
aI2
aI2
aI39
aI14
aI72
aI21
aI30
aI99
aI39
aI108
aI31
asVhttps://www.reddit.com/r/atheism/comments/4bgz9f/how_to_stop_a_forced_first_communion/
p935
(lp936
I82
aI46
aI90
aI16
aI15
aI196
aI29
aI20
aI47
aI24
aI108
aI174
aI4
aI39
aI40
aI42
aI22
aI15
aI31
aI80
aI30
aI96
aI10
aI76
aI23
asVhttps://www.reddit.com/r/oculus/comments/3gikpv/new_nvidiaamd_graphics_cards/
p937
(lp938
I80
aI244
aI80
aI115
aI5
aI32
aI129
aI90
aI70
aI83
aI28
aI29
aI84
aI97
aI54
aI61
aI28
aI38
aI59
aI42
aI30
asVhttps://www.reddit.com/r/Audi/comments/19zkyo/anyone_know_how_much_it_would_cost_to_replace_a/
p939
(lp940
I22
aI9
aI17
aI4
aI15
aI6
aI21
aI1
aI44
aI3
aI78
aI19
aI99
asVhttps://www.reddit.com/r/naut/comments/4gj0dp/how_to_change_submit_your_post_to_reddit_to/
p941
(lp942
I53
aI17
aI22
aI18
aI64
aI62
aI38
asVhttps://www.reddit.com/r/tmobile/comments/3irzlb/going_international_are_the_roaming_features_as/
p943
(lp944
I29
aI21
aI59
aI71
aI93
aI17
aI15
aI8
aI310
aI14
aI52
aI14
aI7
aI15
asVhttps://www.reddit.com/r/thedivision/comments/4bp1qz/players_who_bought_new_york_collapse_what_are/
p945
(lp946
I58
aI29
aI49
aI30
aI15
aI48
aI71
aI21
aI3
aI20
asVhttps://www.reddit.com/r/arduino/comments/4dcbwl/serialread_only_receives_data_if_i_use_serialprint/
p947
(lp948
I214
aI395
aI323
aI18
aI157
aI143
aI120
aI71
aI41
aI14
aI1
aI20
aI71
asVhttps://www.reddit.com/r/IronThronePowers/comments/3e1px7/lorerp_time/
p949
(lp950
I966
aI2
aI223
aI54
aI102
aI86
aI163
aI183
aI67
aI65
aI117
asVhttps://www.reddit.com/r/feedthebeast/comments/417p4b/are_thermalilies_bugged_in_infinity_evolved/
p951
(lp952
I58
aI61
aI22
aI44
aI127
aI23
aI13
aI21
aI18
aI17
asVhttps://www.reddit.com/r/ffxiv/comments/1cexp2/a_few_questions_that_may_or_may_not_have_an_answer/
p953
(lp954
I166
aI61
aI64
aI30
aI47
aI46
aI60
asVhttps://www.reddit.com/r/trees/comments/4bug3a/reaching_a_10_with_a_high_tolerance/
p955
(lp956
I61
aI9
aI13
aI32
aI9
aI33
aI37
aI48
aI19
aI5
aI22
aI19
aI125
aI18
aI35
asVhttps://www.reddit.com/r/asktrp/comments/39tknw/can_you_have_too_much_self_confidence/
p957
(lp958
I129
aI124
aI6
aI142
aI167
aI72
aI46
aI108
aI40
aI60
aI87
aI212
aI48
aI77
aI74
aI38
aI66
aI60
aI65
aI27
aI45
asVhttps://www.reddit.com/r/splatoon/comments/46o55h/renewed_my_love_of_games/
p959
(lp960
I125
aI15
aI9
aI7
aI33
aI9
aI4
aI5
aI6
asVhttps://www.reddit.com/r/tails/comments/1z04p9/upgraded_to_tails_0221_but_recently_cant_open/
p961
(lp962
I46
aI57
aI26
aI48
aI17
aI26
aI2
asVhttps://www.reddit.com/r/mylittlepony/comments/3d7yff/i_feel_so_at_home_here_from_rsquaredcircle/
p963
(lp964
I68
aI44
aI12
aI20
aI60
aI12
aI35
aI57
aI27
aI19
aI11
aI49
aI21
aI25
aI5
aI15
aI10
aI3
aI2
aI147
aI31
aI24
aI18
aI5
aI37
aI21
aI125
aI3
aI28
aI2
aI22
aI25
aI4
aI44
aI102
aI35
aI13
aI27
aI4
aI32
aI15
asVhttps://www.reddit.com/r/admincraft/comments/q79zg/my_host_provider_lost_all_of_my_data/
p965
(lp966
I273
aI106
aI70
aI81
aI26
aI100
aI75
aI15
aI46
aI55
aI8
aI58
aI58
aI68
aI97
aI7
aI6
aI59
aI83
aI12
aI29
aI98
aI83
aI24
aI7
asVhttps://www.reddit.com/r/teenagers/comments/4dnq3i/hi_rteenagers_today_ill_teach_you_how_to_accept/
p967
(lp968
I43
aI33
aI10
aI14
aI13
aI5
aI8
aI23
aI4
aI19
aI79
aI137
aI36
aI35
aI10
aI3
aI31
aI19
aI23
aI6
aI4
aI85
aI11
aI7
aI7
aI18
aI44
aI1
aI3
aI11
aI1
aI4
aI10
aI40
aI4
aI95
aI20
aI15
aI4
asVhttps://www.reddit.com/r/learnprogramming/comments/4d1etw/cc_program_memory_easily_the_most_helpful_book/
p969
(lp970
I132
aI25
aI21
aI55
aI19
aI2
aI4
aI2
aI5
aI2
aI1
aI6
aI8
aI8
aI5
aI1
aI5
aI122
aI76
aI27
aI41
aI30
aI86
aI11
aI22
aI14
aI9
aI43
aI29
asVhttps://www.reddit.com/r/RWBY/comments/2jhml5/photoshop_challenge/
p971
(lp972
I112
aI5
aI18
aI5
aI34
aI7
aI7
aI8
asVhttps://www.reddit.com/r/paydaytheheist/comments/1nis2f/loco_shell_rack/
p973
(lp974
I18
aI16
aI9
asVhttps://www.reddit.com/r/blackops3/comments/3isd0y/black_hat_this_is_the_coolest_tactical_to_me/
p975
(lp976
I70
aI21
aI45
aI45
aI30
aI28
aI16
aI71
aI32
aI33
aI17
aI32
aI74
aI19
asVhttps://www.reddit.com/r/opiates/comments/1l1egz/my_fellow_choppers/
p977
(lp978
I32
aI6
aI44
aI14
aI2
aI11
aI1
aI33
aI6
asVhttps://www.reddit.com/r/BitcoinMining/comments/iqxd6/ati_driver_problems_damned_if_i_do_damned_if_i/
p979
(lp980
I191
aI45
aI144
aI108
aI160
aI91
aI136
aI99
aI96
asVhttps://www.reddit.com/r/econhw/comments/4je20w/how_is_wage_ratio_different_from_log_wage/
p981
(lp982
I74
aI147
aI22
aI107
aI45
aI31
aI68
aI70
aI157
aI217
aI103
asVhttps://www.reddit.com/r/UTSA/comments/48diyy/transfer_admission/
p983
(lp984
I53
aI19
aI42
aI15
aI24
aI22
aI28
aI40
aI64
asVhttps://www.reddit.com/r/flyfishing/comments/1zgp4q/looking_for_a_suggestion_for_a_chest_pack/
p985
(lp986
I41
aI487
aI50
aI136
aI48
aI55
aI27
aI21
aI60
aI36
aI45
aI25
aI81
aI6
asVhttps://www.reddit.com/r/buildapc/comments/3gc0ni/build_help_have_a_build_in_mind_need_some/
p987
(lp988
I943
aI8
aI140
aI19
aI86
aI6
aI64
aI61
aI29
aI14
asVhttps://www.reddit.com/r/bloodborne/comments/3y7vsw/ive_just_noticed_something_about_the_riflespear/
p989
(lp990
I11
aI29
aI9
aI11
aI33
aI15
aI11
aI40
aI17
aI45
aI130
aI13
aI50
aI34
aI110
aI12
aI15
asVhttps://www.reddit.com/r/BlackwellAcademy/comments/3bbxkl/the_great_outdoors/
p991
(lp992
I74
aI17
aI129
aI61
aI11
aI61
aI19
aI5
aI56
aI33
aI11
aI26
aI8
aI12
aI60
aI61
aI12
aI7
aI9
aI70
aI51
aI13
aI27
aI37
aI43
aI49
aI7
aI4
asVhttps://www.reddit.com/r/techsupport/comments/1vmr1t/i_have_been_noticing_frequent_internet_failures/
p993
(lp994
I168
aI79
aI13
aI48
aI7
aI136
aI23
aI22
aI21
asVhttps://www.reddit.com/r/swordartonline/comments/4i7qzu/voice_actors_of_sao/
p995
(lp996
I40
aI64
aI20
aI245
aI4
aI46
aI77
aI33
aI38
aI37
aI52
aI129
aI16
aI21
aI5
aI9
aI34
aI7
aI11
aI9
aI16
aI24
aI19
asVhttps://www.reddit.com/r/languagelearning/comments/1d7u4b/assimil_help_please/
p997
(lp998
I147
aI20
aI52
aI24
aI23
aI47
aI33
asVhttps://www.reddit.com/r/starcraft/comments/e918g/does_anybody_else_miss_lurkers/
p999
(lp1000
I36
aI13
aI33
aI15
aI4
aI20
aI11
aI40
aI18
aI150
aI68
aI49
asVhttps://www.reddit.com/r/guitarpedals/comments/3z5um2/offered_a_deluxe_memory_man_need_some_help/
p1001
(lp1002
I0
aI43
aI50
aI8
aI19
aI21
aI24
aI22
aI8
aI10
aI23
aI10
aI11
aI54
aI32
aI23
aI5
aI23
aI11
aI1
aI88
aI43
aI11
asVhttps://www.reddit.com/r/gtaonline/comments/38ov4i/seriously_a_ufo/
p1003
(lp1004
I4
aI17
aI47
aI42
aI2
aI41
aI123
aI59
asVhttps://www.reddit.com/r/AskReddit/comments/h1amt/for_all_reddit_reptile_lovers_how_does_one_become/
p1005
(lp1006
I124
aI141
aI117
aI124
aI219
aI88
aI68
asVhttps://www.reddit.com/r/lacrossewi/comments/r4q2v/grandads_bluff/
p1007
(lp1008
I1
aI22
aI21
aI14
aI29
aI10
aI29
aI20
asVhttps://www.reddit.com/r/techsupport/comments/3g9n6g/overvolting_asus_gtx_970_safety_guidelines/
p1009
(lp1010
I34
aI22
aI6
aI26
aI76
aI112
aI46
asVhttps://www.reddit.com/r/exjw/comments/3f0suf/letter_about_child_abuse/
p1011
(lp1012
I89
aI28
aI974
aI203
aI4
aI8
aI16
aI112
aI102
aI17
aI25
aI16
aI24
aI9
asVhttps://www.reddit.com/r/oculus/comments/4gklm0/playing_steam_games_with_oculus/
p1013
(lp1014
I61
aI86
aI91
aI20
aI2
aI21
aI6
aI55
aI13
aI27
aI28
aI5
asVhttps://www.reddit.com/r/RESissues/comments/119c3d/bug_imgur_album_previews_dont_correctly_handle/
p1015
(lp1016
I52
aI27
aI24
aI20
aI17
aI14
aI17
aI9
aI9
asVhttps://www.reddit.com/r/buildapcforme/comments/1hoe1p/1400_gamingreddit_machine/
p1017
(lp1018
I502
aI167
aI50
aI50
aI3
aI11
asVhttps://www.reddit.com/r/feedthebeast/comments/2uz5qk/blood_magic_questions/
p1019
(lp1020
I79
aI42
aI34
aI27
aI41
aI10
aI7
aI3
aI44
asVhttps://www.reddit.com/r/bloodborne/comments/30gpqm/need_help_with_a_certain_boss_spoilers/
p1021
(lp1022
I1
aI111
aI15
aI1
aI10
aI1
aI2
asVhttps://www.reddit.com/r/gardening/comments/3gtx5g/help_with_growing_my_roses/
p1023
(lp1024
I74
aI74
aI61
aI21
aI55
aI39
aI28
aI9
aI28
asVhttps://www.reddit.com/r/todayilearned/comments/45ny8m/til_nhl_goalies_are_not_allowed_to_be_named/
p1025
(lp1026
I0
aI58
aI31
aI15
aI8
aI9
aI7
aI7
aI9
aI26
aI5
aI2
aI1
aI2
aI2
aI12
aI15
aI13
aI17
aI13
aI6
aI16
asVhttps://www.reddit.com/r/Motocross/comments/1recbs/toy_hauler_and_my_odd_friend/
p1027
(lp1028
I0
aI6
aI8
aI22
aI21
aI19
aI5
asVhttps://www.reddit.com/r/feedthebeast/comments/40jol8/may_someone_answer_these_questions_about/
p1029
(lp1030
I185
aI85
aI39
aI51
aI31
aI54
aI47
aI20
aI28
asVhttps://www.reddit.com/r/hometheater/comments/498ui1/newbie_wanting_to_gradually_upgrade/
p1031
(lp1032
I149
aI49
aI70
aI56
aI90
aI13
aI72
aI43
aI23
aI34
aI121
aI11
aI12
aI1
asVhttps://www.reddit.com/r/stopsmoking/comments/lfgd2/24_hours_without_a_cigarette/
p1033
(lp1034
I107
aI134
aI104
aI110
aI53
aI57
aI83
aI18
aI115
aI109
aI56
aI79
aI50
aI15
asVhttps://www.reddit.com/r/pokemon/comments/1nxqoi/looking_for_fellow_pokemon_trainers_for_x_and_y/
p1035
(lp1036
I39
aI31
aI41
aI32
asVhttps://www.reddit.com/r/runescape/comments/nybu0/ask_me_anything_runescape_related/
p1037
(lp1038
I20
aI3
aI74
aI3
aI5
aI39
aI34
aI4
aI29
aI8
aI3
aI2
aI26
aI56
aI17
aI72
aI13
aI5
aI9
aI6
aI31
aI13
aI49
aI5
asVhttps://www.reddit.com/r/Fantasy/comments/1947m0/all_three_mongoliad_books_on_sale_for_299_now/
p1039
(lp1040
I153
aI9
aI30
aI52
aI20
aI55
aI37
aI27
aI11
aI21
aI35
aI13
asVhttps://www.reddit.com/r/fifthworldproblems/comments/24nmxj/long_lost_half_brother_zalthor_speaks_ama/
p1041
(lp1042
I139
aI8
aI6
aI6
aI8
aI32
aI42
aI5
aI21
aI7
aI27
aI8
aI15
aI19
aI38
aI28
aI17
aI23
aI14
aI4
aI13
aI8
aI10
aI37
aI36
aI9
aI31
aI11
aI83
aI6
aI22
aI11
aI3
aI2
asVhttps://www.reddit.com/r/whowouldwin/comments/1b5ocp/the_presence_vs_the_oneaboveall/
p1043
(lp1044
I56
aI42
aI8
aI14
aI31
aI1
aI35
aI97
aI38
aI31
aI20
aI12
aI27
aI34
aI26
aI122
aI56
aI67
aI58
aI75
asVhttps://www.reddit.com/r/gaymers/comments/npwnf/told_my_mom_im_bisexual_and_it_went_splendidlynow/
p1045
(lp1046
I56
aI49
aI24
aI18
aI142
aI2
aI65
aI63
aI15
aI17
aI19
aI40
asVhttps://www.reddit.com/r/engineering/comments/4475r4/looking_for_control_systems_text_book/
p1047
(lp1048
I52
aI54
aI28
aI56
aI19
aI377
aI213
aI209
aI3
aI56
asVhttps://www.reddit.com/r/learnprogramming/comments/315d08/finding_the_mode_of_a_double_array_java/
p1049
(lp1050
I11
aI11
aI47
aI54
aI19
aI51
aI2
aI9
asVhttps://www.reddit.com/r/electronic_cigarette/comments/1c2od5/universal_passthrough/
p1051
(lp1052
I24
aI21
aI23
aI54
aI10
aI3
aI38
aI41
aI16
aI11
aI19
asVhttps://www.reddit.com/r/smallbusiness/comments/184zks/if_a_business_doesnt_turn_a_profit_does_not/
p1053
(lp1054
I90
aI74
aI84
aI186
aI70
aI60
aI107
aI14
aI81
aI6
aI47
aI34
aI38
aI25
aI116
aI33
asVhttps://www.reddit.com/r/guns/comments/dd9us/what_do_you_do_with_defective_ammo/
p1055
(lp1056
I85
aI48
aI159
aI47
aI7
aI21
aI43
aI15
aI67
aI38
aI58
aI37
aI59
aI36
aI33
aI61
aI24
aI25
aI33
aI31
aI2
aI44
asVhttps://www.reddit.com/r/DotA2/comments/2oph3u/nonenglish_speakers_abusing_us_english_queue/
p1057
(lp1058
I206
aI71
aI3
aI31
aI5
aI35
aI47
aI57
aI8
aI25
aI24
aI39
aI43
aI10
aI14
aI24
aI15
aI13
aI38
aI11
aI29
aI35
aI48
aI100
aI38
aI61
aI85
aI27
aI76
aI137
aI9
aI32
aI10
asVhttps://www.reddit.com/r/ClickerHeroes/comments/2mnejq/so_i_am_at_the_point_of_my_first_heroes_easily/
p1059
(lp1060
I133
aI271
aI30
aI51
aI14
aI42
aI111
aI57
aI50
aI23
asVhttps://www.reddit.com/r/wheeloftimerp/comments/3fqrmp/children_in_mindea/
p1061
(lp1062
I117
aI426
aI5
aI296
aI241
aI94
aI300
aI205
aI413
aI173
asVhttps://www.reddit.com/r/doctorwho/comments/3aywbh/doctor_who_a_companions_perspective/
p1063
(lp1064
I1180
aI34
aI201
aI19
aI27
aI8
aI27
asVhttps://www.reddit.com/r/politics/comments/nzce4/somebody_understands_debt/
p1065
(lp1066
I17
asVhttps://www.reddit.com/r/askphilosophy/comments/376njf/which_school_of_philosophy_do_you_think_you/
p1067
(lp1068
I44
aI154
aI54
aI222
aI107
aI31
aI208
aI45
aI164
aI100
aI134
aI92
aI13
aI27
aI50
aI57
aI56
aI25
aI6
aI3
aI14
aI4
aI76
aI66
aI59
aI211
aI120
aI62
aI2
aI46
aI88
aI117
aI7
aI44
aI100
aI260
aI15
aI17
aI106
aI30
aI25
asVhttps://www.reddit.com/r/wow/comments/4e3rl6/just_got_to_panda_with_my_dk_whats_the_most_asian/
p1069
(lp1070
I43
aI53
aI17
aI15
aI16
aI12
aI2
asVhttps://www.reddit.com/r/YamakuHighSchool/comments/2pcxvh/on_the_school_roof_alone_crying/
p1071
(lp1072
I78
aI36
aI7
asVhttps://www.reddit.com/r/techsupport/comments/3c2tl6/new_ssd_wont_act_as_a_boot_drive/
p1073
(lp1074
I490
aI76
aI10
aI16
aI51
aI5
aI45
aI63
aI30
aI41
asVhttps://www.reddit.com/r/Dublin/comments/1d8bk1/places_to_go_on_a_saturday_night_alone/
p1075
(lp1076
I52
aI82
aI28
aI53
aI28
aI52
aI11
aI14
aI162
aI33
aI32
asVhttps://www.reddit.com/r/SteamTradingCards/comments/1l249y/question_can_someone_explain_foil_cards_for_me/
p1077
(lp1078
I33
aI41
aI1
aI26
aI38
aI23
asVhttps://www.reddit.com/r/explainlikeimfive/comments/1rsvyx/eli5_how_would_a_gun_fire_in_space/
p1079
(lp1080
I0
aI14
aI55
aI26
aI82
aI10
aI14
aI26
asVhttps://www.reddit.com/r/tf2/comments/4a748r/things_tf2_players_say_animation/
p1081
(lp1082
I27
aI8
aI8
aI16
aI10
aI3
aI22
aI4
aI4
aI10
aI50
aI3
aI6
aI4
aI9
aI11
aI7
aI6
aI45
aI33
aI9
aI10
aI1
aI1
aI3
aI6
aI8
aI2
aI21
aI23
aI53
aI3
aI7
aI4
aI22
aI25
aI25
aI5
aI80
asVhttps://www.reddit.com/r/SuggestALaptop/comments/2vxnhp/do_i_need_a_discrete_graphics_card_if_i_dont_play/
p1083
(lp1084
I188
aI19
aI39
aI30
aI8
aI28
aI27
aI26
aI43
aI30
asVhttps://www.reddit.com/r/silenthill/comments/2dyjiu/interactions_with_lisa/
p1085
(lp1086
I516
aI151
aI111
aI55
aI102
aI42
aI307
aI7
aI23
aI32
aI44
aI59
aI29
aI40
aI22
aI27
aI18
aI28
aI16
aI128
aI23
aI18
aI36
aI65
aI29
aI32
aI15
aI63
aI20
aI86
aI85
aI9
aI13
aI62
aI122
asVhttps://www.reddit.com/r/snakes/comments/144ca0/het_pied_female_ball_ate_her_first_mouse_after/
p1087
(lp1088
I209
aI43
aI8
aI46
aI13
aI61
aI60
aI47
aI23
asVhttps://www.reddit.com/r/snakes/comments/10qvst/dry_scales/
p1089
(lp1090
I1
aI121
aI14
aI203
aI47
aI12
asVhttps://www.reddit.com/r/jailbreak/comments/2r5m8x/helpquestionios_811_batterylife_caused_safe_mode/
p1091
(lp1092
I68
aI49
aI15
aI3
aI9
aI20
asVhttps://www.reddit.com/r/legaladvice/comments/1uks9e/ga_lawyer_misspelled_my_mothers_name_for_a_power/
p1093
(lp1094
I101
aI12
aI3
aI12
aI57
aI18
aI15
aI71
aI12
aI25
aI51
aI10
aI21
aI14
aI33
aI11
asVhttps://www.reddit.com/r/legaladvice/comments/1l7v8q/someone_put_my_family_in_serious_danger_but_it/
p1095
(lp1096
I311
aI31
aI31
aI131
aI16
aI69
aI16
aI49
aI50
aI9
aI36
aI71
asVhttps://www.reddit.com/r/AskTrumpSupporters/comments/4lt2ye/how_much_do_you_think_the_wall_would_cost_us/
p1097
(lp1098
I12
aI4
aI23
aI23
aI8
aI4
aI1
aI9
aI10
aI7
aI3
aI12
asVhttps://www.reddit.com/r/photography/comments/bz4iz/trying_to_find_a_gps_logger_to_geoencode_photos/
p1099
(lp1100
I256
aI115
aI14
aI100
aI43
aI24
aI16
aI21
aI45
aI59
aI27
aI138
aI25
aI10
aI10
asVhttps://www.reddit.com/r/ecigclassifieds/comments/4bf09g/wtb_dr_crimmys_banana_pudding_3mg_clone/
p1101
(lp1102
I8
aI9
aI4
aI15
aI6
aI68
aI8
aI29
asVhttps://www.reddit.com/r/depression/comments/22b9x9/i_dont_know_how_to_deal_with_this/
p1103
(lp1104
I311
aI152
aI133
aI88
aI16
aI13
aI3
asVhttps://www.reddit.com/r/breakingbad/comments/1l6ghy/i_need_the_ricin_explained/
p1105
(lp1106
I51
aI534
aI62
aI4
aI11
aI125
aI133
aI156
aI19
aI79
aI54
aI48
aI44
aI128
aI32
aI203
asVhttps://www.reddit.com/r/AskMen/comments/12cyac/askmen_i_need_your_help/
p1107
(lp1108
I91
aI17
aI32
aI8
aI14
aI41
aI5
aI2
aI1
aI33
aI4
aI17
aI3
aI2
aI23
aI57
aI29
aI33
aI46
aI4
aI7
aI22
asVhttps://www.reddit.com/r/learnmath/comments/3anfse/college_calc_1_the_derivative_of_fxx/
p1109
(lp1110
I43
aI28
aI35
aI49
aI19
aI151
aI13
aI239
aI18
aI22
aI16
aI126
aI37
aI29
aI13
aI24
asVhttps://www.reddit.com/r/gaming/comments/15jcpa/my_buddy_also_a_redditor_just_walked_in_and_gave/
p1111
(lp1112
I0
aI9
aI17
aI1
aI37
aI26
asVhttps://www.reddit.com/r/learnprogramming/comments/2u79ui/i_dont_know_what_language_i_should_use/
p1113
(lp1114
I127
aI53
aI62
aI65
aI72
aI29
aI22
asVhttps://www.reddit.com/r/BabyBumps/comments/2syo4a/god_help_me_my_husband_is_out_of_prozac/
p1115
(lp1116
I288
aI61
aI60
aI91
aI28
aI135
aI144
aI15
aI49
aI19
aI45
aI72
aI72
aI6
aI16
aI15
asVhttps://www.reddit.com/r/techsupport/comments/38f1jk/which_monitor_is_better/
p1117
(lp1118
I66
aI10
aI61
aI43
aI121
aI51
aI54
aI57
aI69
aI29
asVhttps://www.reddit.com/r/amiibo/comments/38dfzc/for_those_that_ordered_from_zavvi_and_it_still/
p1119
(lp1120
I170
aI24
aI5
aI3
aI6
aI4
aI23
aI5
aI18
asVhttps://www.reddit.com/r/blackdesertonline/comments/47vvn1/launcher_doesnt_recognize_gpu/
p1121
(lp1122
I66
aI49
aI26
aI16
aI154
aI30
aI60
aI61
aI22
aI18
aI26
aI15
aI14
aI33
asVhttps://www.reddit.com/r/leagueoflegends/comments/maaj3/what_the_hell_happened_to_jiji/
p1123
(lp1124
I126
aI14
aI58
aI135
aI50
aI4
aI3
aI9
aI54
aI6
aI10
aI4
aI130
aI128
aI45
aI16
aI32
aI3
aI24
aI12
aI35
aI49
aI20
aI22
aI12
aI11
aI35
aI58
aI19
aI72
aI30
aI21
aI8
aI80
aI54
aI119
aI57
aI273
aI46
aI7
aI21
asVhttps://www.reddit.com/r/atheism/comments/x4tgk/a_thought_that_has_occurred_to_me_about/
p1125
(lp1126
I82
aI46
aI76
aI93
aI19
aI32
aI23
aI11
aI27
aI35
aI48
asVhttps://www.reddit.com/r/playark/comments/3abtzw/suggestionright_mouseclick_on_certain_mountable/
p1127
(lp1128
I38
aI29
aI27
aI41
aI17
aI16
aI13
aI7
aI48
aI45
aI17
aI6
asVhttps://www.reddit.com/r/tf2/comments/1tkkfc/can_i_get_some_advice_on_a_trade/
p1129
(lp1130
I116
aI18
aI18
aI43
aI12
aI12
aI14
aI33
aI9
asVhttps://www.reddit.com/r/penpals/comments/2q1zba/24faus_for_penpalsemail_need_to_practice_spanish/
p1131
(lp1132
I45
aI16
aI28
aI21
aI43
aI18
aI1
aI1
aI43
aI5
aI14
aI11
asVhttps://www.reddit.com/r/letsplay/comments/3itasy/i_got_a_mcn_invite_for_the_music_nations_network/
p1133
(lp1134
I125
aI11
aI13
aI17
aI31
aI24
aI17
aI26
aI14
aI58
asVhttps://www.reddit.com/r/emulation/comments/1jgcsd/a_question_about_using_an_external_hard_drive/
p1135
(lp1136
I62
aI42
aI5
aI29
aI18
aI30
aI12
aI10
aI31
aI24
asVhttps://www.reddit.com/r/pcmasterrace/comments/2loi4l/pcmr_1st_world_problemas/
p1137
(lp1138
I22
aI12
aI21
aI9
aI7
aI34
asVhttps://www.reddit.com/r/evedreddit/comments/lvlgx/ya_know_i_love_eve_and_dreddittest_but_damn_it_is/
p1139
(lp1140
I175
aI14
aI55
aI13
aI18
aI39
aI27
aI14
aI8
aI25
aI33
aI38
aI6
aI3
aI1
aI8
aI8
aI27
aI5
aI34
aI37
aI12
aI10
aI10
aI4
aI18
asVhttps://www.reddit.com/r/fakeid/comments/2ikjy9/need_bank_statement_template_boachasewf/
p1141
(lp1142
I26
aI29
aI15
aI13
aI7
aI24
aI8
aI21
aI8
aI27
aI58
aI36
aI13
aI23
aI15
aI117
aI34
aI12
aI22
aI24
aI1
aI10
aI43
aI6
aI28
aI20
aI17
aI22
aI46
aI29
aI27
asVhttps://www.reddit.com/r/DnD/comments/4h1veh/barbarian_backstory_help/
p1143
(lp1144
I57
aI19
aI145
aI9
aI13
aI60
aI11
aI37
aI17
aI6
aI6
aI35
aI5
aI7
aI21
aI42
aI15
aI16
asVhttps://www.reddit.com/r/changemyview/comments/2d1cqq/cmv_the_opposite_opinion_on_the_eternal_fat_vs/
p1145
(lp1146
I555
aI253
aI77
aI77
aI387
aI7
aI83
aI60
aI292
aI20
aI29
aI43
aI48
aI81
aI29
aI69
aI128
aI13
aI94
aI41
aI80
aI92
aI98
aI46
aI12
aI64
aI59
aI12
asVhttps://www.reddit.com/r/webdev/comments/1zqv4n/newbie_looking_at_setting_up_a_web_server/
p1147
(lp1148
I91
aI12
aI25
aI41
aI43
aI26
aI70
aI49
aI11
aI5
aI10
asVhttps://www.reddit.com/r/techsupport/comments/p7zkj/pc_audio_problems_even_after_driver_reinstall/
p1149
(lp1150
I37
aI26
aI17
aI18
aI37
aI8
aI50
aI12
aI34
aI39
asVhttps://www.reddit.com/r/DarkSouls3JPN/comments/4ck4jh/yuria_quest/
p1151
(lp1152
I24
aI141
aI22
aI11
aI12
aI37
aI41
asVhttps://www.reddit.com/r/web_design/comments/32skhj/a_website_that_shows_use_of_color_in_movies/
p1153
(lp1154
I26
aI46
aI20
aI7
aI16
aI17
asVhttps://www.reddit.com/r/Earwolf/comments/1p4383/comedy_bang_bang_episode_251_the_bed_spoiler_with/
p1155
(lp1156
I0
aI28
aI13
aI5
aI8
aI28
aI13
aI10
aI20
aI11
aI14
asVhttps://www.reddit.com/r/soccer/comments/25ygby/long_post_a_review_of_phil_mcnultys_louis_van/
p1157
(lp1158
I1567
aI12
aI7
aI21
aI18
aI47
aI62
aI106
aI90
aI79
asVhttps://www.reddit.com/r/answers/comments/1fbhox/does_the_vibration_rate_of_a_particle_correspond/
p1159
(lp1160
I7
aI100
aI101
aI94
aI26
aI94
aI32
aI54
aI48
asVhttps://www.reddit.com/r/malefashionadvice/comments/38vqnl/university_backpack_recommendations/
p1161
(lp1162
I220
aI203
aI314
aI45
aI24
aI124
aI10
aI35
asVhttps://www.reddit.com/r/AskReddit/comments/3fq9y8/can_you_spread_your_toes/
p1163
(lp1164
I20
aI20
aI10
aI2
aI7
aI9
aI30
aI18
aI10
aI10
aI9
aI13
aI19
aI4
aI10
aI17
aI14
aI8
asVhttps://www.reddit.com/r/syriancivilwar/comments/1xqgcz/i_just_returned_from_a_syrian_town_controlled_by/
p1165
(lp1166
I19
aI15
aI23
aI17
aI47
aI20
aI19
aI17
aI28
aI113
aI59
aI38
aI102
aI31
aI43
aI134
aI25
aI57
aI9
aI37
aI12
aI156
aI14
asVhttps://www.reddit.com/r/weightlifting/comments/33y41a/some_nice_prs_and_a_few_questionstips_wanted_62kg/
p1167
(lp1168
I265
aI45
aI40
aI56
aI29
aI10
aI15
aI23
aI54
aI17
aI4
aI6
aI2
asVhttps://www.reddit.com/r/blackops3/comments/48y1em/anyone_else_constantly_have_their_character_fail/
p1169
(lp1170
I23
aI26
aI45
aI29
aI26
aI4
aI8
asVhttps://www.reddit.com/r/dayz/comments/1tfqrl/the_mods_soundtrack/
p1171
(lp1172
I208
aI3
aI10
aI19
aI18
aI17
aI3
asVhttps://www.reddit.com/r/Aquariums/comments/p6052/puffers_barbs_and_stocking/
p1173
(lp1174
I1
aI34
aI85
aI112
aI102
aI71
aI30
aI21
aI8
aI45
aI1
asVhttps://www.reddit.com/r/oblivion/comments/ifvsp/question_regarding_hotkeys_please_help/
p1175
(lp1176
I64
aI18
aI23
aI36
aI17
aI17
aI17
aI239
aI59
aI55
aI5
asVhttps://www.reddit.com/r/sex/comments/35elrf/advice_numbness_when_im_with_my_girlfriend_please/
p1177
(lp1178
I233
aI48
aI65
aI10
aI92
aI36
aI47
aI85
aI30
aI50
aI48
aI72
aI30
aI5
aI49
aI45
aI11
aI48
aI17
aI3
aI71
aI67
aI13
aI65
asVhttps://www.reddit.com/r/Nootropics/comments/3iyzwo/why_doesnt_memantine_work_for_me_and_is_there/
p1179
(lp1180
I400
aI57
aI176
aI31
aI104
aI51
aI36
aI71
aI38
aI100
aI100
aI66
aI6
aI42
aI40
aI14
aI18
aI8
aI6
aI18
aI36
aI4
aI3
asVhttps://www.reddit.com/r/cosplay/comments/1k815j/help_hal_octacon_emmerich_cosplay/
p1181
(lp1182
I66
aI21
aI40
aI54
aI16
aI15
asVhttps://www.reddit.com/r/pumparum/comments/4gxe2e/ps46_w_hornet_ring_h_bloodlust/
p1183
(lp1184
I16
aI5
aI15
aI14
aI4
aI1
aI16
aI16
asVhttps://www.reddit.com/r/batman/comments/2k88bq/just_finished_reading_the_long_halloween_for_the/
p1185
(lp1186
I45
aI32
aI46
aI31
aI12
aI41
aI4
aI25
aI17
aI85
aI4
aI33
aI68
aI4
aI22
aI31
asVhttps://www.reddit.com/r/homechemistry/comments/3apfyf/precautions_for_low_flash_point_liquids/
p1187
(lp1188
I28
aI71
aI45
aI167
aI4
aI122
aI4
aI18
aI111
aI14
aI17
aI33
aI67
aI37
asVhttps://www.reddit.com/r/crochet/comments/29dtve/i_was_at_work_earlier_and_couldnt_wait_to_get/
p1189
(lp1190
I6
aI15
aI74
aI19
aI26
aI36
aI22
aI9
aI78
aI7
aI104
aI14
aI20
aI60
aI10
aI10
aI6
aI3
aI14
asVhttps://www.reddit.com/r/pharmacy/comments/37av93/how_to_work_as_a_clinical_pharmacist_in_the/
p1191
(lp1192
I68
aI109
aI4
aI26
aI2
aI4
aI17
aI15
aI54
asVhttps://www.reddit.com/r/askscience/comments/1q387f/how_do_orbitals_intersect_each_other/
p1193
(lp1194
I131
aI200
aI49
aI42
aI151
aI151
aI36
aI219
aI77
aI57
aI59
aI38
aI22
asVhttps://www.reddit.com/r/atheism/comments/3fa0he/convert_to_islam_google_ad_on_imgur_that_i_keep/
p1195
(lp1196
I48
aI9
aI79
aI12
aI51
aI15
aI57
aI11
aI111
aI25
aI42
aI24
aI20
aI28
aI15
aI38
aI2
aI40
aI34
aI6
aI2
aI14
aI4
aI22
aI26
aI5
aI30
aI23
aI105
aI37
aI15
asVhttps://www.reddit.com/r/pcgaming/comments/288lx8/noob_here_can_i_upgrade_integrated_graphics/
p1197
(lp1198
I18
aI57
aI10
aI12
aI6
aI15
aI3
aI11
aI49
aI12
aI2
aI4
aI43
asVhttps://www.reddit.com/r/deftones/comments/33s6sc/going_to_my_first_deftones_concert_always_been_a/
p1199
(lp1200
I57
aI21
aI51
aI62
aI35
aI6
aI248
aI72
aI76
aI45
aI150
aI2
aI15
aI110
aI72
aI5
aI37
aI28
aI70
aI53
aI3
aI11
aI64
aI30
aI48
aI20
aI30
aI24
aI11
aI6
asVhttps://www.reddit.com/r/depression/comments/1h4yhr/anything_to_help_me_get_started_each_day/
p1201
(lp1202
I264
aI76
aI97
aI36
aI36
aI43
aI30
asVhttps://www.reddit.com/r/Instagram/comments/3zigdk/is_it_easier_to_gain_followers_the_more_followers/
p1203
(lp1204
I54
aI8
aI36
aI145
aI68
aI9
aI23
aI18
aI11
aI65
aI45
aI42
aI4
aI34
aI13
aI4
asVhttps://www.reddit.com/r/askscience/comments/4ko9n6/are_there_any_pathogenic_to_humans_archaea/
p1205
(lp1206
I0
aI71
aI32
aI77
aI20
aI1
aI86
aI34
asVhttps://www.reddit.com/r/hotlinemiamimaps/comments/4cm5iq/destructible_doors_mod_test_map/
p1207
(lp1208
I56
aI61
aI47
aI26
aI114
aI57
aI47
aI33
aI42
aI53
aI29
aI22
aI31
aI25
aI44
asVhttps://www.reddit.com/r/offmychest/comments/1d4cmk/this_is_my_life/
p1209
(lp1210
I47
aI14
aI28
aI2
aI36
aI43
aI19
aI14
aI6
aI6
aI17
aI15
aI34
aI10
aI111
aI23
aI26
aI10
aI6
aI17
aI5
aI26
aI12
aI9
aI8
aI68
aI16
aI16
aI59
aI1
aI9
aI25
aI41
aI3
aI13
aI23
aI3
aI27
aI4
asVhttps://www.reddit.com/r/Showerthoughts/comments/1lddvq/what_if_everything_i_do_is_predetermined_and_i/
p1211
(lp1212
I29
aI33
aI6
aI2
aI71
aI11
aI24
aI34
aI37
aI17
aI20
asVhttps://www.reddit.com/r/radiohead/comments/4eadwl/deep_inside_the_mind_of_thom_yorke/
p1213
(lp1214
I0
aI5
aI2
aI3
aI3
aI8
aI8
aI9
aI9
aI2
asVhttps://www.reddit.com/r/adventuretime/comments/447f0u/season_7_vs_season_6/
p1215
(lp1216
I298
aI211
aI899
aI233
aI44
aI75
aI55
aI39
aI142
aI37
aI230
aI325
aI7
aI24
aI8
aI108
aI152
aI56
aI161
aI175
aI252
aI270
aI67
aI173
aI20
aI2
asVhttps://www.reddit.com/r/legaladvice/comments/1ck8zm/insurance_reimbursement_check/
p1217
(lp1218
I255
aI5
aI117
aI62
aI58
aI36
aI8
aI149
aI8
aI31
aI28
aI12
aI26
aI73
asVhttps://www.reddit.com/r/whowouldwin/comments/3cnnx4/feudal_japan_vs_any_feudal_western_european/
p1219
(lp1220
I309
aI41
aI20
aI5
aI10
aI618
aI43
aI8
aI73
aI64
aI48
aI40
aI589
aI1289
aI10
aI34
aI97
aI1
aI71
aI537
aI42
aI136
aI149
aI135
aI213
asVhttps://www.reddit.com/r/oculus/comments/2dzyzk/world_scale_way_off_in_most_demosgames/
p1221
(lp1222
I309
aI26
aI45
aI20
aI35
aI321
aI26
aI59
aI89
aI61
aI190
aI93
aI136
aI6
aI6
aI18
aI83
aI58
aI65
aI15
aI66
aI17
aI209
aI43
aI201
aI39
aI132
aI29
aI35
aI37
aI358
aI33
aI42
aI6
aI36
aI62
aI73
aI12
aI19
aI80
asVhttps://www.reddit.com/r/beyondthebump/comments/250yu7/finally/
p1223
(lp1224
I151
aI27
aI85
aI57
aI30
aI55
aI10
asVhttps://www.reddit.com/r/techsupport/comments/2rc17g/broken_external_hard_drive_how_can_i_get_the/
p1225
(lp1226
I151
aI32
aI49
aI17
aI5
aI72
aI35
aI11
aI63
aI44
aI42
aI37
aI21
asVhttps://www.reddit.com/r/magicTCG/comments/3xvo0f/why_is_everyone_siding_with_the_suspended_judges/
p1227
(lp1228
I286
aI333
aI79
aI26
aI136
aI20
aI4
aI47
aI48
aI108
aI37
aI62
aI162
aI58
aI71
aI51
aI15
aI32
aI21
aI69
aI5
aI8
aI50
aI29
aI47
aI36
aI50
aI2
aI35
aI23
asVhttps://www.reddit.com/r/trans/comments/3dlxe2/very_new_to_the_transgender_scene/
p1229
(lp1230
I70
aI26
aI9
aI16
aI39
aI14
aI35
aI70
asVhttps://www.reddit.com/r/fittings/comments/454j8i/r_solo_pvp_hurricane_fleet_issue/
p1231
(lp1232
I100
aI16
aI12
aI245
aI97
aI2
asVhttps://www.reddit.com/r/dogemining/comments/1yof42/3x_hd_7750s_or_2x_r9_290xs_in_crossfire/
p1233
(lp1234
I62
aI102
aI9
aI7
aI19
aI28
aI46
aI35
aI30
aI12
aI49
aI20
aI11
aI35
aI34
aI1
aI14
aI12
aI20
asVhttps://www.reddit.com/r/Scapecraft/comments/2p7flr/help_with_installing_mod/
p1235
(lp1236
I70
aI89
aI38
aI17
aI12
aI12
aI22
aI50
aI39
aI91
asVhttps://www.reddit.com/r/leagueoflegends/comments/11amyn/clgeu_has_such_a_positive_attitude/
p1237
(lp1238
I65
aI12
aI17
aI12
aI102
aI16
aI16
aI23
aI6
aI75
aI38
aI5
aI74
aI24
aI19
aI8
aI4
aI26
aI36
aI10
aI13
aI35
aI6
aI1
aI21
aI155
aI2
aI17
aI8
aI8
aI11
aI68
aI10
aI6
aI4
aI5
aI5
aI6
aI4
aI4
aI7
asVhttps://www.reddit.com/r/synthesizers/comments/4g9pei/recording_yamaha_dx21_too_quiet/
p1239
(lp1240
I183
aI173
aI28
aI31
aI325
aI16
aI31
aI43
aI213
aI15
aI47
aI218
aI86
aI696
aI170
aI12
asVhttps://www.reddit.com/r/DebateReligion/comments/4137aj/simple_questions_0115/
p1241
(lp1242
I104
aI9
aI24
aI22
aI16
aI15
aI22
aI61
aI34
aI77
aI20
aI50
aI48
aI43
aI23
aI67
aI24
aI21
aI65
aI45
aI28
aI25
aI270
aI27
aI30
aI63
aI36
aI56
aI18
aI368
aI14
aI24
aI44
aI108
aI24
aI162
asVhttps://www.reddit.com/r/personalfinance/comments/17c07i/looking_for_some_advice_on_how_to_raise_my_credit/
p1243
(lp1244
I81
aI12
aI106
aI87
aI20
aI14
aI150
aI42
aI202
aI152
aI36
aI24
aI67
aI49
aI16
aI11
aI108
aI7
aI41
asVhttps://www.reddit.com/r/bodyweightfitness/comments/ubxth/two_personal_firsts_today/
p1245
(lp1246
I100
aI1
aI2
aI66
aI30
aI31
aI7
aI11
aI8
aI115
aI33
aI19
aI26
aI82
aI7
aI15
aI1
aI1
aI49
aI74
aI214
aI38
asVhttps://www.reddit.com/r/makeupexchange/comments/2aa5o0/sell_bobbi_brown_eye_smudge_brush/
p1247
(lp1248
I118
aI49
aI29
aI17
aI2
aI13
asVhttps://www.reddit.com/r/2007scape/comments/2x3amn/can_i_use_this_ahk_script/
p1249
(lp1250
I52
aI25
aI1
aI1
aI59
aI37
aI16
aI26
aI24
aI9
asVhttps://www.reddit.com/r/hockey/comments/371k9d/can_someone_explain_gretzkys_dominance_people/
p1251
(lp1252
I130
aI224
aI86
aI13
aI138
aI67
aI156
aI161
aI173
aI30
aI12
aI323
aI34
aI24
aI101
aI9
aI86
aI84
aI134
aI73
aI36
aI24
aI54
aI112
aI51
aI45
aI52
aI40
aI7
aI2
aI37
aI26
aI8
aI10
aI8
aI2
aI15
aI48
aI45
aI5
aI5
asVhttps://www.reddit.com/r/fountainpens/comments/3ykb05/twsbi_580_leaking/
p1253
(lp1254
I71
aI26
aI18
aI31
aI39
aI77
aI64
asVhttps://www.reddit.com/r/torrents/comments/1d8m8i/is_there_an_aggregated_list_of_allowed_clients/
p1255
(lp1256
I36
aI89
aI47
aI55
aI35
aI208
aI126
aI173
aI149
asVhttps://www.reddit.com/r/pathofexile/comments/1tli7d/so_apparently_i_found_a_good_item_and_now_i_cant/
p1257
(lp1258
I140
aI40
aI65
aI12
aI9
aI16
aI31
aI11
aI25
aI40
aI10
aI3
aI8
aI6
aI12
asVhttps://www.reddit.com/r/coins/comments/3cek5z/very_faint_o_in_monticello/
p1259
(lp1260
I0
aI3
aI4
aI20
aI9
aI11
asVhttps://www.reddit.com/r/MaxMSP/comments/3ihbbn/smoothing_jumps_in_sensor_data_stream/
p1261
(lp1262
I172
aI154
aI105
aI20
aI49
aI55
aI16
aI12
aI26
asVhttps://www.reddit.com/r/pcmasterrace/comments/3xkj6p/possible_click_bait_news_about_hackers/
p1263
(lp1264
I111
aI28
aI22
aI6
aI3
aI64
aI24
aI70
aI17
aI61
aI40
aI8
aI53
aI27
aI31
aI107
aI37
aI110
aI22
aI195
aI161
asVhttps://www.reddit.com/r/trees/comments/edn57/for_you_fellow_ents_choose_a_print_and_its_on_me/
p1265
(lp1266
I144
aI17
aI5
aI13
aI9
aI18
aI13
aI22
aI11
aI6
aI3
aI9
aI48
aI17
aI11
aI10
aI8
aI11
aI8
aI19
aI14
aI12
aI5
aI4
aI38
aI17
aI89
aI21
aI2
aI19
aI20
aI30
aI35
aI16
aI3
aI10
aI6
asVhttps://www.reddit.com/r/odroid_c2/comments/4l91pq/c2_kodi_media_centre/
p1267
(lp1268
I320
aI74
aI20
aI61
aI75
aI55
aI37
aI19
aI83
aI266
aI24
asVhttps://www.reddit.com/r/sales/comments/3j4anv/how_to_deal_with_multiple_decision_makers/
p1269
(lp1270
I43
aI457
aI54
aI84
aI427
aI91
aI126
asVhttps://www.reddit.com/r/muacirclejerk/comments/2g334s/what_do_temptalia_and_other_wellknown_beauty/
p1271
(lp1272
I65
aI69
aI49
aI57
aI18
aI2
aI54
aI62
aI44
aI47
aI82
aI18
asVhttps://www.reddit.com/r/WTF/comments/26vxej/this_is_what_happens_when_hundreds_of_people/
p1273
(lp1274
I0
aI9
aI222
aI14
aI44
aI4
aI5
aI5
aI5
aI3
aI10
aI8
aI23
aI7
aI7
aI3
aI4
aI2
aI29
aI27
aI9
aI3
aI4
aI17
aI7
aI4
aI20
aI7
aI8
aI5
aI3
aI5
aI23
aI20
aI18
aI17
aI12
aI30
aI17
aI5
aI1
asVhttps://www.reddit.com/r/bitcoinxt/comments/3glad4/mike_hearns_plans_for_bitcoin_xt_this_upcoming/
p1275
(lp1276
I108
aI26
aI9
aI18
aI10
aI43
aI18
aI2
asVhttps://www.reddit.com/r/freefolk/comments/36j394/episode_6_unbowed_unbent_unbroken_game_of_face/
p1277
(lp1278
I99
aI33
aI16
aI7
aI95
aI10
aI95
aI169
aI8
aI92
aI119
aI5
aI44
aI10
aI9
aI1
asVhttps://www.reddit.com/r/talesfromcallcenters/comments/28kfio/just_call_center_things/
p1279
(lp1280
I44
aI77
aI9
aI78
aI26
aI31
aI1
aI35
aI20
aI14
aI31
asVhttps://www.reddit.com/r/swtor/comments/rs88o/twilek_hoods_12/
p1281
(lp1282
I42
aI30
aI13
aI5
aI33
aI11
aI44
aI88
aI18
aI34
asVhttps://www.reddit.com/r/guns/comments/422ccv/what_would_happen_if_you_necked_down_a_50_bmg_to/
p1283
(lp1284
I69
aI7
aI21
aI6
aI45
aI96
aI61
aI7
aI15
aI12
aI1
aI8
aI11
aI13
aI2
aI44
aI13
aI16
aI8
aI5
aI15
aI4
aI6
aI20
aI6
aI36
aI12
aI7
aI12
aI21
aI8
aI4
aI5
aI3
aI5
aI10
aI4
aI4
aI9
aI8
aI64
asVhttps://www.reddit.com/r/bicycling/comments/8tdp0/so_i_recently_added_3_extra_miles_to_my_daily/
p1285
(lp1286
I0
aI78
aI35
aI13
aI59
aI70
aI82
aI29
aI1
aI28
aI42
aI23
aI36
aI4
asVhttps://www.reddit.com/r/beadsprites/comments/1psvdk/question_for_the_folks_who_make_keychains/
p1287
(lp1288
I77
aI39
aI72
aI72
aI15
aI35
aI26
aI19
aI11
asVhttps://www.reddit.com/r/AskReddit/comments/8rjdx/reddit_ill_be_leaving_home_and_living_with_some/
p1289
(lp1290
I0
aI15
aI62
aI28
aI3
aI14
aI2
aI10
aI70
aI33
aI26
aI37
aI40
aI1
aI9
aI56
aI49
aI64
aI51
aI25
aI19
aI9
aI82
aI106
aI20
asVhttps://www.reddit.com/r/Mariners/comments/1scgdu/mariners_transactions/
p1291
(lp1292
I86
aI95
aI51
aI53
aI10
aI78
aI87
aI24
aI44
aI23
aI31
aI22
aI18
aI16
aI9
aI13
aI6
aI1
aI2
aI23
aI102
aI99
aI13
aI52
aI5
aI8
aI6
aI7
aI79
aI44
aI37
aI19
aI25
aI118
aI5
aI51
aI14
aI2
aI10
aI6
asVhttps://www.reddit.com/r/archlinux/comments/467dxd/when_upgrading_unresolvable_package_conflicts/
p1293
(lp1294
I147
aI34
aI270
aI20
aI21
aI13
aI112
aI24
aI22
asVhttps://www.reddit.com/r/Pathfinder_RPG/comments/24xyel/ridingrodeo_enemies/
p1295
(lp1296
I63
aI285
aI22
aI19
aI286
aI27
aI149
aI199
aI90
aI38
aI40
aI69
aI67
aI202
aI276
asVhttps://www.reddit.com/r/AskReddit/comments/2inzso/what_would_be_the_best_example_of_competence/
p1297
(lp1298
I25
aI5
aI10
aI4
aI13
aI29
asVhttps://www.reddit.com/r/darksouls/comments/3z1ybp/sens_fortress_pc/
p1299
(lp1300
I15
aI6
aI2
aI11
aI11
aI14
aI2
aI10
aI18
aI8
aI18
aI5
aI12
aI7
aI4
aI8
aI27
aI16
asVhttps://www.reddit.com/r/Repsneakers/comments/2wfsdf/thats_just_too_expensive_for_a_pair_of_ua_yeezy/
p1301
(lp1302
I22
aI33
aI10
aI19
aI67
aI9
aI37
aI6
aI21
aI16
aI5
aI17
aI26
aI2
aI10
aI35
aI16
aI14
aI44
aI8
aI3
aI12
aI36
aI17
aI41
aI16
asVhttps://www.reddit.com/r/trees/comments/29lvyw/does_smoking_weed_effect_appearance_in_the_long/
p1303
(lp1304
I0
aI36
aI16
aI40
aI11
aI7
aI23
aI2
aI22
aI48
aI14
aI7
aI13
aI14
aI21
asVhttps://www.reddit.com/r/darksouls3/comments/4f6d50/someone_help_i_think_i_messed_up_a_quest_line/
p1305
(lp1306
I102
aI14
aI10
aI18
aI7
aI2
asVhttps://www.reddit.com/r/tamrielscholarsguild/comments/1eqi10/20th_of_second_seed_morning_in_the_mountains/
p1307
(lp1308
I309
aI129
aI53
aI73
aI79
aI83
aI126
aI91
aI129
aI67
aI84
aI52
aI80
aI44
aI45
aI32
aI65
asVhttps://www.reddit.com/r/gaming/comments/gbt5u/anyone_else_think_it_a_bit_odd_that_the_3ds_comes/
p1309
(lp1310
I0
aI14
aI22
aI52
aI14
aI31
aI5
aI36
aI5
aI30
aI15
aI23
aI21
aI60
aI83
aI16
aI15
aI14
aI36
aI47
asVhttps://www.reddit.com/r/learndota2/comments/380nzo/whats_the_easiest_way_to_become_a_better/
p1311
(lp1312
I38
aI290
aI93
aI382
aI6
aI53
aI4
aI28
aI21
aI2
aI28
aI10
aI33
aI7
aI81
aI98
aI55
aI16
aI50
aI9
aI16
aI28
aI31
asVhttps://www.reddit.com/r/buildapc/comments/3gcax8/build_ready_1st_gaming_rig_any_suggestions/
p1313
(lp1314
I491
aI36
aI12
aI13
aI33
aI24
aI86
aI36
aI16
aI18
aI329
aI59
aI348
aI28
aI16
aI22
aI33
aI4
aI16
aI22
aI19
aI18
aI3
aI7
aI11
aI56
aI42
aI13
aI15
aI25
aI7
aI23
aI31
aI6
aI28
asVhttps://www.reddit.com/r/bleach/comments/21tdjs/something_that_has_been_bugging_me_a_little/
p1315
(lp1316
I118
aI62
aI18
aI51
aI27
aI11
aI13
aI61
aI4
aI4
aI20
aI12
aI11
aI7
aI15
aI11
aI20
aI4
aI11
aI77
aI43
aI1
aI10
aI30
aI240
aI26
asVhttps://www.reddit.com/r/exchangeserver/comments/21fqpx/exchange_mailbox_server_move_and_outlook_users/
p1317
(lp1318
I176
aI226
aI81
aI23
aI12
aI23
aI6
asVhttps://www.reddit.com/r/explainlikeimfive/comments/1z1vey/eli5_why_in_some_animal_species_is_the_female/
p1319
(lp1320
I20
aI178
aI8
aI22
aI32
aI27
asVhttps://www.reddit.com/r/Gamecocks/comments/2hoxv2/time_to_play_backup_qb/
p1321
(lp1322
I142
aI51
aI109
aI101
aI82
aI55
aI25
aI48
aI8
aI86
aI139
aI19
aI62
aI29
aI454
asVhttps://www.reddit.com/r/C_Programming/comments/1yx7gh/help_plz_array_of_mixed_type/
p1323
(lp1324
I226
aI37
aI68
aI158
aI17
aI31
aI29
aI16
aI61
aI6
asVhttps://www.reddit.com/r/buildapc/comments/1hppqe/troubleshooting_starts_for_a_split_second_and/
p1325
(lp1326
I1
aI17
aI18
aI26
aI25
aI19
aI12
aI41
aI31
aI16
asVhttps://www.reddit.com/r/storyofseasons/comments/31xmtm/looking_for_5_turnip_seeds/
p1327
(lp1328
I143
aI20
aI16
aI31
aI37
aI45
asVhttps://www.reddit.com/r/reddit.com/comments/crx6e/tried_allien_swarm_try_it_then_hit_me_up_so_i/
p1329
(lp1330
I32
aI24
aI15
aI19
aI24
aI13
aI21
aI20
aI17
aI10
aI5
aI4
aI5
aI2
aI3
asVhttps://www.reddit.com/r/DIY/comments/gdaup/weekend_project_update/
p1331
(lp1332
I86
aI22
aI39
aI8
aI14
aI26
aI7
aI36
aI9
aI118
aI95
aI35
aI44
aI17
aI70
aI14
aI36
aI19
aI49
asVhttps://www.reddit.com/r/freefolk/comments/359m6s/question_about_arya_becoming_a_faceless_man/
p1333
(lp1334
I59
aI11
aI37
aI12
aI11
aI25
aI10
aI79
aI59
aI9
aI12
aI5
aI30
aI54
aI33
aI47
aI4
aI20
aI40
aI28
aI22
aI94
aI27
aI61
aI48
asVhttps://www.reddit.com/r/gaming/comments/2m5coi/does_anybody_else_remember_when_cheapassgamer_had/
p1335
(lp1336
I73
aI8
aI19
aI7
aI28
aI8
aI34
aI10
aI3
asVhttps://www.reddit.com/r/slashdiablo/comments/3i9kr5/iso_pally_stuff/
p1337
(lp1338
I17
aI6
aI4
aI5
aI3
aI1
aI9
aI5
aI3
aI2
aI4
aI2
aI3
aI1
asVhttps://www.reddit.com/r/techsupport/comments/38jdyv/awful_980_performance/
p1339
(lp1340
I312
aI18
aI47
aI72
aI136
aI34
aI40
aI49
aI32
asVhttps://www.reddit.com/r/heroesofthestorm/comments/24adpz/looking_for_a_logo_designer_for_my_new_yt_channel/
p1341
(lp1342
I90
aI11
aI9
aI2
aI64
aI40
aI74
asVhttps://www.reddit.com/r/ffxiv/comments/1mam9i/level_questions/
p1343
(lp1344
I19
aI1
aI11
aI21
aI24
aI3
aI12
aI38
aI6
aI41
asVhttps://www.reddit.com/r/DebateAChristian/comments/2pekcg/the_gotcha_questions_and_trap_questions_seem_to/
p1345
(lp1346
I408
aI144
aI33
aI81
aI77
aI252
aI616
aI29
aI30
aI63
aI33
aI56
aI13
aI8
aI70
aI135
aI16
aI72
aI124
aI45
aI58
aI84
aI63
aI11
aI54
aI186
aI40
aI77
aI3
aI73
aI20
aI134
aI108
aI21
aI41
aI51
aI35
aI38
aI69
aI64
asVhttps://www.reddit.com/r/whisky/comments/3ve955/whisky_library_what_to_choose/
p1347
(lp1348
I103
aI162
aI52
aI163
aI133
aI55
aI79
aI19
aI32
aI11
aI22
aI15
aI8
aI9
aI5
aI6
aI20
asVhttps://www.reddit.com/r/worldbuilding/comments/1l6k7f/terraforming_time/
p1349
(lp1350
I90
aI138
aI83
aI61
aI37
aI159
aI22
aI175
aI59
aI4
aI167
aI12
aI32
aI77
aI2
aI8
aI37
aI66
aI20
aI28
aI88
aI25
aI8
aI8
asVhttps://www.reddit.com/r/amazon/comments/3drijc/order_still_hasnt_shipped/
p1351
(lp1352
I37
aI57
aI22
aI72
aI62
aI9
aI52
aI34
aI33
asVhttps://www.reddit.com/r/india/comments/ehq59/india_ama_i_was_molested_as_a_child_once/
p1353
(lp1354
I148
aI23
aI16
aI4
aI13
aI10
aI93
aI24
aI49
aI144
aI8
aI49
aI85
aI39
aI11
asVhttps://www.reddit.com/r/Boxing/comments/1obcg3/any_legitimate_fighting_online_channels/
p1355
(lp1356
I214
aI24
aI29
aI47
aI59
aI48
asVhttps://www.reddit.com/r/design_critiques/comments/1y9887/looking_for_feedback_on_freelance/
p1357
(lp1358
I174
aI95
aI147
aI37
aI17
aI97
aI90
aI12
aI50
aI71
aI28
aI2
asVhttps://www.reddit.com/r/running/comments/v1nh2/last_workout_left_me_hellasore_all_over_whats_the/
p1359
(lp1360
I293
aI4
aI7
aI52
aI7
aI8
aI39
aI53
aI33
aI13
aI24
aI20
aI28
aI6
aI43
aI34
aI20
aI12
asVhttps://www.reddit.com/r/TwoXChromosomes/comments/2p2uf3/hi_twox_i_need_advice_on_a_complicated/
p1361
(lp1362
I643
aI176
aI76
aI78
aI10
aI30
aI183
aI2
aI21
aI40
aI37
aI48
aI72
aI38
asVhttps://www.reddit.com/r/paintball/comments/18n50a/bob_long_defiant_2_maybe/
p1363
(lp1364
I56
aI58
aI54
aI50
aI7
aI1
aI52
aI80
aI29
aI11
asVhttps://www.reddit.com/r/AskReddit/comments/1e275t/post_here_the_funniest_stories_of_your_ap_classes/
p1365
(lp1366
I0
aI12
aI65
aI15
aI34
aI13
aI9
aI13
aI49
aI43
aI9
aI18
asVhttps://www.reddit.com/r/navy/comments/yvawj/navy_advice/
p1367
(lp1368
I58
aI423
aI22
aI38
aI100
aI34
aI32
aI52
aI22
aI29
aI29
aI50
aI33
aI51
aI28
aI22
asVhttps://www.reddit.com/r/buildapcforme/comments/1o9zkt/something_messed_up_and_set_me_back_a_couple_of/
p1369
(lp1370
I358
aI225
aI24
aI27
aI29
aI2
aI21
aI8
aI9
aI9
aI11
aI25
aI11
aI33
aI37
aI19
aI11
aI18
aI12
asVhttps://www.reddit.com/r/techsupport/comments/m5gsh/bios_in_toshiba_laptop_doesnt_detect_hdd/
p1371
(lp1372
I51
aI38
aI41
aI39
aI17
aI16
aI56
aI48
aI28
aI14
asVhttps://www.reddit.com/r/jailbreak/comments/4bafx5/discussion_march_21st_event_megathread/
p1373
(lp1374
I23
aI22
aI13
aI1
aI0
aI4
aI6
aI4
aI22
aI37
aI9
aI6
aI16
aI1
aI4
asVhttps://www.reddit.com/r/photography/comments/4ihwan/how_to_clean_mirror_less_camera_sensor/
p1375
(lp1376
I62
aI17
aI41
aI8
aI26
aI49
aI142
aI44
aI34
aI16
aI6
aI19
aI84
aI8
aI26
aI26
aI20
aI2
aI42
asVhttps://www.reddit.com/r/yugioh/comments/13vhc3/xyz_monster_returning_to_extra_deck_the_xyz/
p1377
(lp1378
I16
aI57
aI25
aI3
aI29
aI22
aI38
aI17
aI30
aI19
aI13
aI8
aI3
aI9
aI5
aI20
aI38
aI8
aI23
aI54
aI70
aI13
aI18
aI3
aI3
aI4
aI1
asVhttps://www.reddit.com/r/ftm/comments/4le9t5/double_design_air_max_binder_review_hint_its/
p1379
(lp1380
I330
aI16
aI21
aI179
aI69
aI128
aI57
aI2
aI40
aI14
aI8
asVhttps://www.reddit.com/r/buildapc/comments/tiqqc/help_blue_spinning_ring_of_death/
p1381
(lp1382
I88
aI10
aI6
aI36
aI5
aI1
aI5
asVhttps://www.reddit.com/r/swtor/comments/143bq3/thinking_of_ways_for_f2p_to_get_around_the_credit/
p1383
(lp1384
I86
aI32
aI64
aI80
aI36
aI28
aI36
aI25
aI5
aI18
aI85
aI10
aI3
asVhttps://www.reddit.com/r/Pathfinder_RPG/comments/395p36/how_would_you_handle_this_situation/
p1385
(lp1386
I79
aI96
aI9
aI37
aI48
aI44
aI107
aI10
aI7
aI102
aI21
aI88
asVhttps://www.reddit.com/r/exalted/comments/4lpa0a/help_with_my_1st_chronicle_how_to_recover_a_soul/
p1387
(lp1388
I495
aI155
aI249
aI152
aI164
aI331
aI158
aI124
aI214
aI96
aI153
aI203
aI77
aI115
aI227
aI167
aI159
aI43
aI101
aI210
aI54
aI127
aI69
aI60
aI176
aI192
aI112
aI226
aI33
aI48
aI180
aI49
aI211
aI44
aI8
aI163
aI349
aI473
aI217
aI254
asVhttps://www.reddit.com/r/skyrim/comments/1hlmz8/ive_just_discovered_an_interesting_secret_dark/
p1389
(lp1390
I1
aI20
aI29
aI10
aI3
aI5
aI4
aI5
aI3
aI8
asVhttps://www.reddit.com/r/offmychest/comments/17j1h7/holy_head_desk_batman_never_try_to_offer_a_i_use/
p1391
(lp1392
I124
aI12
aI32
aI133
aI133
aI128
aI174
asVhttps://www.reddit.com/r/AskReddit/comments/2xmeqy/serious_reddit_if_you_inherited_15_million/
p1393
(lp1394
I11
aI52
aI26
aI44
aI66
aI98
aI20
aI7
aI20
aI28
aI32
aI13
aI18
aI12
aI6
aI23
aI21
aI52
aI11
aI38
aI28
aI32
aI24
aI17
aI8
aI6
aI9
aI40
aI21
aI15
aI15
aI9
asVhttps://www.reddit.com/r/Libertarian/comments/3y0m9v/what_is_the_libertarian_response_to_statists_who/
p1395
(lp1396
I0
aI82
aI161
aI34
aI8
aI20
aI5
aI9
aI20
aI70
aI45
aI78
aI105
aI81
aI76
aI314
asVhttps://www.reddit.com/r/photography/comments/1y7nl6/speed_booster_comparison_ef_lenses_on_panasonic/
p1397
(lp1398
I181
aI71
aI4
aI69
aI25
aI13
aI54
aI41
aI43
aI27
aI35
aI114
aI7
asVhttps://www.reddit.com/r/tf2/comments/107x2h/unboxed_the_pyro_pack_and_the_spy_hat_then_i/
p1399
(lp1400
I0
aI7
aI7
aI15
aI16
aI7
aI32
aI28
aI8
aI65
aI30
aI35
aI10
aI19
aI5
aI49
aI15
aI12
aI25
aI4
aI10
aI16
aI9
aI2
aI4
asVhttps://www.reddit.com/r/trees/comments/lyoaq/abuse/
p1401
(lp1402
I85
aI16
aI53
aI30
aI24
aI8
aI50
aI20
aI11
aI20
aI12
aI18
aI25
aI17
aI16
aI19
aI21
aI6
aI16
aI5
asVhttps://www.reddit.com/r/mflb/comments/ritov/best_batteries_to_use/
p1403
(lp1404
I67
aI9
aI20
aI7
aI20
aI1
aI81
aI5
aI4
aI7
asVhttps://www.reddit.com/r/collapse/comments/1jnf61/hello_rcollapse_id_like_to_inform_my_family_of/
p1405
(lp1406
I120
aI121
aI1
aI182
aI42
aI455
aI89
aI86
aI12
aI11
aI35
aI37
aI8
aI38
aI123
aI123
aI151
aI126
aI55
aI29
aI344
aI48
aI33
aI38
aI17
aI40
aI35
aI140
aI16
aI48
aI48
aI36
aI87
aI36
aI67
aI29
asVhttps://www.reddit.com/r/starcraft/comments/1e3k01/hasuobs_wins_eps_over_socke_31/
p1407
(lp1408
I10
aI88
aI12
aI7
aI77
aI7
aI5
aI27
aI5
aI41
aI68
aI25
aI162
aI38
aI68
asVhttps://www.reddit.com/r/buildapc/comments/35e723/build_help_cant_decide_if_i_want_to_crossfire/
p1409
(lp1410
I197
aI90
aI15
aI16
aI23
aI79
aI2
aI14
aI14
aI4
aI31
aI30
aI53
aI10
aI36
aI15
aI18
aI17
aI9
aI13
aI3
aI10
asVhttps://www.reddit.com/r/conspiro/comments/1njasm/many_japanese_people_suffering_from_recurring/
p1411
(lp1412
I67
aI28
aI30
aI43
aI50
aI85
aI26
aI25
aI44
aI37
aI35
aI50
aI70
aI33
aI29
aI34
aI47
aI31
aI38
aI27
aI23
aI26
aI28
aI29
aI101
aI21
aI23
aI220
aI23
asVhttps://www.reddit.com/r/Terraria/comments/2kbxue/mimic_farm/
p1413
(lp1414
I55
aI29
aI11
aI22
aI31
aI91
aI27
aI24
aI64
aI84
asVhttps://www.reddit.com/r/jailbreak/comments/2nn3dv/is_anyone_working_on_a_bluetooth_fix_for_ios_81/
p1415
(lp1416
I0
aI4
aI72
aI28
aI15
aI41
aI69
aI56
asVhttps://www.reddit.com/r/MechanicAdvice/comments/33lkql/08_cobalt_it_cranks_but_doesnt_start/
p1417
(lp1418
I86
aI23
aI43
aI13
aI18
aI13
aI61
aI21
aI18
aI27
aI18
aI22
aI42
aI66
aI42
asVhttps://www.reddit.com/r/zenfone2/comments/4flbb6/my_screen_went_black/
p1419
(lp1420
I31
aI3
aI1
aI23
aI13
aI1
asVhttps://www.reddit.com/r/sportsbook/comments/2pcsf7/bitcoins_influence_on_online_gambling_and_why/
p1421
(lp1422
I60
aI16
aI31
aI41
aI185
aI20
aI43
aI78
aI16
aI14
aI124
aI46
aI10
aI27
aI62
aI8
aI18
aI12
aI6
aI49
aI5
asVhttps://www.reddit.com/r/buildapc/comments/44txvy/troubleshooting_new_pc_isnt_making_use_of_full/
p1423
(lp1424
I42
aI8
aI10
aI56
aI20
aI27
aI13
aI76
aI17
aI39
aI29
aI78
aI37
aI5
asVhttps://www.reddit.com/r/bloodborne/comments/4c03vs/3_endings_3_playthroughs_1_platinum/
p1425
(lp1426
I101
aI20
aI27
aI61
aI23
aI5
aI12
aI24
aI8
aI28
aI25
aI35
asVhttps://www.reddit.com/r/guns/comments/14y644/i_picked_a_terrible_time_to_get_into_guns/
p1427
(lp1428
I73
aI42
aI58
aI46
aI16
aI4
aI55
aI70
aI15
aI12
aI34
aI41
aI46
aI15
aI14
aI4
aI11
aI26
aI14
aI4
aI6
aI12
aI18
aI17
aI1
aI2
aI3
aI57
aI50
aI44
aI10
aI14
aI56
aI2
aI15
aI14
aI1
aI114
aI12
aI11
asVhttps://www.reddit.com/r/buffy/comments/199fzg/is_it_reasonable_to_think_that_cordelia_in_buffy/
p1429
(lp1430
I58
aI173
aI57
aI126
aI228
aI63
asVhttps://www.reddit.com/r/wma/comments/278ptr/a_new_and_better_definition_of_indes/
p1431
(lp1432
I35
aI223
aI14
aI50
aI280
aI22
aI124
aI108
aI90
aI14
aI34
aI22
aI76
aI45
aI49
aI35
aI21
aI237
aI40
aI320
aI75
aI40
aI168
aI67
aI85
aI723
aI108
asVhttps://www.reddit.com/r/askseddit/comments/17aost/advice_on_postokc_exchange_on_fb_her_recent/
p1433
(lp1434
I202
aI15
aI79
aI63
aI187
aI28
aI56
asVhttps://www.reddit.com/r/hockeycirclejerk/comments/1i42ia/kovalchuk_signs_8_year_extension_with_devils/
p1435
(lp1436
I0
aI1
aI12
aI3
aI16
aI3
aI11
aI5
aI5
asVhttps://www.reddit.com/r/Warthunder/comments/4hpcuk/best_currency_to_get_eagles/
p1437
(lp1438
I58
aI9
aI73
aI29
aI85
aI22
aI49
asVhttps://www.reddit.com/r/startrek/comments/23wnmk/does_anyone_know_why_tng_changed_command_uniform/
p1439
(lp1440
I0
aI18
aI97
aI23
aI155
aI34
aI5
aI30
aI42
aI104
aI6
aI2
aI63
aI145
aI54
aI140
aI78
asVhttps://www.reddit.com/r/DIYBeauty/comments/4cm2md/lets_talk_ingredients_is_there_one_magical/
p1441
(lp1442
I121
aI177
aI11
aI44
aI131
aI4
aI8
aI4
aI125
aI46
aI30
aI72
aI24
aI49
aI20
aI38
aI48
aI64
asVhttps://www.reddit.com/r/mac/comments/20z4xo/is_it_just_me_or_is_my_rmbp_15_2013_really_slow/
p1443
(lp1444
I72
aI42
aI80
aI18
aI66
aI7
aI15
aI17
aI12
aI23
aI31
aI20
aI28
asVhttps://www.reddit.com/r/teslore/comments/q54bg/do_daedric_prince_have_genders/
p1445
(lp1446
I10
aI77
aI17
aI82
aI74
aI12
aI41
aI5
aI16
aI110
aI3
aI10
aI10
asVhttps://www.reddit.com/r/cheatatmathhomework/comments/3dsrs9/local_extrema_calculus/
p1447
(lp1448
I48
aI63
aI9
aI29
aI67
aI33
asVhttps://www.reddit.com/r/bjj/comments/40xuzt/tutorial_thursday_stepover_kneebars_from_the/
p1449
(lp1450
I37
aI57
aI8
aI14
aI16
aI57
aI36
aI8
aI11
aI4
aI3
aI18
aI80
aI9
aI42
aI61
aI11
asVhttps://www.reddit.com/r/electronic_cigarette/comments/4h5vg6/shout_out_to_bx_vapor_really_impressed/
p1451
(lp1452
I83
aI6
aI34
aI16
aI26
aI19
aI11
aI10
aI52
asVhttps://www.reddit.com/r/MensRights/comments/xlu54/what_brought_you_to_the_mrm/
p1453
(lp1454
I58
aI145
aI80
aI190
aI129
aI180
aI16
aI45
aI93
aI60
aI36
aI22
aI121
aI5
aI99
aI21
aI92
aI36
aI36
aI47
aI78
aI25
aI315
aI38
aI128
aI95
aI34
aI36
aI8
aI1
aI113
aI12
aI48
aI32
aI45
aI8
aI8
asVhttps://www.reddit.com/r/doctorwho/comments/49nhn8/opinion_steven_moffat_he_cant_kill_characters/
p1455
(lp1456
I503
aI276
aI445
aI98
aI15
aI7
aI182
aI160
aI205
aI144
aI8
aI170
aI283
aI176
aI103
aI237
aI52
aI89
asVhttps://www.reddit.com/r/CoDCompetitive/comments/30826t/do_gunnar_glasses_or_similar_glasses_work/
p1457
(lp1458
I8
aI47
aI20
aI10
aI11
aI21
aI52
aI29
aI26
aI54
aI20
aI37
aI80
aI42
aI79
aI40
aI25
aI55
aI42
aI18
aI128
aI23
asVhttps://www.reddit.com/r/theydidthemath/comments/32gm58/request_if_every_multistory_building_in_the_world/
p1459
(lp1460
I0
aI381
aI106
aI198
aI31
aI175
asVhttps://www.reddit.com/r/pathofexile/comments/39y9m2/awakeningelemental_windripper_magic_find_what/
p1461
(lp1462
I159
aI56
aI46
aI125
aI100
aI30
aI28
aI112
aI30
asVhttps://www.reddit.com/r/AskReddit/comments/40ycv4/what_are_the_best_gilded_posts_in_reddit_nsfw/
p1463
(lp1464
I0
aI18
aI15
aI14
aI2
aI23
aI22
aI250
aI11
aI13
aI7
asVhttps://www.reddit.com/r/manga/comments/1gr9a6/looking_for_info_on_highschool_of_the_dead/
p1465
(lp1466
I167
aI73
aI28
aI29
aI8
aI151
aI5
aI6
aI23
aI21
aI276
aI13
aI68
aI5
asVhttps://www.reddit.com/r/heroesofthestorm/comments/365w0g/blizzard_please_dont_just_flatout_kill_the_li_li/
p1467
(lp1468
I138
aI33
aI5
aI148
aI25
aI11
aI96
aI21
aI33
aI5
aI22
aI24
aI9
aI96
aI38
aI26
aI18
aI57
aI43
aI15
aI63
aI25
aI15
aI100
aI9
aI22
aI54
aI27
aI47
aI37
aI28
aI32
asVhttps://www.reddit.com/r/eagles/comments/4ap0m2/would_you_take_a_risk_on_jaylon_smith/
p1469
(lp1470
I132
aI10
aI41
aI42
aI37
aI135
aI43
aI43
aI27
aI45
aI16
aI43
aI26
aI8
aI47
aI15
aI15
aI22
aI43
aI64
aI4
aI18
aI23
aI15
aI21
aI12
aI46
aI27
aI7
aI38
aI18
aI33
aI26
asVhttps://www.reddit.com/r/drums/comments/1fy2nw/i_dont_want_to_be_clueless_on_drum_specs/
p1471
(lp1472
I71
aI50
aI21
aI70
aI21
aI55
aI16
aI50
aI9
aI67
aI10
aI5
aI6
aI5
aI15
asVhttps://www.reddit.com/r/bangtan/comments/4g35ds/rapmons_twitter_video_what_color_is_his_hair/
p1473
(lp1474
I41
aI25
aI24
aI23
aI120
aI268
aI15
aI60
aI17
asVhttps://www.reddit.com/r/iosgaming/comments/3gegj8/are_there_any_mmo_strategy_games_similar_to/
p1475
(lp1476
I25
aI17
aI65
aI87
aI9
aI46
aI12
aI178
aI51
aI49
asVhttps://www.reddit.com/r/fountainpens/comments/357sp8/anyone_know_frequency_of_twsbi_580_diamond_stock/
p1477
(lp1478
I74
aI31
aI12
aI2
aI32
aI26
aI17
aI13
aI33
asVhttps://www.reddit.com/r/araragi/comments/410by9/kizumonogatari_for_the_southeast/
p1479
(lp1480
I16
aI36
aI23
aI13
aI11
aI21
aI35
aI74
aI31
aI21
aI14
aI44
aI3
aI5
asVhttps://www.reddit.com/r/starwarscollecting/comments/4d3ikb/started_collecting_figurines/
p1481
(lp1482
I51
aI46
aI13
aI17
aI50
aI1
aI84
aI39
asVhttps://www.reddit.com/r/RocketLeague/comments/3crycf/is_it_a_huge_disadvantage_to_use_mousekeyboard/
p1483
(lp1484
I29
aI4
aI11
aI43
aI116
aI26
aI9
aI28
aI18
aI13
aI5
aI21
aI14
aI10
aI56
aI5
aI3
asVhttps://www.reddit.com/r/photography/comments/q6jx4/hdr/
p1485
(lp1486
I85
aI44
aI132
aI14
aI11
aI24
aI3
aI52
aI12
aI6
aI52
aI76
aI9
aI14
aI67
asVhttps://www.reddit.com/r/hwatch/comments/3vu2u8/battery_problems_with_new_watch/
p1487
(lp1488
I1
aI158
aI90
aI43
aI41
aI22
aI1
aI30
aI21
aI41
aI85
asVhttps://www.reddit.com/r/Malazan/comments/3d8zh9/done/
p1489
(lp1490
I53
aI5
aI43
aI29
aI30
aI22
aI5
aI19
aI8
aI65
aI36
aI49
aI17
aI8
aI8
asVhttps://www.reddit.com/r/web_design/comments/1dd12c/other_than_htmlcss_what_else_is_necessary_for_a/
p1491
(lp1492
I37
aI66
aI203
aI273
aI16
aI94
aI43
aI369
aI31
aI20
aI8
aI14
aI63
aI40
asVhttps://www.reddit.com/r/kvariety/comments/10sh2l/where_are_you_afphreak_youre_our_only_mod_and_its/
p1493
(lp1494
I18
aI66
aI36
aI71
aI138
aI27
aI11
asVhttps://www.reddit.com/r/vintageaudio/comments/18uxw0/vintage_tube_amp_advice/
p1495
(lp1496
I1
aI215
aI68
aI75
aI74
aI27
aI25
aI174
aI8
aI41
aI55
aI25
aI28
asVhttps://www.reddit.com/r/Drugs/comments/193lkh/25cnbome_life_of_pi_trip_report/
p1497
(lp1498
I1418
aI21
aI1
aI7
aI44
aI11
aI24
aI36
asVhttps://www.reddit.com/r/leagueoflegends/comments/2ilytz/i_hit_gold_in_solo_que_and_now_the_ranked_is/
p1499
(lp1500
I279
aI50
aI19
aI18
aI17
aI7
aI143
aI181
aI19
aI5
aI7
aI23
aI71
aI23
aI11
aI24
aI16
aI16
aI18
aI35
aI1
aI69
aI28
aI37
aI26
aI10
aI65
aI10
aI19
asVhttps://www.reddit.com/r/arduino/comments/2mw9qi/newb_question_arduino_coding_languages/
p1501
(lp1502
I143
aI86
aI18
aI43
aI48
aI29
aI4
aI13
aI34
aI20
aI25
asVhttps://www.reddit.com/r/asktransgender/comments/1sq372/dysphoria_possibly_triggering/
p1503
(lp1504
I228
aI14
aI19
aI76
aI47
aI17
aI19
aI24
aI31
aI22
aI53
aI29
aI24
aI9
aI60
asVhttps://www.reddit.com/r/hearthstone/comments/3bv2m1/was_playing_the_brawl_as_a_priest/
p1505
(lp1506
I15
aI12
aI15
aI14
aI12
aI18
aI4
asVhttps://www.reddit.com/r/tf2/comments/1kqmps/if_you_spend_money_lets_say_10_dollarseuros_on/
p1507
(lp1508
I0
aI18
aI29
aI33
aI21
aI15
aI95
aI32
aI20
aI20
aI25
aI37
aI29
aI4
aI22
asVhttps://www.reddit.com/r/firefox/comments/4jbs82/defaulting_to_an_old_profile_in_firefox_developer/
p1509
(lp1510
I216
aI1
aI32
aI98
aI13
aI1
aI87
aI1
aI20
asVhttps://www.reddit.com/r/AskReddit/comments/3v510m/what_is_the_strangest_or_most_amusing_reason/
p1511
(lp1512
I0
aI34
aI39
aI267
aI32
aI23
aI9
aI21
aI30
aI24
aI10
aI56
aI28
aI25
aI1
aI53
aI8
aI67
aI10
aI12
aI5
aI7
aI42
aI4
aI42
aI10
aI16
aI17
aI17
aI32
asVhttps://www.reddit.com/r/Pokemongiveaway/comments/3yo0p7/lf_ha_chikorita_and_pachirisu/
p1513
(lp1514
I8
aI12
aI4
aI4
aI7
aI4
aI5
aI2
asVhttps://www.reddit.com/r/schizoaffective/comments/4e3je2/hospitalization/
p1515
(lp1516
I119
aI34
aI13
aI15
aI33
aI37
aI10
aI29
aI19
aI91
aI16
aI8
aI16
aI21
aI2
aI15
aI70
aI28
aI24
aI8
aI24
aI19
aI4
aI18
aI9
aI4
aI9
asVhttps://www.reddit.com/r/buildapc/comments/lxm3y/first_build_making_a_midrange_pc_for_a_non_gamer/
p1517
(lp1518
I13
aI39
aI9
aI29
aI85
aI25
aI8
aI33
aI38
asVhttps://www.reddit.com/r/rpg/comments/f1woc/pathfinder_help_needed_building_a_character_that/
p1519
(lp1520
I55
aI429
aI308
aI94
aI41
aI5
aI219
aI137
aI1
aI67
aI218
aI11
aI87
aI255
aI35
aI44
aI22
aI213
aI2
aI245
aI55
aI13
aI20
aI7
aI50
aI0
aI27
aI9
asVhttps://www.reddit.com/r/linux/comments/femwk/modifying_linux_default_sort_order_to_honor/
p1521
(lp1522
I114
aI44
aI21
aI21
aI33
aI4
aI11
aI11
aI26
aI9
aI22
aI10
asVhttps://www.reddit.com/r/SWORDS/comments/28i632/i_want_to_learn_more/
p1523
(lp1524
I45
aI146
aI17
aI82
aI20
aI15
asVhttps://www.reddit.com/r/SuicideWatch/comments/1x0opf/i_fucked_up/
p1525
(lp1526
I156
aI207
aI96
aI450
aI47
aI135
aI7
aI24
asVhttps://www.reddit.com/r/Mabinogi/comments/3hsky2/which_would_be_a_better_solo_mage_alchemist_human/
p1527
(lp1528
I29
aI8
aI23
aI45
aI18
aI6
aI34
aI63
aI1
aI18
aI5
aI44
asVhttps://www.reddit.com/r/fixit/comments/4k5hqg/how_can_i_remove_the_debris_off_my_pool_cover/
p1529
(lp1530
I130
aI61
aI71
aI17
aI88
aI39
aI81
aI16
aI5
aI11
aI21
aI17
aI32
aI5
aI41
aI32
aI42
aI80
aI5
asVhttps://www.reddit.com/r/askscience/comments/1dk37g/is_spacetime_discrete_or_continuous/
p1531
(lp1532
I47
aI31
aI55
aI97
aI24
aI32
aI58
aI36
aI2
asVhttps://www.reddit.com/r/speedrun/comments/3fr12j/sgdq_2015_save_vs_kill_the_animals_by_the_numbers/
p1533
(lp1534
I184
aI16
aI29
aI6
aI124
aI49
aI47
aI24
aI99
aI15
aI57
aI12
aI20
aI66
aI33
aI64
aI29
aI44
aI21
aI10
aI9
aI13
aI3
aI20
aI13
aI47
aI64
aI25
aI15
aI12
aI22
aI120
aI9
aI10
aI44
aI16
aI26
aI36
aI28
aI63
asVhttps://www.reddit.com/r/AskReddit/comments/22hvqh/urban_explorers_what_is_the_coolestcreepiestmost/
p1535
(lp1536
I0
aI160
aI29
aI14
aI2
aI6
aI62
aI10
aI79
aI10
aI12
aI9
aI41
aI14
aI8
aI9
aI24
aI1
asVhttps://www.reddit.com/r/geology/comments/1tkbyx/looking_through_great_uncles_rock_collection_and/
p1537
(lp1538
I125
aI73
aI8
aI32
aI20
aI27
aI4
aI12
aI59
aI33
aI27
aI7
aI9
aI43
aI11
aI32
aI51
aI55
aI4
asVhttps://www.reddit.com/r/recipes/comments/p02hw/chinatown_baked_bao_dough/
p1539
(lp1540
I89
aI41
aI47
aI3
aI3
aI18
aI7
aI7
aI27
aI275
aI5
asVhttps://www.reddit.com/r/DarkSouls2/comments/20m9of/question_magic_hands_d_possible_item_spoilers/
p1541
(lp1542
I12
aI43
aI9
aI6
aI20
aI13
aI40
aI2
aI15
aI6
aI40
asVhttps://www.reddit.com/r/techsupport/comments/1bxeoc/looking_for_allinone_that_does_not_suck_for_small/
p1543
(lp1544
I36
aI51
aI11
aI10
aI5
aI1
asVhttps://www.reddit.com/r/FeMRADebates/comments/2p57z0/concerning_male_empathy_and_torture_if_guantanamo/
p1545
(lp1546
I18
aI68
aI10
aI34
aI60
aI61
aI15
aI97
aI40
aI77
aI178
aI28
aI21
aI24
aI51
aI74
aI36
aI61
aI21
aI55
aI68
aI54
aI166
aI14
aI145
aI91
aI41
aI8
aI58
asVhttps://www.reddit.com/r/tampa/comments/2rczbm/bubba_is_back_bitches_6am_on_987_fm_anyone_care/
p1547
(lp1548
I24
aI313
aI10
aI43
aI9
aI16
aI6
aI18
aI27
aI35
aI13
aI25
aI85
aI29
aI64
aI5
aI84
aI75
aI95
asVhttps://www.reddit.com/r/SkincareAddiction/comments/2g8a3o/how_do_i_get_rid_of_these_skin_colored_bumps/
p1549
(lp1550
I392
aI59
aI131
aI32
aI79
aI10
aI8
asVhttps://www.reddit.com/r/vapor/comments/2p9tee/burnt_juice_in_drip_tip/
p1551
(lp1552
I30
aI31
aI14
aI12
aI51
aI65
aI33
aI1
asVhttps://www.reddit.com/r/whowouldwin/comments/2yglcu/sentry_vs_swamp_thing/
p1553
(lp1554
I55
aI82
aI79
aI26
aI67
aI26
aI12
aI18
aI27
aI2
aI9
aI13
aI38
aI31
aI51
aI17
aI24
asVhttps://www.reddit.com/r/leagueoflegends/comments/1oqqxb/drops_in_fps/
p1555
(lp1556
I139
aI30
aI1
aI20
aI14
aI6
aI6
aI18
aI7
aI3
aI3
aI15
aI17
asVhttps://www.reddit.com/r/startups/comments/3g1icn/doing_business_in_puerto_rico/
p1557
(lp1558
I90
aI44
aI45
aI53
aI8
aI42
aI75
aI8
aI20
asVhttps://www.reddit.com/r/wow/comments/2u0bto/help_me_figure_out_why_i_keep_disconnecting_from/
p1559
(lp1560
I309
aI258
aI33
aI198
aI38
aI70
aI24
aI68
aI229
aI128
aI34
aI80
aI37
aI137
aI18
aI12
asVhttps://www.reddit.com/r/DotA2/comments/3z6ska/now_that_kappa_crusaders_took_their_first_victory/
p1561
(lp1562
I7
aI11
aI4
aI28
aI61
aI29
aI8
aI12
aI4
aI7
aI2
aI5
aI6
aI10
aI31
aI6
aI7
aI8
aI8
aI1
aI9
aI10
aI2
aI2
aI3
aI2
asVhttps://www.reddit.com/r/androidapps/comments/2kzq7v/help_with_emojiswiftkey_app_specifically_no/
p1563
(lp1564
I81
aI15
aI58
aI64
aI9
aI112
aI38
aI50
asVhttps://www.reddit.com/r/energy_work/comments/16hk05/is_this_my_energy_killing_the_electronics_or/
p1565
(lp1566
I1
aI270
aI48
aI47
aI21
aI112
aI22
aI59
aI245
aI24
aI7
aI1
aI13
aI3
aI40
aI466
aI19
aI4
aI20
aI186
aI4
aI3
aI8
aI145
aI20
aI7
aI14
aI9
aI2
aI51
aI6
aI28
aI20
asVhttps://www.reddit.com/r/apple/comments/9izr5/in_case_like_me_you_never_upgraded_your_ipod/
p1567
(lp1568
I1
aI8
aI14
aI9
aI35
aI19
aI19
aI2
aI21
aI17
aI6
aI1
asVhttps://www.reddit.com/r/tressless/comments/431gxj/what_do_you_guys_think_am_i_thinning_on_top/
p1569
(lp1570
I0
aI5
aI4
aI3
aI15
aI5
aI8
aI48
aI18
asVhttps://www.reddit.com/r/kodi/comments/4d6eep/multiple_files_for_a_single_title/
p1571
(lp1572
I204
aI81
aI24
aI47
aI63
aI62
aI10
aI23
asVhttps://www.reddit.com/r/Standup/comments/1czcju/what_seems_to_be_an_effective_way_to_write/
p1573
(lp1574
I69
aI416
aI155
aI127
aI117
aI1
aI1
aI2
aI9
aI7
aI48
aI16
aI6
aI17
aI475
aI108
aI61
aI36
aI50
aI8
aI31
asVhttps://www.reddit.com/r/eagles/comments/2qr3nz/based_on_the_schedule/
p1575
(lp1576
I34
aI1
aI17
aI39
aI1
aI1
aI7
aI9
aI17
aI7
aI14
aI27
aI67
aI1
aI41
aI17
aI13
aI17
aI9
aI9
aI17
aI23
aI23
asVhttps://www.reddit.com/r/byu/comments/1wynv3/a_question_from_the_bunyion/
p1577
(lp1578
I107
aI197
aI16
aI60
aI43
aI13
aI32
aI38
aI1
aI14
aI5
aI249
aI39
aI5
aI10
aI18
aI58
aI13
asVhttps://www.reddit.com/r/Crouton/comments/3d4qdo/comprehensive_guide_to_linux_on_acer_c720_for/
p1579
(lp1580
I153
aI115
aI139
aI9
aI54
aI30
aI38
aI24
aI89
aI134
aI112
aI51
asVhttps://www.reddit.com/r/electricians/comments/3hiowz/lighthing_fixture/
p1581
(lp1582
I80
aI51
aI34
aI13
aI28
aI21
aI81
aI21
aI5
aI6
aI55
asVhttps://www.reddit.com/r/cats/comments/4idnth/i_see_a_orange_and_white_cat_roaming_through_my/
p1583
(lp1584
I110
aI54
aI67
aI46
aI39
aI2
aI84
aI3
aI33
aI3
aI41
aI17
aI53
aI127
asVhttps://www.reddit.com/r/AskReddit/comments/2zcqa6/what_is_something_that_is_relatively_simple_to/
p1585
(lp1586
I0
aI15
aI19
aI51
aI41
aI19
aI16
aI45
aI9
aI8
aI10
aI58
aI18
aI31
asVhttps://www.reddit.com/r/huntersbell/comments/3f2zs2/cddefiled130/
p1587
(lp1588
I30
aI2
aI2
aI2
aI4
aI15
aI8
aI15
aI8
aI21
aI8
aI4
aI15
aI12
aI18
aI2
aI12
asVhttps://www.reddit.com/r/pokemon/comments/3xz40u/need_help_creating_a_team_to_face_my_friend/
p1589
(lp1590
I201
aI12
aI80
aI87
aI18
aI13
aI25
aI74
aI32
aI1
aI16
aI20
aI69
aI56
aI70
aI14
aI17
aI10
aI35
aI32
aI21
aI18
aI32
aI63
aI92
aI5
aI44
aI25
aI19
aI14
aI3
aI43
aI23
aI31
aI52
aI110
aI32
aI24
aI112
aI40
asVhttps://www.reddit.com/r/demonssouls/comments/1rio39/having_trouble_getting_plat_due_to_the_world/
p1591
(lp1592
I51
aI21
aI25
aI29
aI30
aI7
aI137
aI5
asVhttps://www.reddit.com/r/singing/comments/4dnhub/how_to_get_volume_control/
p1593
(lp1594
I60
aI169
aI6
aI271
aI78
aI206
aI164
aI31
aI64
aI23
aI36
aI11
asVhttps://www.reddit.com/r/lfg/comments/2hsjag/online_dd_2e_need_dm_or_player_for_ist_4_to_1130/
p1595
(lp1596
I27
aI5
aI3
aI10
aI5
aI1
asVhttps://www.reddit.com/r/smallbusiness/comments/29imxh/i_have_an_idea_for_a_niche_bookstore_and_i_have/
p1597
(lp1598
I141
aI62
aI31
aI43
aI154
aI35
aI64
aI62
aI18
aI21
aI125
aI381
aI35
aI33
aI5
aI190
aI49
aI6
aI145
aI65
aI78
aI83
aI47
aI71
aI31
aI6
asVhttps://www.reddit.com/r/discododgeball/comments/34wcmk/hoops_league_fridays_8pm_et/
p1599
(lp1600
I2
aI146
aI72
aI42
aI23
aI17
aI46
aI23
asVhttps://www.reddit.com/r/AskReddit/comments/152xvo/where_can_i_find_really_good_porn_gifs/
p1601
(lp1602
I52
aI24
aI2
aI2
aI5
aI4
aI1
aI31
aI24
aI2
aI11
aI4
aI12
asVhttps://www.reddit.com/r/oculus/comments/1jez77/mmorpg_addicts_a_future_rift_problem/
p1603
(lp1604
I80
aI28
aI41
aI109
aI51
aI24
aI31
aI197
aI18
aI40
aI29
aI15
aI8
aI16
aI61
aI4
aI32
aI5
aI68
aI6
aI19
aI8
asVhttps://www.reddit.com/r/phoenix/comments/4elkew/rphoenix_daily_discussion_thread_april_13_2016/
p1605
(lp1606
I31
aI12
aI56
aI12
aI15
aI18
aI20
aI14
aI48
aI11
aI2
aI16
aI32
aI233
aI75
aI11
aI31
aI15
aI5
aI33
aI12
aI73
aI14
aI14
aI8
aI9
aI36
aI44
aI13
aI3
aI6
aI6
aI46
asVhttps://www.reddit.com/r/huntersbell/comments/326ure/ng135chalice_dungeonsskaloola/
p1607
(lp1608
I40
aI7
aI5
aI23
aI49
aI11
aI6
aI54
aI8
aI9
aI18
aI5
aI4
aI26
aI14
aI5
asVhttps://www.reddit.com/r/gta5/comments/4fp355/anyone_know_of_a_mod_that_slows_down_the_walking/
p1609
(lp1610
sVhttps://www.reddit.com/r/techsupport/comments/zby2d/my_roku_device_suddenly_stopped_connecting_to_my/
p1611
(lp1612
I154
aI27
aI65
aI48
aI78
aI30
aI40
aI79
aI15
aI20
aI120
aI19
aI80
aI54
aI18
aI36
aI30
aI66
aI56
aI17
aI24
aI40
aI39
aI30
aI30
aI65
aI28
aI12
aI9
aI16
aI18
aI7
aI35
aI15
aI54
aI11
aI28
aI17
aI55
aI47
asVhttps://www.reddit.com/r/ClickerHeroes/comments/2ehcw9/skillz_what_is_your_favorite_order_of_skills/
p1613
(lp1614
I30
aI135
aI9
aI335
aI43
aI31
aI25
aI157
aI4
aI31
aI115
aI40
aI45
aI88
aI38
asVhttps://www.reddit.com/r/leagueoflegends/comments/2zy4ko/ability_to_break_an_item_and_sell_a_part_of_it/
p1615
(lp1616
I76
aI22
aI12
aI5
aI13
aI18
aI81
aI13
asVhttps://www.reddit.com/r/techsupport/comments/37vo6i/recording_games_produces_unreadable_avi_files/
p1617
(lp1618
I148
aI12
aI33
aI33
aI23
aI58
aI29
aI23
aI65
aI67
aI20
aI10
aI27
aI27
asVhttps://www.reddit.com/r/diablo3/comments/2g45p4/finally_getting_d3_for_my_birthday_this_weekend/
p1619
(lp1620
I69
aI7
aI3
aI14
aI6
aI2
aI15
aI27
aI17
asVhttps://www.reddit.com/r/csmapmakers/comments/2gk86c/ive_hit_a_wall_with_detailing_my_map_de_fruit/
p1621
(lp1622
I90
aI133
aI115
aI19
aI14
aI44
aI1
aI12
aI6
aI10
aI3
aI5
asVhttps://www.reddit.com/r/Cleveland/comments/4hbbh2/goodtime_iii_vs_nautica_queen/
p1623
(lp1624
I37
aI277
aI38
aI13
aI12
aI12
aI22
aI32
asVhttps://www.reddit.com/r/rpg/comments/3b7zgn/ludology_are_there_relevant_fundamental_texts/
p1625
(lp1626
I70
aI54
aI221
aI143
aI48
aI14
aI148
aI29
aI34
aI28
aI10
asVhttps://www.reddit.com/r/evedreddit/comments/195f7z/im_looking_to_join_but_i_want_to_be_prepared/
p1627
(lp1628
I111
aI123
aI153
aI47
aI41
aI79
aI125
aI187
aI16
aI8
asVhttps://www.reddit.com/r/40kLore/comments/3au23g/a_human_in_taus_clothing/
p1629
(lp1630
I81
aI175
aI19
aI42
aI8
aI3
aI30
aI44
aI6
aI23
aI7
aI6
aI18
aI65
aI19
asVhttps://www.reddit.com/r/guns/comments/4aklyx/shiloh_sharps_1874_inherited_it_from_my/
p1631
(lp1632
I266
aI92
aI15
aI11
aI38
aI37
aI60
aI4
aI25
aI10
aI33
aI1
aI56
aI5
aI53
aI108
asVhttps://www.reddit.com/r/BurningMan/comments/2e30uw/yet_another_will_call_question_not_answered/
p1633
(lp1634
I127
aI36
aI243
aI34
aI33
aI13
aI21
aI18
asVhttps://www.reddit.com/r/Warframe/comments/4c5que/best_endgame_warframe/
p1635
(lp1636
I12
aI318
aI41
aI1
aI42
aI50
aI7
aI32
aI1
aI83
aI83
aI45
aI2
aI17
aI1
aI21
aI15
aI64
aI10
aI44
aI10
aI11
aI5
aI14
aI26
aI49
aI89
aI68
aI67
asVhttps://www.reddit.com/r/rocksmith/comments/2z9q4r/rocksmith_really_works_heres_where_im_at_after_a/
p1637
(lp1638
I0
aI27
aI10
aI50
aI24
aI22
aI267
aI42
aI62
aI35
aI31
aI44
aI20
aI7
aI37
aI16
aI17
aI19
aI30
aI35
aI13
asVhttps://www.reddit.com/r/oaklandraiders/comments/311ftm/what_do_you_guys_think_about_good_guys_new_look/
p1639
(lp1640
I89
aI19
aI12
aI66
aI3
aI136
aI12
aI59
aI35
aI45
aI4
aI10
aI13
aI72
aI17
aI17
aI49
aI5
aI31
aI15
asVhttps://www.reddit.com/r/dayz/comments/1vp8b6/should_i_get_the_dayz_sa_or_buy_arma_ii_and_get/
p1641
(lp1642
I0
aI1
aI22
aI1
aI25
aI27
aI40
aI14
aI41
aI21
aI17
aI28
aI12
asVhttps://www.reddit.com/r/WTF/comments/1f5j6q/found_this_on_the_windshield_of_ever_car_in_our/
p1643
(lp1644
I0
aI9
aI42
aI73
aI4
aI82
aI35
aI158
aI42
aI9
aI42
aI11
aI37
aI12
aI24
aI117
aI36
aI149
aI4
aI7
aI44
aI36
aI113
aI9
aI5
aI23
aI17
aI15
aI21
aI33
aI12
aI8
aI10
aI19
aI11
aI21
aI16
aI8
aI5
aI18
asVhttps://www.reddit.com/r/hockeyplayers/comments/1k4ksi/screening_the_goalie/
p1645
(lp1646
I239
aI254
aI59
aI177
aI368
aI23
aI83
aI321
aI34
aI16
aI11
aI47
aI18
aI119
aI72
aI58
aI76
aI19
aI60
aI6
aI2
aI16
aI4
aI2
aI44
asVhttps://www.reddit.com/r/Nexus5/comments/1uf55c/stuck_between_cases/
p1647
(lp1648
I178
aI30
aI30
aI45
aI30
aI115
aI14
aI26
aI5
aI15
aI31
aI9
aI28
aI6
aI103
aI15
aI28
asVhttps://www.reddit.com/r/asheville/comments/2c748d/what_is_an_upper_echelon_consignment_store_in/
p1649
(lp1650
I0
aI4
aI22
aI12
aI0
aI32
aI58
aI39
aI53
aI29
aI13
aI14
aI33
aI22
aI5
asVhttps://www.reddit.com/r/legaladvice/comments/1riqzr/bought_2000_worth_of_fake_gold/
p1651
(lp1652
I114
aI52
aI14
aI12
aI59
aI53
aI32
aI86
aI25
aI6
aI32
asVhttps://www.reddit.com/r/jobs/comments/23qq5y/do_interviewers_ask_for_references_if_they_arent/
p1653
(lp1654
I170
aI86
aI81
aI23
aI75
aI36
aI5
asVhttps://www.reddit.com/r/MinionHate/comments/3j4zip/it_finally_fucking_happened_to_me_god_damn_it/
p1655
(lp1656
I0
aI28
aI10
aI18
aI6
aI8
aI17
aI10
aI24
aI52
aI17
aI9
aI0
aI2
aI21
aI1
aI2
aI3
aI20
aI6
aI15
aI1
aI58
aI1
aI5
aI4
aI12
aI4
aI3
aI1
aI25
aI36
aI6
aI3
aI119
asVhttps://www.reddit.com/r/zen/comments/2rjq21/science_and_human_beings/
p1657
(lp1658
I549
aI13
aI11
aI76
aI30
aI17
aI341
aI8
aI15
aI38
aI6
aI27
aI3
aI32
aI27
aI353
aI21
aI46
aI17
aI135
aI288
aI10
aI7
aI18
aI113
aI138
aI248
aI15
aI1
aI20
aI347
aI11
aI13
aI10
aI8
aI7
aI69
aI19
aI65
aI17
aI151
asVhttps://www.reddit.com/r/batonrouge/comments/3bxcna/moving_to_br_soon_whats_the_area_like/
p1659
(lp1660
I118
aI41
aI3
aI48
aI7
aI195
aI40
aI20
aI30
aI38
aI77
aI37
aI140
aI17
aI49
aI8
aI10
aI14
aI81
aI29
aI3
aI24
aI44
aI15
aI5
aI10
aI9
aI24
aI44
aI23
aI35
aI46
aI81
aI23
aI142
aI42
aI31
aI1
aI12
asVhttps://www.reddit.com/r/androiddev/comments/34uehq/is_there_a_way_to_disable_the_subreddit_styles/
p1661
(lp1662
I40
aI45
aI190
aI36
aI6
aI22
aI22
aI8
aI20
aI49
aI15
asVhttps://www.reddit.com/r/MHOL/comments/4c7az1/b211_education_for_underdeveloped_nations_bill/
p1663
(lp1664
I456
aI47
aI155
aI13
aI46
aI105
aI88
aI149
aI24
aI91
aI28
aI2
aI121
aI14
aI377
aI111
aI327
asVhttps://www.reddit.com/r/electronic_cigarette/comments/171yzh/best_and_cheapest_place_to_buy_a_pair_of_18350/
p1665
(lp1666
I21
aI60
aI33
aI49
aI9
aI32
aI20
aI42
aI36
aI15
aI12
aI11
aI5
aI18
aI34
aI12
aI1
aI4
aI37
aI10
aI12
aI24
aI12
aI10
aI65
aI18
aI20
asVhttps://www.reddit.com/r/smashbros/comments/32acgk/mang0_being_mang0/
p1667
(lp1668
I4
aI2
aI8
aI7
aI23
aI11
aI20
aI31
aI20
aI26
aI23
aI3
aI6
aI10
aI19
aI4
aI55
aI29
aI1
aI18
aI24
aI1
aI42
aI1
aI14
aI3
aI13
aI20
aI19
aI49
aI9
aI27
aI13
aI16
aI18
aI12
aI22
aI16
aI35
aI19
aI11
asVhttps://www.reddit.com/r/buildapc/comments/3zxoya/troubleshooting_no_soundvisual_from_pc/
p1669
(lp1670
I224
aI25
aI6
aI27
aI9
aI4
aI7
aI3
asVhttps://www.reddit.com/r/FFRecordKeeper/comments/421a31/no_end_of_the_month_bonuses/
p1671
(lp1672
I99
aI72
aI24
aI23
aI35
aI39
aI11
aI30
aI44
aI19
aI13
aI36
aI16
aI67
aI10
aI16
asVhttps://www.reddit.com/r/taiko/comments/21gxkc/any_ideassuggestions_for_cool_taiko_tshirts/
p1673
(lp1674
I57
aI67
aI37
aI4
aI10
aI4
asVhttps://www.reddit.com/r/warframeclanrecruit/comments/2zs13p/napclfc_mincer558/
p1675
(lp1676
I42
aI15
aI285
aI23
aI21
aI6
aI3
asVhttps://www.reddit.com/r/marvelstudios/comments/4ej762/important_antman_movie_question/
p1677
(lp1678
I38
aI15
aI6
aI6
aI4
aI33
aI22
aI13
aI9
asVhttps://www.reddit.com/r/zen/comments/4bqqeo/everything_is_black_and_white/
p1679
(lp1680
I6
aI164
aI54
aI9
aI6
aI5
aI4
aI49
aI10
aI4
aI9
aI2
aI3
aI12
aI2
aI2
aI2
aI2
aI2
aI4
as.