(dp0
Vhttps://www.reddit.com/r/buildapc/comments/14ylcw/build_help_this_probably_gets_asked_a_lot_but/
p1
(lp2
I454
aI176
aI131
aI311
aI2655
aI166
aI74
aI7
aI251
asVhttps://www.reddit.com/r/rock/comments/vt3mx/because_accordion/
p3
(lp4
I0
aI56
aI36
aI87
aI287
aI67
asVhttps://www.reddit.com/r/teclast/comments/3gmf1k/teclast_x98fixing_error_0xc0000225/
p5
(lp6
I321
aI62
aI26
aI9
aI34
aI158
aI87
aI52
aI47
aI191
aI115
aI114
aI62
aI103
aI84
aI138
asVhttps://www.reddit.com/r/trees/comments/14otha/anyone_clean_a_bowl_with_a_selfcleaning_oven/
p7
(lp8
I318
aI90
aI194
aI256
aI212
aI49
aI23
aI25
asVhttps://www.reddit.com/r/buildapcforme/comments/3i05e9/livingroom_pc/
p9
(lp10
I1334
aI104
aI129
aI3372
aI201
aI385
asVhttps://www.reddit.com/r/oblivion/comments/1qp1qg/new_to_oblivion_skyrim_was_the_first_es_game_i/
p11
(lp12
I171
aI1411
aI1760
aI1993
aI74
aI215
aI29
aI122
aI225
aI139
aI448
aI313
aI7
aI130
aI261
aI942
aI506
aI209
aI255
aI124
aI170
aI135
aI387
aI465
aI482
aI213
aI343
aI151
aI375
aI77
aI48
asVhttps://www.reddit.com/r/shittyadvice/comments/10qzqz/not_very_popular_at_work_right_now/
p13
(lp14
I90
aI33
aI48
aI127
aI203
aI219
aI92
aI50
aI105
aI40
aI45
aI67
aI7
aI106
aI75
aI60
aI62
aI11
asVhttps://www.reddit.com/r/dayz/comments/2155i7/where_to_find_pistol_mags/
p15
(lp16
I75
aI199
aI56
aI23
aI294
aI32
aI31
asVhttps://www.reddit.com/r/legaladvice/comments/2qg6bb/neighbours_left_me_an_angry_letter_and_threatened/
p17
(lp18
I1745
aI491
aI320
aI402
aI116
aI313
aI61
aI89
aI38
aI178
aI271
aI20
aI71
aI234
aI411
aI164
aI217
aI281
aI134
aI89
aI609
aI304
aI114
aI165
aI234
aI1350
aI107
aI43
aI458
aI202
aI887
aI56
aI39
aI57
aI417
aI39
aI158
aI350
aI82
aI64
aI78
asVhttps://www.reddit.com/r/picrequests/comments/1iabie/can_you_help_me_remove_this_smudge_on_this_old_pic/
p19
(lp20
I9
aI24
aI9
aI24
aI9
aI56
asVhttps://www.reddit.com/r/stlouisblues/comments/1ua960/gifs_1214_kings_blues_blues_win_50/
p21
(lp22
I2319
aI16
aI154
aI13
aI98
aI351
aI142
aI107
aI95
aI19
aI13
aI314
aI58
aI244
aI9
aI975
aI58
aI12
aI94
aI4
aI62
asVhttps://www.reddit.com/r/pkmntcg/comments/oqxk0/looking_for_1st_edition_base_set_cards/
p23
(lp24
I411
aI235
aI15
aI185
aI154
aI44
asVhttps://www.reddit.com/r/fireemblem/comments/31wprt/possibility_of_same_sex_marriages_in_fe14/
p25
(lp26
I416
aI123
aI80
aI105
aI2155
aI137
aI288
aI386
aI2017
aI1135
aI94
aI244
aI66
aI14
aI193
aI239
aI442
aI24
aI31
aI285
aI22
aI411
aI130
aI42
aI810
aI120
aI101
aI100
aI944
aI95
aI317
aI155
aI1233
aI213
aI306
aI1098
aI273
aI1049
aI222
aI1114
aI29
asVhttps://www.reddit.com/r/cigars/comments/4fvjk5/beer_and_cigars_contest_entry_tatuaje_tattoo_and/
p27
(lp28
I2487
aI20
aI308
aI489
aI225
aI114
aI135
aI262
aI207
aI196
aI156
asVhttps://www.reddit.com/r/britishproblems/comments/1giqbd/just_walked_past_a_group_of_youths_proclaiming/
p29
(lp30
I121
aI74
aI168
aI168
aI252
aI45
aI41
aI244
aI179
aI67
aI56
aI32
aI14
aI54
aI105
aI174
aI72
aI75
aI79
aI38
aI89
aI38
aI118
aI30
aI46
aI26
asVhttps://www.reddit.com/r/makinghiphop/comments/2t0kur/discuss_how_do_you_guys_compose_good_melodies/
p31
(lp32
I251
aI1039
aI2069
aI223
aI498
aI24
aI312
aI72
aI804
aI102
aI84
aI696
aI446
aI126
aI93
aI434
aI673
aI271
aI17
aI29
aI278
aI67
aI118
aI266
aI92
aI105
aI42
asVhttps://www.reddit.com/r/nihilism/comments/1qjn6i/a_really_nice_quote_i_came_across_sums_up_my/
p33
(lp34
I600
aI17
aI289
aI138
aI561
aI342
aI768
aI242
aI143
aI54
aI213
aI4
aI300
aI147
aI169
aI99
aI84
aI207
aI30
aI432
aI626
asVhttps://www.reddit.com/r/learnprogramming/comments/13jevc/java_how_to_improve_performance_of_arraylist/
p35
(lp36
I772
aI1017
aI207
aI227
aI696
aI337
aI494
aI426
asVhttps://www.reddit.com/r/gamecollecting/comments/2uxzyo/been_playing_games_since_the_late_1980s_still/
p37
(lp38
I200
aI713
aI43
aI93
aI103
aI158
aI541
aI305
aI192
aI409
aI215
aI267
aI218
asVhttps://www.reddit.com/r/summonerschool/comments/1dzwxr/what_do_you_do_as_an_adc_when_your_team_is_behind/
p39
(lp40
I299
aI632
aI56
aI439
aI175
aI36
aI305
aI220
aI584
aI93
aI690
aI166
aI61
aI258
aI164
aI188
aI81
aI65
asVhttps://www.reddit.com/r/conspiro/comments/1vfgak/the_doctor_who_claimed_there_was_a_link_between/
p41
(lp42
I402
aI158
aI400
aI266
aI1630
aI251
aI584
aI268
aI219
aI731
aI231
aI448
aI203
aI262
aI184
aI2132
aI396
aI550
aI614
aI321
aI226
aI651
aI215
aI381
aI459
aI259
aI230
aI202
aI342
aI217
aI673
aI1808
aI232
aI591
aI307
aI200
aI219
aI590
aI187
aI231
aI402
asVhttps://www.reddit.com/r/seduction/comments/2g3rb6/my_experience_with_edm_shows/
p43
(lp44
I1847
aI73
aI1884
aI109
aI360
aI75
aI73
aI235
aI26
aI1028
aI1087
aI162
aI713
aI105
aI84
aI10
aI133
aI17
aI789
aI69
aI177
aI35
aI959
aI251
aI219
asVhttps://www.reddit.com/r/buildapc/comments/2g13n8/build_help_best_budget_motherboard_for_the/
p45
(lp46
I146
aI184
aI79
aI64
aI149
aI83
aI61
asVhttps://www.reddit.com/r/AskReddit/comments/20bl8l/reddit_what_is_one_taste_good_or_bad_that_you/
p47
(lp48
I0
aI53
aI134
aI61
aI223
aI230
aI36
aI152
aI109
aI30
aI168
aI12
aI117
aI215
aI123
aI104
aI97
aI6
aI10
aI128
aI274
aI15
aI87
aI47
aI148
aI19
aI86
aI105
aI156
aI193
asVhttps://www.reddit.com/r/pcmasterrace/comments/351t8o/need_help_with_gaming_laptop_under_1000_this/
p49
(lp50
I601
aI89
aI110
aI76
aI305
aI22
aI117
aI25
aI267
aI134
aI59
aI172
aI306
aI666
aI288
aI80
aI74
aI342
aI364
aI128
aI202
aI220
aI90
aI708
aI52
aI165
aI271
aI87
aI153
aI103
aI24
aI339
aI432
aI199
aI539
aI361
aI1441
aI407
aI590
aI353
asVhttps://www.reddit.com/r/relationship_advice/comments/qcobj/fwb_and_i_have_feelings_for_each_other_now/
p51
(lp52
I747
aI1118
aI48
aI19
aI27
aI169
aI413
aI73
aI476
aI49
aI120
aI266
aI15
aI365
aI6
aI499
aI306
aI1090
aI737
aI19
aI57
asVhttps://www.reddit.com/r/learnprogramming/comments/1xw309/php_in_shell_question_how_to_reload_from_the/
p53
(lp54
I944
aI47
aI431
aI91
aI49
aI57
aI173
asVhttps://www.reddit.com/r/windowsphone/comments/1akc9l/lumia_920_glass_replacement/
p55
(lp56
I189
aI91
aI29
aI67
aI255
aI75
aI262
asVhttps://www.reddit.com/r/counting/comments/2lj4yz/time_counting_thread_20000_am/
p57
(lp58
I0
aI10
aI10
aI10
aI31
aI12
aI10
aI12
aI10
aI12
aI10
asVhttps://www.reddit.com/r/polyamory/comments/r61z9/how_do_you_define_primary_partner_do_you_think/
p59
(lp60
I520
aI1099
aI386
aI297
aI442
aI306
aI910
aI885
aI169
aI106
aI383
aI332
aI538
aI464
aI4
aI196
aI188
aI168
aI148
aI441
aI1339
aI484
aI1565
aI953
aI34
asVhttps://www.reddit.com/r/askportland/comments/3wutrg/parking_for_visitors/
p61
(lp62
I496
aI342
aI417
aI578
aI50
aI403
aI401
aI139
aI73
asVhttps://www.reddit.com/r/dailyprogrammer_ideas/comments/39rm5g/alice_through_the_looking_glass/
p63
(lp64
I2649
aI304
aI340
aI91
aI193
aI85
asVhttps://www.reddit.com/r/TalesFromRetail/comments/1xf2kq/the_bowie_knife/
p65
(lp66
I1793
aI468
aI54
aI65
aI153
aI32
aI139
aI27
aI241
aI18
aI280
aI174
aI56
aI211
asVhttps://www.reddit.com/r/jailbreak/comments/1jmtse/upgrade_to_70_then_back_to_612/
p67
(lp68
I146
aI258
aI189
aI195
aI448
aI312
aI1347
aI598
aI538
asVhttps://www.reddit.com/r/science/comments/gdft3/is_the_earth_6000_years_old/
p69
(lp70
I0
aI35
aI190
aI30
aI395
aI57
aI60
aI32
aI72
asVhttps://www.reddit.com/r/offmychest/comments/3aj98m/if_youre_aggravated_by_something_please_dont_vent/
p71
(lp72
I1228
aI385
aI559
aI228
aI525
aI304
asVhttps://www.reddit.com/r/ftm/comments/44ajoa/fantastic_friday_interesting_images_february_05/
p73
(lp74
I47
aI57
aI76
aI48
aI52
aI24
aI52
aI54
asVhttps://www.reddit.com/r/Juve/comments/2pcn5o/well_face_borussia_dortmund_thoughts/
p75
(lp76
I0
aI165
aI746
aI200
aI644
aI268
aI243
aI62
aI587
aI690
aI158
aI288
aI261
aI253
aI423
aI440
aI265
aI191
aI299
aI156
aI132
aI55
aI439
aI4
aI163
aI557
aI184
aI424
aI237
aI59
aI316
aI37
aI80
aI201
aI126
aI163
aI185
aI85
asVhttps://www.reddit.com/r/darksouls3/comments/4fjxhy/tips_for_mercenary_load_out/
p77
(lp78
I349
aI266
aI228
aI440
aI45
aI960
asVhttps://www.reddit.com/r/blackops3/comments/4jjrff/new_everything_apparently/
p79
(lp80
I283
aI337
aI91
aI77
aI22
aI44
aI35
asVhttps://www.reddit.com/r/loremasters/comments/28pr5n/need_some_feedback_on_the_main_plot_of_my_campaign/
p81
(lp82
I10422
aI593
aI1792
aI384
aI1048
aI68
aI76
aI223
aI54
aI8
aI50
aI363
aI10
aI399
aI192
aI144
aI190
aI168
aI764
aI315
aI484
aI682
aI123
asVhttps://www.reddit.com/r/formula1/comments/4jmsiw/dutch_max_got_wasted_last_night/
p83
(lp84
I0
aI237
aI193
aI301
aI77
aI127
aI85
aI39
aI118
aI62
aI199
aI42
aI109
aI154
aI63
aI253
aI77
aI185
aI392
aI22
aI23
asVhttps://www.reddit.com/r/hardware/comments/1d3fni/i_have_a_unique_problem_and_i_am_looking_for_a/
p85
(lp86
I915
aI385
aI180
aI38
aI148
aI46
aI66
aI289
asVhttps://www.reddit.com/r/bloodborne/comments/4fn86y/none_of_my_friends_can_summon_me_but_i_can_summon/
p87
(lp88
I612
aI285
aI25
aI162
aI274
aI9
aI28
aI78
aI72
aI9
aI35
aI92
aI395
aI118
aI176
aI63
aI288
aI26
asVhttps://www.reddit.com/r/teslore/comments/1v5ugj/a_last_lecture_on_sithis/
p89
(lp90
I4288
aI547
aI92
aI209
aI61
aI383
aI922
aI34
aI212
aI802
aI620
aI54
aI814
aI18
aI198
aI276
asVhttps://www.reddit.com/r/buildapc/comments/3c3xwu/troubleshooting_bios_splash_screen_disabled_by/
p91
(lp92
I397
aI22
aI10
aI66
aI91
aI101
asVhttps://www.reddit.com/r/Guildwars2/comments/35niq1/eles_minor_trait_versus_mesmers_minor_trait/
p93
(lp94
I323
aI146
aI90
asVhttps://www.reddit.com/r/karate/comments/kz88r/shamo_an_awesome_manga_about_karate_that_you_guys/
p95
(lp96
I258
aI355
aI72
aI248
aI63
aI123
aI271
aI302
aI223
aI173
asVhttps://www.reddit.com/r/Nikon/comments/4ebr2l/artistic_wideangle_lens_for_d7200/
p97
(lp98
I521
aI167
aI450
aI105
aI173
aI205
aI158
aI535
aI147
aI180
asVhttps://www.reddit.com/r/pcmasterracents/comments/48u618/minecraft_server/
p99
(lp100
I45
aI56
aI53
aI163
aI49
aI15
aI54
asVhttps://www.reddit.com/r/fantasyfootball/comments/2dqiot/about_to_draft_in_a_20_team_league/
p101
(lp102
I62
aI75
aI13
aI52
aI99
aI41
aI239
aI111
aI31
asVhttps://www.reddit.com/r/exjw/comments/r5b28/time_to_come_out_as_exjw/
p103
(lp104
I1930
aI2613
aI138
aI148
aI891
aI108
aI69
aI13
aI141
aI12
asVhttps://www.reddit.com/r/weddingplanning/comments/4aymd3/psa_gta_brides_nordstrom_warehouse_sale_march/
p105
(lp106
I825
aI24
aI76
aI75
aI56
aI67
aI45
aI125
aI32
aI95
asVhttps://www.reddit.com/r/bipolar/comments/4g0j4h/im_so_thankful_for_nice_pharmacists/
p107
(lp108
I760
aI201
aI106
aI494
aI38
aI972
aI105
aI254
aI77
aI125
aI251
aI274
aI218
aI176
aI351
aI65
aI182
aI63
aI49
aI71
aI49
aI499
aI36
aI355
aI145
aI169
aI162
asVhttps://www.reddit.com/r/motorcycles/comments/17r8mm/water_in_oil_on_my_oil_cooled_bike/
p109
(lp110
I584
aI697
aI336
aI96
aI115
aI92
aI145
aI127
aI316
aI197
aI98
aI56
aI1067
aI41
asVhttps://www.reddit.com/r/politics/comments/16c68q/big_donors_hope_to_challenge_nra_on_gun_control/
p111
(lp112
I0
aI65
aI88
aI70
aI1183
aI107
aI62
aI291
asVhttps://www.reddit.com/r/keto/comments/15adwk/started_last_saturday_223_today_im_216_thats/
p113
(lp114
I564
aI295
aI1069
aI322
aI449
aI68
aI221
aI343
aI750
aI426
aI172
aI253
aI106
aI108
aI514
aI22
asVhttps://www.reddit.com/r/MechanicAdvice/comments/3w7dfn/windows_wont_defog/
p115
(lp116
I477
aI86
aI375
aI396
aI312
aI585
aI320
aI239
aI194
aI528
aI184
aI338
aI50
aI492
aI28
aI60
aI125
aI191
aI41
aI76
asVhttps://www.reddit.com/r/linux/comments/1rraow/such_useful_error_messages_we_get_these_days/
p117
(lp118
I0
aI29
aI18
aI7
aI68
aI66
aI1762
aI79
aI43
aI11
aI1559
aI3
asVhttps://www.reddit.com/r/buildapc/comments/2afmpk/build_help_pc_upgrading/
p119
(lp120
I463
aI278
aI151
aI85
aI54
aI19
aI65
asVhttps://www.reddit.com/r/buildapc/comments/2b10qe/build_help_and_build_ready_im_seeking_help_with/
p121
(lp122
I9
aI264
aI458
aI264
aI499
aI102
aI646
asVhttps://www.reddit.com/r/GetStudying/comments/46a0av/cant_grasp_simple_math_homework/
p123
(lp124
I1446
aI238
aI180
aI368
aI243
aI69
aI1036
aI418
aI200
aI360
aI292
aI263
aI801
aI189
aI1015
aI534
aI500
aI14
asVhttps://www.reddit.com/r/houston/comments/4jenwx/photography_of_houston/
p125
(lp126
I205
aI582
aI20
aI60
aI43
aI196
aI43
aI65
aI346
aI282
aI251
aI452
aI638
aI745
asVhttps://www.reddit.com/r/fantasyhockey/comments/1phm5l/not_busy_all_day_will_answer_any_and_all_questions/
p127
(lp128
I0
aI264
aI70
aI110
aI68
aI189
aI174
aI133
aI240
aI341
aI139
aI339
aI43
aI173
aI136
aI30
aI98
aI162
aI65
aI132
aI8
aI211
aI39
aI141
aI84
aI182
aI10
aI74
aI3
aI25
aI105
aI47
aI327
aI160
aI189
aI99
aI58
aI240
aI157
aI237
aI64
asVhttps://www.reddit.com/r/sales/comments/4jboyd/i_just_finished_reading_my_first_sales_book_and/
p129
(lp130
I1854
aI1737
aI269
aI145
aI73
aI119
aI476
aI32
aI459
aI324
aI2832
aI36
aI75
asVhttps://www.reddit.com/r/fatestaynight/comments/3h5f1b/fhollow_ataraxia_voice_patch_question/
p131
(lp132
I250
aI118
aI124
aI156
aI41
aI175
aI137
aI149
aI70
aI131
aI117
aI112
aI353
aI341
aI464
aI50
aI95
aI122
aI128
aI8
aI686
aI261
aI68
aI55
aI157
aI136
aI816
aI38
aI106
aI62
aI104
asVhttps://www.reddit.com/r/OSU/comments/2mi0p4/got_a_jaywalking_ticket_is_it_worth_it_to_contest/
p133
(lp134
I201
aI80
aI243
aI14
aI153
aI51
aI212
aI11
aI29
aI99
aI27
aI16
aI36
aI23
aI198
aI117
aI21
asVhttps://www.reddit.com/r/offmychest/comments/2p37rx/i_am_on_the_look_out_for_another_manwhile_with_my/
p135
(lp136
I2077
aI638
aI686
aI625
aI672
aI752
aI268
aI132
aI275
asVhttps://www.reddit.com/r/opieandanthony/comments/2sy4na/burr_cumia_and_norton_would_have_been_the_perfect/
p137
(lp138
I485
aI216
aI53
aI31
aI133
aI324
aI103
aI161
aI224
aI981
aI119
aI365
aI40
aI28
aI46
aI130
aI90
aI39
aI93
aI66
aI11
aI531
aI998
aI118
aI48
aI392
aI38
aI250
aI19
aI41
aI80
aI303
aI97
aI33
aI4
aI624
aI476
aI100
aI24
aI28
asVhttps://www.reddit.com/r/ota/comments/4agn5d/hauppauge_new_4x_atsc_tuner_card_99/
p139
(lp140
I576
aI451
aI889
aI337
aI365
aI568
aI1130
asVhttps://www.reddit.com/r/design_critiques/comments/31l9ka/logobusiness_cardswebsite_design_student_in_final/
p141
(lp142
I406
aI510
aI768
aI913
aI1049
aI652
aI324
asVhttps://www.reddit.com/r/techsupport/comments/1ia3vt/laptop_seems_weaker_than_it_should_be/
p143
(lp144
I734
aI100
aI223
aI268
aI140
aI109
aI116
aI228
aI282
asVhttps://www.reddit.com/r/synthesizers/comments/22mrsf/inside_of_pocket_piano_gr_uses_the_same_pcb_as/
p145
(lp146
I208
aI32
aI270
aI71
aI334
aI128
aI473
aI272
aI51
aI75
aI50
asVhttps://www.reddit.com/r/casualiama/comments/4f9l1e/super_knowledgeable_on_plants_fashion_and_strange/
p147
(lp148
I59
aI68
aI82
aI34
aI122
aI84
aI28
aI42
aI152
aI205
aI47
aI149
aI50
aI438
aI165
aI224
aI507
aI413
aI62
aI64
aI110
aI145
aI236
aI205
aI45
aI100
aI79
aI107
aI49
aI79
aI87
aI64
aI66
aI125
aI126
aI74
aI119
aI167
aI19
aI145
aI158
asVhttps://www.reddit.com/r/gaming/comments/yq9cl/dark_souls_pc_controls_are_funky/
p149
(lp150
I190
aI159
aI36
aI361
aI113
aI205
aI459
asVhttps://www.reddit.com/r/guns/comments/2lox2o/talk_me_out_of_a_ruger_ar556/
p151
(lp152
I232
aI11
aI212
aI154
aI105
aI389
aI328
aI167
aI41
aI77
aI125
aI26
aI163
aI49
aI148
aI22
aI34
aI11
aI68
aI65
aI37
aI44
aI14
aI91
aI29
aI75
aI45
aI16
aI108
aI404
aI148
aI28
aI111
aI53
aI40
aI196
aI124
aI116
aI42
asVhttps://www.reddit.com/r/keto/comments/1sewkc/thinking_about_trying_keto/
p153
(lp154
I484
aI192
aI386
aI111
aI24
aI197
aI1049
aI45
aI150
aI485
aI462
aI638
aI116
aI32
asVhttps://www.reddit.com/r/audioengineering/comments/4iyyr2/plugin_chain_or_track_effects/
p155
(lp156
I858
aI703
aI547
aI424
aI305
aI35
aI147
aI342
aI592
aI350
aI149
aI473
aI307
aI1248
aI131
aI169
aI16
aI207
aI334
aI375
aI217
aI62
aI132
asVhttps://www.reddit.com/r/leagueoflegends/comments/3gexqm/lunity_the_bounty_hunter/
p157
(lp158
I0
aI17
aI24
aI7
aI3
aI4
aI1
aI3
aI27
aI23
aI7
asVhttps://www.reddit.com/r/cpp_questions/comments/43b0bh/difference_between_const_string_s_string_and/
p159
(lp160
I586
aI556
aI644
aI562
aI736
aI176
aI808
aI497
aI473
aI165
aI755
aI333
aI279
asVhttps://www.reddit.com/r/NoStupidQuestions/comments/49vjo5/i_accidentally_left_my_laundry_in_the_washing/
p161
(lp162
I122
aI165
aI292
aI603
aI191
aI386
aI763
aI103
aI23
aI369
aI99
aI139
aI121
aI54
aI111
aI175
aI316
aI77
aI163
aI28
aI44
aI50
aI93
aI112
aI149
aI47
aI97
aI30
aI305
aI42
aI189
aI108
aI255
aI6
aI179
aI190
asVhttps://www.reddit.com/r/relationships/comments/3fwitf/me_20_f_with_my_friends_20sf_of_about_a_year_i/
p163
(lp164
I5601
aI318
aI256
aI193
aI281
aI535
aI581
aI602
asVhttps://www.reddit.com/r/bipolar/comments/39hfh6/mixed_state_what_does_it_mean_to_you/
p165
(lp166
I269
aI463
aI159
aI48
aI172
aI35
aI92
aI123
aI12
aI23
aI65
asVhttps://www.reddit.com/r/politics/comments/4hhb4b/for_top_federal_contractors_investments_in/
p167
(lp168
I0
aI522
aI137
aI101
aI392
aI1295
aI299
aI20
aI6
asVhttps://www.reddit.com/r/ultimate/comments/43qnuz/up_line_flick_vs_lefty_backhand/
p169
(lp170
I319
aI1188
aI656
aI349
aI368
aI205
aI160
aI239
aI326
aI101
aI530
aI559
aI41
aI1091
aI125
aI16
aI91
aI196
aI149
aI81
aI66
aI204
aI570
aI22
aI236
aI355
asVhttps://www.reddit.com/r/windows8/comments/1lln1p/need_help_with_games_on_windows_8/
p171
(lp172
I379
aI95
aI263
aI26
aI27
aI45
aI174
aI141
aI7
aI161
aI118
aI199
aI523
asVhttps://www.reddit.com/r/darksouls3/comments/40cskn/question_about_socalled_fanservice/
p173
(lp174
I662
aI935
aI87
aI781
aI307
aI557
aI458
aI56
aI685
aI147
aI621
aI309
aI223
aI73
aI73
aI77
aI624
aI1603
aI716
aI316
aI172
aI238
aI799
aI454
aI37
aI248
aI199
aI652
aI193
aI703
aI199
aI275
aI56
aI59
aI51
aI369
aI8
aI54
aI63
aI435
aI113
asVhttps://www.reddit.com/r/Charadefensesquad/comments/4jh0ir/chara_did_kill_someone/
p175
(lp176
I8
aI675
aI45
aI785
aI77
aI1755
aI388
aI728
aI341
aI1379
aI49
aI188
aI2151
asVhttps://www.reddit.com/r/tarnation/comments/35m2xp/anyone_on_elder_scrolls_online/
p177
(lp178
I0
aI250
aI138
aI65
aI73
aI13
aI117
aI50
aI114
aI110
aI22
aI41
asVhttps://www.reddit.com/r/ffxiv/comments/nfgpb/cant_log_in_to_ffxiv/
p179
(lp180
I348
aI170
aI154
aI293
aI90
aI162
aI44
aI115
aI43
aI159
asVhttps://www.reddit.com/r/mathriddles/comments/31bwr3/the_magic_chessboard/
p181
(lp182
I122
aI142
aI75
aI148
aI222
aI325
aI185
aI191
aI1336
aI375
aI77
asVhttps://www.reddit.com/r/sticker/comments/s633l/thanks_to_user_caseyl_for_those_dope_stickers/
p183
(lp184
I0
aI77
aI65
aI4
aI27
aI9
aI2
aI117
aI45
aI223
aI155
aI102
aI154
aI102
asVhttps://www.reddit.com/r/ffxiv/comments/1ljuxe/got_in/
p185
(lp186
I54
aI77
aI47
aI10
aI41
aI79
aI34
aI84
aI13
aI143
aI206
aI92
aI105
asVhttps://www.reddit.com/r/slashdiablo/comments/463x39/ft_crafter_pack_40_ral_40_p_amethyst/
p187
(lp188
I109
aI77
aI130
aI62
aI17
aI14
aI16
aI67
aI4
aI82
aI124
asVhttps://www.reddit.com/r/pcmasterrace/comments/2ntwgv/so_i_showed_my_mom_a_4k_resolution_tv_at_the/
p189
(lp190
I1137
aI35
aI72
aI211
aI1145
aI74
aI232
aI44
aI111
aI63
aI141
aI38
aI45
aI66
aI74
aI425
aI59
aI570
aI31
aI541
aI191
aI218
aI95
aI36
aI120
aI89
aI210
aI14
aI82
aI83
aI20
aI74
aI91
aI63
aI45
aI43
aI61
aI294
aI74
asVhttps://www.reddit.com/r/Steam/comments/39mnsy/non_steam_game_compatibility_with_steam_link/
p191
(lp192
I475
aI62
aI128
aI167
aI187
aI305
aI13
asVhttps://www.reddit.com/r/networking/comments/27puqu/so_what_do_you_guys_think_about_the_juniper_and/
p193
(lp194
I763
aI917
aI141
aI143
aI330
aI1062
aI262
aI152
aI419
aI579
aI101
aI407
aI92
aI241
aI169
aI175
aI207
aI247
aI79
aI39
aI57
aI1129
asVhttps://www.reddit.com/r/casualiama/comments/1cwgu0/i_just_want_to_be_the_center_of_attention_for_a/
p195
(lp196
I184
aI36
aI60
aI18
aI211
aI88
aI188
aI17
aI74
aI557
aI23
aI111
aI28
aI91
aI132
aI155
aI13
aI108
aI35
aI18
aI44
aI16
aI65
aI43
aI52
asVhttps://www.reddit.com/r/explainlikeimfive/comments/20hg9k/eli5_how_do_airplanes_not_show_up_everywhere_on/
p197
(lp198
I0
aI59
aI299
asVhttps://www.reddit.com/r/buildapcforme/comments/4bslx4/hey_all_i_require_assistance_in_upgradingbuilding/
p199
(lp200
I3481
aI2907
aI413
aI1915
aI371
aI71
aI605
aI1521
aI52
aI38
aI122
aI14
aI159
aI119
aI26
asVhttps://www.reddit.com/r/chemistry/comments/1983z2/chemistry_work_reu_for_summer/
p201
(lp202
I461
aI499
aI187
aI630
aI179
aI506
aI474
aI183
aI212
aI158
aI220
aI132
aI43
asVhttps://www.reddit.com/r/PrettyLittleLiars/comments/3etxrj/your_friend_and_ally_the_painting_and_charles/
p203
(lp204
I846
aI469
aI434
aI248
aI236
aI137
aI60
aI280
aI284
aI314
aI59
aI89
aI103
aI450
aI141
aI58
aI262
aI383
aI62
aI110
aI63
aI323
aI129
aI56
aI103
aI183
aI149
asVhttps://www.reddit.com/r/lgg2/comments/37u2c4/wifi_cant_go_above_42_mbit/
p205
(lp206
I9
aI250
aI198
aI240
aI205
aI137
aI92
aI95
asVhttps://www.reddit.com/r/leagueoflegends/comments/28ww7w/tips_on_how_to_play_against_fiora/
p207
(lp208
I102
aI142
aI536
aI121
aI307
aI23
aI282
aI257
aI595
asVhttps://www.reddit.com/r/leagueoflegends/comments/1pfegm/drop_the_d1bomb_and_get_1k_karma/
p209
(lp210
I748
aI339
aI179
aI170
aI164
aI783
aI272
aI431
aI331
asVhttps://www.reddit.com/r/relationship_advice/comments/i37nf/2_year_dating_anniversary_coming_up_yet_im_going/
p211
(lp212
I727
aI296
aI210
aI200
aI676
aI258
aI696
aI316
asVhttps://www.reddit.com/r/madisonwi/comments/3c6y6y/weekly_catchall_july_05_2015/
p213
(lp214
I3081
aI51
aI110
aI122
aI164
aI806
aI1219
aI154
aI198
aI200
aI56
aI17
aI61
aI53
aI18
aI56
aI159
aI23
aI192
aI5
aI239
aI608
asVhttps://www.reddit.com/r/AskReddit/comments/1at5ow/what_book_do_you_think_is_beautifully_written/
p215
(lp216
I132
aI36
aI174
aI72
aI542
aI49
aI135
aI122
aI103
aI261
aI11
aI65
aI17
aI41
aI26
aI26
aI21
aI90
asVhttps://www.reddit.com/r/starcraft/comments/2nej87/anybody_from_logitech_g_or_myi_here/
p217
(lp218
I399
aI111
aI18
aI20
aI25
aI18
aI40
aI84
aI78
asVhttps://www.reddit.com/r/feedthebeast/comments/2xpngt/help_me_i_just_want_to_find_an_origin_valley/
p219
(lp220
I296
aI105
aI483
aI480
aI40
aI147
aI252
aI31
aI150
aI51
asVhttps://www.reddit.com/r/WouldYouRather/comments/2fcldn/wyr_always_have_a_wasp_within_15_feet_of_you_or/
p221
(lp222
I0
aI249
aI136
aI286
aI104
aI62
aI90
aI97
aI168
aI57
aI180
aI78
aI125
aI98
aI177
aI333
aI105
aI84
aI323
aI228
aI28
aI23
aI198
aI253
aI260
aI425
aI83
aI2
aI49
aI69
aI77
aI24
aI62
aI487
aI107
aI142
aI56
aI331
aI360
asVhttps://www.reddit.com/r/minecraftsuggestions/comments/4lkmjl/named_items_dont_despawn/
p223
(lp224
I0
aI60
aI273
aI115
aI871
aI97
aI176
aI95
aI189
aI174
aI811
asVhttps://www.reddit.com/r/PS3/comments/1p0pwq/how_can_i_listen_to_game_audio_with_bluetooth/
p225
(lp226
I470
aI178
aI72
aI253
aI248
aI329
aI45
aI27
aI56
asVhttps://www.reddit.com/r/bakchodi/comments/1ewiap/saar_muslims_suxxawar_gr8_nation_belaang_2/
p227
(lp228
I93
aI55
aI66
aI62
aI26
aI354
aI393
aI644
aI18
aI35
aI202
aI10
aI166
aI41
aI73
aI189
aI28
asVhttps://www.reddit.com/r/stopdrinking/comments/221tiw/well_this_might_be_it_about_to_hit_bottom_bottom/
p229
(lp230
I1466
aI595
aI122
aI684
aI166
aI999
aI248
aI164
aI248
aI153
aI110
aI244
aI181
aI1289
aI104
aI699
aI181
aI152
aI326
aI329
aI198
aI216
aI166
aI388
aI392
aI145
aI301
aI387
aI256
aI73
aI344
aI16
aI522
aI287
aI144
aI134
asVhttps://www.reddit.com/r/dreamcast/comments/4f3yct/mod_request/
p231
(lp232
I981
aI398
aI56
aI452
aI114
aI113
aI44
asVhttps://www.reddit.com/r/LetsNotMeet/comments/1m7acm/how_my_dad_convinced_me_never_to_hitchhike/
p233
(lp234
I2445
aI49
aI67
aI120
aI191
aI238
aI143
aI46
aI316
aI48
aI54
aI199
aI12
aI17
aI495
aI449
aI83
aI63
aI36
aI96
aI138
aI98
aI70
aI43
aI289
aI21
aI168
aI141
aI139
asVhttps://www.reddit.com/r/steroids/comments/1mpn03/lab_results_baseline_can_you_interpret_if_okay/
p235
(lp236
I581
aI39
aI454
aI207
aI337
aI133
asVhttps://www.reddit.com/r/NHLHUT/comments/3ybp3f/mov_kreider_vs_thornton_upgrade_possibility/
p237
(lp238
I374
aI36
aI177
aI54
aI55
aI75
aI119
aI44
aI47
aI62
aI154
aI146
aI28
aI76
aI95
aI107
asVhttps://www.reddit.com/r/ecigclassifieds/comments/250bpe/mvp_v2/
p239
(lp240
I26
aI168
aI70
aI135
aI49
aI52
aI39
asVhttps://www.reddit.com/r/saplings/comments/3c2666/advice_acquiring_dealerpickup/
p241
(lp242
I514
aI113
aI211
aI900
aI350
aI294
aI116
aI633
aI293
aI311
aI113
aI154
aI359
aI124
aI153
aI155
aI393
asVhttps://www.reddit.com/r/AskReddit/comments/whdiq/is_admiring_someone_off_facebook_creepy/
p243
(lp244
I1209
aI91
aI176
aI279
aI174
aI92
aI222
aI387
aI257
aI446
aI226
aI252
asVhttps://www.reddit.com/r/TumblrInAction/comments/2kc134/a_lesson_in_sjw_biology/
p245
(lp246
I0
aI173
aI813
aI149
aI61
aI766
aI264
aI287
aI56
aI120
aI23
aI93
aI126
aI66
aI280
aI454
aI173
aI363
aI305
aI89
aI50
aI441
aI340
aI521
aI58
aI172
aI27
aI189
aI82
aI98
aI173
aI377
aI53
aI2566
aI47
aI704
aI19
aI1172
aI173
aI167
asVhttps://www.reddit.com/r/wow/comments/4i28qi/your_game_account_showing_korea_kr_account/
p247
(lp248
I788
aI206
aI175
aI65
aI222
aI308
aI164
aI65
asVhttps://www.reddit.com/r/rupaulsdragrace/comments/36xmbc/now_that_the_duggars_are_off_tlc_maybe_rdr_can/
p249
(lp250
I51
aI22
aI32
aI25
aI3
aI73
aI35
aI357
aI23
aI76
aI87
aI103
aI61
aI115
aI40
asVhttps://www.reddit.com/r/prowrestling/comments/jos4q/is_the_money_in_the_bank_briefcase_really_a_good/
p251
(lp252
I1804
aI113
aI261
aI610
aI1491
aI269
aI273
aI513
aI165
aI129
aI705
aI406
aI82
aI131
aI198
aI127
aI397
aI401
aI288
aI232
aI106
aI912
aI168
aI131
aI104
asVhttps://www.reddit.com/r/DestinyTheGame/comments/2qkek2/explaining_destiny_to_your_so_parents/
p253
(lp254
I1452
aI241
aI187
aI56
aI94
aI251
aI241
aI64
aI118
aI872
aI160
aI84
aI396
aI6
aI344
asVhttps://www.reddit.com/r/britishproblems/comments/4ilzux/this_very_british_problems_tv_program_is_shit/
p255
(lp256
I83
aI158
aI100
aI26
aI86
aI91
aI136
aI72
aI79
aI107
aI16
aI38
aI62
aI87
aI174
aI193
aI188
aI14
aI429
aI91
aI129
aI87
aI103
aI41
aI51
aI67
aI146
aI45
aI259
aI277
aI20
aI26
aI59
aI76
aI70
aI45
aI33
aI4
aI110
aI16
asVhttps://www.reddit.com/r/politics/comments/hoxjn/ok_downvote_if_this_is_stupid_but_i_do_it_to/
p257
(lp258
I630
aI90
aI498
aI48
aI302
aI319
aI223
aI128
aI359
aI554
aI352
aI94
asVhttps://www.reddit.com/r/depression/comments/4lm0xz/you_know_you_live_a_sad_existence_when/
p259
(lp260
I344
aI275
aI170
aI21
aI167
aI155
aI240
aI57
aI101
aI52
aI112
aI31
aI175
aI69
aI129
aI605
aI43
aI41
aI101
aI143
aI91
aI77
aI4
aI430
aI892
aI142
aI124
aI232
aI147
aI148
aI100
aI53
aI106
aI167
aI63
aI58
aI199
aI211
asVhttps://www.reddit.com/r/XMenRP/comments/2e8gmj/dinner_218/
p261
(lp262
I318
aI91
aI225
aI64
aI27
aI51
aI104
aI61
aI48
aI11
aI23
aI30
aI15
aI220
aI39
aI33
aI27
aI31
aI25
aI70
aI22
aI38
aI23
aI21
aI11
aI290
aI42
aI13
aI46
aI63
aI35
aI44
aI22
aI228
aI59
aI33
aI37
aI50
aI49
aI401
aI165
asVhttps://www.reddit.com/r/pcmasterrace/comments/35uz52/i_dont_play_by_your_surround_rules_nvidia/
p263
(lp264
I0
aI90
aI22
aI53
aI37
aI164
aI145
aI11
aI162
aI56
aI13
aI139
aI28
aI235
aI71
aI485
aI193
aI76
aI72
aI551
aI29
aI188
aI232
aI56
aI128
aI30
aI128
aI89
aI136
aI11
asVhttps://www.reddit.com/r/CrusaderKings/comments/2vxvko/question_on_culture_conversion_english_culture/
p265
(lp266
I200
aI171
aI161
aI267
aI33
aI277
aI236
asVhttps://www.reddit.com/r/buildapc/comments/3amzre/build_ready_second_build_woo/
p267
(lp268
I3423
aI59
aI198
aI137
aI138
aI144
aI127
aI22
aI106
aI111
aI103
aI153
aI137
aI93
aI150
aI49
aI656
aI35
aI22
aI64
aI104
aI155
asVhttps://www.reddit.com/r/running/comments/oclfu/been_running_for_3_months_little_or_no_progress/
p269
(lp270
I764
aI162
aI361
aI1028
aI1618
aI316
aI121
aI526
aI114
aI242
aI225
aI67
aI109
aI232
aI194
aI92
aI90
aI546
aI595
aI1466
aI150
aI110
aI163
aI15
aI572
aI160
aI205
aI230
aI1346
aI939
aI1412
aI1613
aI415
aI265
aI153
aI185
aI112
asVhttps://www.reddit.com/r/WhoWouldWinVerse/comments/4cbyp5/super_tantrum/
p271
(lp272
I443
aI209
aI60
aI201
aI178
aI307
aI109
aI115
aI100
aI150
aI316
aI218
aI125
aI236
aI142
aI99
aI48
aI114
aI178
aI445
aI174
aI77
aI62
aI77
aI59
aI131
aI357
aI236
aI269
aI79
aI170
aI207
aI281
aI175
aI206
aI87
aI66
aI149
aI305
aI157
aI308
asVhttps://www.reddit.com/r/Fitness/comments/yogjv/hello_fittit_i_am_looking_for_advice_on_weight/
p273
(lp274
I2852
aI117
aI1547
aI702
aI117
aI125
aI97
aI92
aI43
aI287
aI196
aI43
asVhttps://www.reddit.com/r/cpp_questions/comments/2k6wa6/fsteam_think/
p275
(lp276
I1134
aI197
aI468
aI145
aI70
aI64
aI17
aI54
aI61
aI238
aI159
aI27
asVhttps://www.reddit.com/r/techsupport/comments/2gbg5d/how_can_i_boot_my_pc_into_bios/
p277
(lp278
I230
aI34
aI168
aI73
aI117
aI97
aI54
aI19
asVhttps://www.reddit.com/r/diablo3/comments/2r147m/i_feel_like_i_really_suck/
p279
(lp280
I113
aI121
aI162
aI152
aI49
aI215
aI353
aI55
aI58
aI59
aI950
asVhttps://www.reddit.com/r/truegaming/comments/3icl63/jrpgs_of_the_type_popular_in_the_late_90s_and/
p281
(lp282
I7150
aI585
aI344
aI1115
aI1435
aI368
aI1593
aI804
aI516
aI277
aI675
aI825
aI686
aI591
aI139
aI447
aI726
aI101
aI973
aI118
aI315
aI277
aI150
aI76
aI2878
aI646
aI36
aI164
aI185
aI65
aI776
aI344
aI249
aI863
aI870
aI210
aI326
aI1694
aI1926
aI360
aI586
asVhttps://www.reddit.com/r/xboxone/comments/3795w4/due_to_winning_your_xbox_live_reputation_has/
p283
(lp284
I851
aI54
aI346
aI101
aI109
aI438
aI186
aI946
aI9
aI75
aI519
aI329
aI90
aI93
aI127
aI9
aI211
aI205
aI182
aI491
aI224
aI231
aI84
aI147
aI55
asVhttps://www.reddit.com/r/cigars/comments/q2q03/could_use_some_help_remembering_an_old_fav/
p285
(lp286
I449
aI416
aI112
aI163
aI94
aI130
asVhttps://www.reddit.com/r/buildapc/comments/2akgqz/discussion_non_modular_psus/
p287
(lp288
I201
aI134
aI216
aI172
aI442
aI36
aI31
aI118
aI295
aI142
aI41
aI92
aI93
aI145
aI58
aI149
aI243
aI211
aI280
asVhttps://www.reddit.com/r/pathofexile/comments/1906i8/login_screen_lags_me_bad_any_way_to_fix_this/
p289
(lp290
I71
aI42
aI261
aI154
aI48
aI29
aI28
asVhttps://www.reddit.com/r/buildapc/comments/2z15gi/troubleshooting_im_on_the_verge_of_a_mental/
p291
(lp292
I437
aI155
aI166
aI149
aI152
aI158
aI394
aI674
aI512
aI302
aI397
aI60
aI649
asVhttps://www.reddit.com/r/roguelikes/comments/4im8e6/dcss_need_help_with_my_2rune_mibe/
p293
(lp294
I1329
aI1549
aI1034
aI269
aI312
aI832
aI657
aI1131
aI1884
aI750
aI39
aI500
aI154
aI305
asVhttps://www.reddit.com/r/personalfinance/comments/2yabw2/just_got_hired_at_my_first_jobwhat_should_i_know/
p295
(lp296
I424
aI931
aI66
aI931
aI622
aI1019
aI204
aI235
aI398
aI103
aI524
aI117
aI168
aI57
aI51
aI90
aI291
aI150
aI83
aI103
aI31
aI145
aI41
aI35
aI488
aI198
aI180
aI11
aI121
aI239
aI56
asVhttps://www.reddit.com/r/wardrobepurge/comments/29up04/sell_dresses_shoes_and_tops_sizes_xss/
p297
(lp298
I415
aI154
aI53
aI69
aI40
aI292
aI57
aI13
asVhttps://www.reddit.com/r/dogecoin/comments/2pic6g/help_my_broken_wallet_cant_update/
p299
(lp300
I245
aI30
aI109
aI1774
aI810
aI76
aI70
aI59
aI168
aI80
aI22
aI207
aI78
aI155
aI36
aI26
aI14
asVhttps://www.reddit.com/r/heroesofthestorm/comments/3dx6rs/somethings_odd_about_the_map_rotation/
p301
(lp302
I216
aI128
aI72
aI65
aI102
aI478
aI103
aI64
aI8
aI248
aI488
aI120
aI279
aI128
aI110
aI1147
asVhttps://www.reddit.com/r/wheelanddeal/comments/28px2z/ps3_ng_15m/
p303
(lp304
I251
aI113
aI69
aI576
aI117
aI550
aI75
aI177
aI23
aI74
aI25
asVhttps://www.reddit.com/r/jailbreak/comments/2ljviy/my_remaining_jailbreak_issues_care_to_help_out_if/
p305
(lp306
I2398
aI313
aI158
aI736
aI2067
aI953
aI86
aI289
aI109
aI1034
aI2
aI46
aI141
aI108
asVhttps://www.reddit.com/r/DestinyTheGame/comments/2x8l5o/suggestion_an_exotic_vendor_not_xur/
p307
(lp308
I1635
aI102
aI207
aI87
aI283
aI450
aI150
aI247
aI87
aI260
aI297
aI188
aI90
aI299
aI529
aI434
aI980
aI450
aI1288
asVhttps://www.reddit.com/r/Drugs/comments/3fludd/curious_what_every_bodies_personal_relationship/
p309
(lp310
I258
aI114
aI501
aI103
aI30
aI210
aI296
aI478
aI120
aI57
aI133
aI1052
aI212
aI266
aI199
aI460
aI163
aI213
aI9
aI529
aI390
aI82
aI15
aI128
aI108
aI193
aI111
aI274
aI2343
aI73
aI33
aI160
aI9
aI160
aI689
aI54
aI281
aI37
aI110
aI433
aI74
asVhttps://www.reddit.com/r/legaladvice/comments/2hk56h/federal_production_of_child_pornography_charge/
p311
(lp312
I715
aI339
aI335
aI511
aI373
aI887
aI1014
aI179
aI349
aI134
aI367
aI428
aI263
aI87
asVhttps://www.reddit.com/r/puns/comments/1zts00/a_friend_and_i_were_talking_about_a_book/
p313
(lp314
I0
aI23
aI16
aI203
aI42
aI89
aI198
aI50
asVhttps://www.reddit.com/r/coolermaster/comments/1h30gi/is_there_a_program_for_controlling_fan_speeds_for/
p315
(lp316
I201
aI42
aI390
aI514
aI363
aI184
aI79
aI87
asVhttps://www.reddit.com/r/matheducation/comments/4iuuvh/i_have_a_simple_math_question_and_dont_know_where/
p317
(lp318
I214
aI177
aI52
aI447
aI152
aI377
aI335
aI230
aI713
aI80
aI41
aI591
aI3
aI138
aI65
aI59
aI152
asVhttps://www.reddit.com/r/Rainbow6/comments/4daitq/psa_if_you_keep_receiving_connection_error_switch/
p319
(lp320
I302
aI64
aI77
aI180
aI107
aI103
aI90
aI55
aI45
aI668
aI220
aI233
aI584
aI469
aI1271
aI1116
asVhttps://www.reddit.com/r/findareddit/comments/1k8z3n/a_subreddit_to_ask_about_how_it_is_to_work_at_a/
p321
(lp322
I146
aI160
aI54
aI48
aI440
aI330
aI180
aI164
aI166
asVhttps://www.reddit.com/r/thedivision/comments/4ce834/got_dz50_already_have_a_number_of_best_in_class/
p323
(lp324
I575
aI446
aI150
aI88
aI97
aI776
aI204
aI252
aI434
aI260
aI23
aI72
aI115
aI9
aI42
aI97
aI77
aI190
aI226
aI218
asVhttps://www.reddit.com/r/whowouldwin/comments/27m29d/tug_of_war_magneto_vs_luke_skywalker/
p325
(lp326
I158
aI620
aI248
aI77
aI345
aI349
aI74
aI148
aI40
aI1053
aI128
aI141
aI232
aI914
aI93
aI49
aI103
aI71
aI175
aI48
aI205
aI258
aI35
aI236
aI10
aI152
aI51
aI43
aI4
asVhttps://www.reddit.com/r/DestinyTheGame/comments/3gm2hw/prison_of_elders_retirement_home/
p327
(lp328
I456
aI218
aI256
aI73
aI245
aI352
aI48
aI999
aI107
aI237
aI105
aI69
aI155
aI98
aI57
aI25
aI46
aI40
aI73
aI39
aI42
aI6
aI5
aI57
aI78
aI35
aI57
aI25
aI160
aI16
aI34
aI13
aI28
aI34
aI51
aI72
aI45
aI18
aI68
aI40
aI54
asVhttps://www.reddit.com/r/atheism/comments/dv7d6/need_some_help_here/
p329
(lp330
I125
aI63
aI886
aI21
aI444
aI119
aI177
aI262
aI36
aI48
asVhttps://www.reddit.com/r/createthisworld/comments/4gaaqg/the_outcast_legions_of_vord/
p331
(lp332
I3948
aI144
aI398
aI168
aI42
aI189
aI184
aI79
aI81
aI514
aI93
aI84
asVhttps://www.reddit.com/r/YGOBinders/comments/498ado/dave_dzs_trade_binder_h_ulti_effect_veilers/
p333
(lp334
sVhttps://www.reddit.com/r/dayz/comments/11ebf0/been_on_an_extended_dayz_break_where_do_you_get/
p335
(lp336
I0
aI145
aI81
aI190
aI13
aI6
asVhttps://www.reddit.com/r/bleach/comments/16xgg2/reading_chap_510_and_we_saw_as_nodt_steal/
p337
(lp338
I288
aI163
aI230
aI167
aI236
aI87
aI176
aI133
aI57
aI114
aI23
aI106
aI41
asVhttps://www.reddit.com/r/rockhounds/comments/rytez/getting_ready_for_the_spring_show/
p339
(lp340
I483
aI28
aI61
aI139
aI81
aI119
aI52
asVhttps://www.reddit.com/r/civ/comments/1ku71e/warmonger_changes_id_like_to_see/
p341
(lp342
I1214
aI87
aI25
aI153
aI122
aI43
asVhttps://www.reddit.com/r/relationships/comments/2192js/i_f22_want_to_move_back_home_to_europe_in_the/
p343
(lp344
I2602
aI882
aI173
aI361
aI690
aI121
aI1084
aI1172
aI31
aI189
aI302
aI197
aI546
aI243
aI447
aI64
aI859
asVhttps://www.reddit.com/r/bourbon/comments/20zo93/what_would_be_the_difference_in_taste_between_a/
p345
(lp346
I298
aI104
aI239
aI37
aI181
aI729
aI153
aI519
aI335
aI112
aI29
aI103
aI285
aI109
aI94
aI95
aI243
aI644
aI415
aI58
aI59
aI605
aI233
aI274
aI197
aI726
aI346
aI1136
aI777
aI964
asVhttps://www.reddit.com/r/buildapc/comments/2akcng/build_ready_ready_to_go_for_it_looking_for/
p347
(lp348
I1883
aI159
aI174
aI87
aI51
aI71
aI26
aI2766
aI111
asVhttps://www.reddit.com/r/skyrimmods/comments/1kqg1q/looking_for_some_clarification/
p349
(lp350
I645
aI603
aI313
aI302
aI614
aI444
aI564
aI221
aI51
asVhttps://www.reddit.com/r/mwo/comments/45ts2g/i_get_an_error_anytime_i_change_settings_please/
p351
(lp352
I9
aI309
aI183
aI93
aI137
aI118
aI264
asVhttps://www.reddit.com/r/DuelingCorner/comments/topeg/the_rematch_of_gallantgunslinger_and/
p353
(lp354
I492
aI499
aI115
aI193
aI420
aI313
aI95
aI126
aI85
aI341
aI178
asVhttps://www.reddit.com/r/relationship_advice/comments/38ciyx/about_my_fwb_24m_and_myself_19f_i_need_advice/
p355
(lp356
I6519
aI188
aI117
aI428
aI219
aI175
aI476
aI1657
aI224
asVhttps://www.reddit.com/r/saskatoon/comments/wg40d/cyclists_looking_for_shelter/
p357
(lp358
I469
aI157
aI47
aI53
aI211
aI56
aI212
aI220
aI217
aI115
aI102
aI51
asVhttps://www.reddit.com/r/GirlGamers/comments/38qj9l/what_would_you_do_if_bethesda_used_the_female/
p359
(lp360
I107
aI572
aI9
aI48
aI187
aI300
aI117
aI69
aI277
aI452
aI302
aI194
aI658
aI59
aI125
aI26
aI292
aI184
aI1572
aI22
aI483
aI405
aI51
aI15
aI182
aI100
aI209
aI95
aI476
aI102
aI34
aI33
aI97
aI94
aI503
aI17
aI366
aI49
aI157
aI52
aI367
asVhttps://www.reddit.com/r/googleglass/comments/1s3iaf/glass_question_left_eye_dominant/
p361
(lp362
I9
aI495
aI297
aI385
aI159
aI169
aI107
aI162
aI122
asVhttps://www.reddit.com/r/MonsterHunter/comments/1wo0zc/any_news_on_monhun_4s_weapon_mechanics/
p363
(lp364
I242
aI2171
aI714
aI265
aI102
aI236
aI114
aI83
aI175
aI171
aI874
aI56
aI199
aI77
aI109
aI61
aI212
aI84
aI132
asVhttps://www.reddit.com/r/TheWitness/comments/49uqyv/spoilers_can_i_just_whine_about_the_shipwreck_for/
p365
(lp366
I1395
aI251
aI380
aI313
aI561
aI757
aI30
aI151
aI566
aI379
aI79
aI641
aI299
aI202
aI136
aI200
aI84
aI437
aI489
aI198
aI31
aI705
aI397
aI330
aI329
aI142
aI199
aI317
asVhttps://www.reddit.com/r/Insurance/comments/430kqh/will_my_rate_go_up_for_failure_to_obey_control/
p367
(lp368
I355
aI240
aI157
aI341
aI441
aI397
aI340
aI245
asVhttps://www.reddit.com/r/makemychoice/comments/1x27uj/should_i_smoke_another_bowl_and_stay_up_watching/
p369
(lp370
I0
aI27
aI40
aI42
aI58
aI75
aI195
aI39
aI63
aI73
aI27
aI63
aI35
aI7
aI113
aI143
aI25
aI111
aI27
aI22
aI3
aI38
aI43
aI16
aI118
aI30
aI22
aI170
aI102
aI25
aI31
aI71
aI98
aI47
aI109
aI7
aI128
aI273
aI212
aI18
aI231
asVhttps://www.reddit.com/r/MonsterHunter/comments/2xll8o/when_do_weapons_show_up_at_the_blacksmith_for_the/
p371
(lp372
I205
aI138
aI39
aI419
aI102
aI49
aI160
aI105
aI81
aI191
aI72
asVhttps://www.reddit.com/r/talesfromtechsupport/comments/3cl41f/can_you_please_open_this_backpack/
p373
(lp374
I3259
aI120
aI85
aI123
aI99
aI3
aI30
aI88
aI68
aI107
aI119
aI149
aI22
aI180
aI7
aI219
aI44
aI158
aI132
aI45
aI138
aI39
aI248
aI23
aI152
asVhttps://www.reddit.com/r/trees/comments/o4xpj/my_friend_said_to_me_you_only_enjoy_smoking_trees/
p375
(lp376
I0
aI197
aI69
aI608
aI598
aI340
aI429
aI217
aI131
asVhttps://www.reddit.com/r/Aquariums/comments/2uesut/whats_the_name_of_your_lfs_in_your_home_town/
p377
(lp378
I134
aI161
aI72
aI57
aI38
aI53
aI524
aI21
aI129
aI17
aI70
aI67
aI88
aI786
aI132
aI141
aI105
aI131
aI198
aI52
aI22
aI30
aI24
aI134
aI553
aI259
aI95
aI31
aI74
aI201
aI49
aI71
aI97
aI52
aI98
asVhttps://www.reddit.com/r/iOSthemes/comments/2hnyrw/lbi_signalwifi_revamp/
p379
(lp380
I995
aI84
aI325
aI204
aI42
aI75
aI147
aI419
aI63
aI35
aI96
aI28
aI101
aI198
aI47
aI80
aI65
aI93
aI129
aI135
aI63
aI42
aI55
aI49
aI149
aI11
aI238
aI118
aI10
aI52
asVhttps://www.reddit.com/r/starcraft/comments/h2fnl/there_are_32966_people_here_on_starcraftthats/
p381
(lp382
I278
aI29
aI532
aI173
aI24
aI114
aI53
aI79
aI14
aI85
aI68
aI122
aI35
aI28
aI33
aI119
aI81
aI64
aI49
aI99
aI86
aI91
aI75
aI85
aI24
aI91
aI131
aI35
aI113
aI27
aI44
aI163
aI32
aI10
aI46
aI70
aI49
aI44
aI16
aI53
aI80
asVhttps://www.reddit.com/r/chelseafc/comments/334gki/hazard_chant/
p383
(lp384
I103
aI70
aI35
aI18
asVhttps://www.reddit.com/r/starcraft/comments/1fmdyr/age_versus_race_frequency_data_collection_project/
p385
(lp386
I1833
aI844
aI36
aI140
aI62
aI212
aI17
aI73
aI320
aI35
aI357
aI25
aI78
aI22
aI56
aI203
aI784
aI96
aI43
aI28
aI66
aI84
aI26
aI157
aI151
aI117
aI222
aI188
aI218
aI318
aI72
aI18
asVhttps://www.reddit.com/r/AskReddit/comments/18fazr/what_made_you_smile_today/
p387
(lp388
I0
aI187
aI344
aI196
aI107
aI122
aI194
aI73
aI143
aI71
aI60
aI147
aI169
aI64
aI147
aI45
aI45
aI29
aI14
aI20
aI137
aI72
aI42
aI76
aI53
aI208
aI22
aI74
aI388
asVhttps://www.reddit.com/r/Silverbugs/comments/4dxoc2/mexican_coin_broker/
p389
(lp390
I34
aI71
aI65
aI54
aI104
aI13
aI224
aI13
aI142
aI25
asVhttps://www.reddit.com/r/bicycling/comments/1rvzzc/carbon_carbon_every_last_part_is_carbon_lunch/
p391
(lp392
I0
aI52
aI71
aI14
aI252
aI138
aI153
aI95
aI10
aI171
aI109
aI268
aI131
aI264
aI137
aI761
aI34
asVhttps://www.reddit.com/r/watch_dogs/comments/286hh6/what_would_you_like_to_see_a_watch_dogs_sequel/
p393
(lp394
I1919
aI638
aI55
aI35
aI494
aI84
aI568
aI187
aI155
aI100
aI96
aI2347
aI69
aI116
aI428
aI474
aI609
aI729
aI127
aI269
asVhttps://www.reddit.com/r/chicagor4r/comments/2v35ji/29_m4r_drinks_sometime_video_games_lisle_il/
p395
(lp396
I431
aI371
aI230
aI1169
aI736
aI1413
aI171
asVhttps://www.reddit.com/r/techsupport/comments/32pppl/ide_hdd_not_detected_by_bios_but_is_detected_in/
p397
(lp398
I739
aI176
aI199
aI205
aI80
aI393
aI206
aI187
aI40
asVhttps://www.reddit.com/r/WildernessBackpacking/comments/3f5pai/transitioning_from_day_hikes_to_backpackingcamping/
p399
(lp400
I847
aI126
aI382
aI562
aI347
aI916
aI180
aI228
aI530
aI390
aI606
aI492
aI174
aI933
aI283
aI81
aI218
aI88
aI352
aI17
aI90
aI133
aI1118
aI730
aI60
aI134
aI51
asVhttps://www.reddit.com/r/facepalm/comments/2r297y/can_someone_please_tell_lindsay_lohan_what_year/
p401
(lp402
I0
aI77
aI43
aI16
aI34
aI49
aI42
aI38
aI134
aI46
aI71
aI40
aI58
aI162
aI18
aI68
aI84
aI80
aI17
aI46
aI17
aI14
aI25
aI115
aI35
aI66
aI46
aI23
aI58
aI56
aI218
aI42
aI57
aI13
aI107
aI87
aI63
aI41
aI322
asVhttps://www.reddit.com/r/sto/comments/4fkz4t/finding_the_istaap_for_an_accolade/
p403
(lp404
I179
aI149
aI229
aI130
aI15
aI147
aI44
aI131
aI236
aI135
asVhttps://www.reddit.com/r/AskLEO/comments/38x3zt/cbp_officer_entrance_exam_questions/
p405
(lp406
I306
aI106
aI32
aI129
aI8
aI29
asVhttps://www.reddit.com/r/mac/comments/2qkixq/buying_13_rmbp_question_about_ssd/
p407
(lp408
I383
aI80
aI370
aI955
aI174
aI76
aI103
aI149
aI228
asVhttps://www.reddit.com/r/leagueoflegends/comments/2tbcqv/why_is_there_no_mana_biscuit_id_love_to_have_one/
p409
(lp410
I211
aI76
aI120
aI12
aI63
aI187
aI41
aI69
aI77
asVhttps://www.reddit.com/r/vegan/comments/4gvirz/help_me_out_guys_is_this_vegan_nesquik_powder/
p411
(lp412
I330
aI28
aI24
aI144
aI137
aI71
aI187
aI41
asVhttps://www.reddit.com/r/techsupport/comments/30ubu9/browser_speed_at_253_mbit_steam_and_torrents_at/
p413
(lp414
I69
aI90
aI113
aI17
aI140
aI229
aI210
asVhttps://www.reddit.com/r/knitting/comments/1rm8ln/advice_on_what_increasedecrease_to_use/
p415
(lp416
I392
aI164
aI114
aI71
aI25
aI18
asVhttps://www.reddit.com/r/fountainpens/comments/22cry1/new_toy_from_pen_place_in_kc/
p417
(lp418
I420
aI30
aI267
aI71
aI98
aI70
aI147
aI215
aI292
aI122
aI107
aI62
aI380
aI72
aI198
aI73
aI123
aI154
aI115
aI96
aI137
aI15
aI194
asVhttps://www.reddit.com/r/flextweak/comments/1tsnm7/requesting_youtube_tutorials/
p419
(lp420
I301
aI21
aI63
aI23
aI151
aI66
aI100
aI272
aI270
aI36
aI151
aI315
aI96
aI20
asVhttps://www.reddit.com/r/wow/comments/2dxx0b/looking_for_healthy_alliance_favored_pve_servers/
p421
(lp422
I344
aI85
aI19
aI80
aI52
aI237
aI349
aI51
asVhttps://www.reddit.com/r/TheNarutoWorld/comments/1wqxyy/looking_for_information_on_taro/
p423
(lp424
I119
aI88
aI65
aI81
aI40
aI81
aI82
aI71
aI141
aI103
aI119
aI62
aI44
aI166
aI36
aI43
aI79
aI25
aI157
aI128
aI138
aI210
aI134
aI79
aI55
aI116
aI32
aI72
aI59
aI99
aI64
aI89
aI104
aI25
aI83
aI53
aI52
aI21
aI100
aI39
aI148
asVhttps://www.reddit.com/r/Cooking/comments/1noffg/what_kinds_of_panspots_for_what_kind_of_dishes/
p425
(lp426
I453
aI1399
aI422
aI431
aI184
aI836
aI224
aI86
aI800
aI221
aI516
aI701
aI426
aI2238
aI171
asVhttps://www.reddit.com/r/wiiu/comments/1wgjnx/is_it_possible_from_turning_the_wiiu_on_to_play/
p427
(lp428
I533
aI442
aI707
aI117
aI100
aI60
aI170
aI95
aI217
aI159
aI205
aI32
aI67
aI55
aI87
aI309
aI267
aI36
aI81
aI6
aI51
aI36
aI138
aI796
aI329
aI9
aI64
asVhttps://www.reddit.com/r/nba/comments/qyvrv/as_a_warriors_fan_i_am_wary_and_certainly_hopeful/
p429
(lp430
I643
aI95
aI211
aI74
aI110
aI497
aI91
aI74
aI156
aI204
aI289
aI21
asVhttps://www.reddit.com/r/relationships/comments/447mz6/my_m22_girlfriend_f22_consistently_looks_up_her/
p431
(lp432
I9
aI199
aI84
aI144
aI51
aI79
aI9
aI198
aI9
aI80
aI285
aI168
aI75
aI157
aI28
asVhttps://www.reddit.com/r/masseffect/comments/1ddkmv/spoilers_a_crazy_theory_about_the_protheans/
p433
(lp434
I1655
aI1635
aI1710
aI863
aI1229
aI18
aI331
aI40
aI189
aI16
aI841
aI154
aI43
aI99
aI922
aI148
aI237
aI563
aI39
aI54
aI12
asVhttps://www.reddit.com/r/woodworking/comments/x8z5u/help_a_newb_understand_the_difference_between_a/
p435
(lp436
I347
aI788
aI71
aI245
aI426
aI183
aI42
aI219
aI259
asVhttps://www.reddit.com/r/RealEstate/comments/4ckzf7/fl_realty_company_wants_double_security_deposit/
p437
(lp438
I250
aI96
aI235
aI214
aI46
aI240
aI95
aI18
aI48
aI154
aI31
aI20
aI48
aI44
aI212
aI93
aI242
aI111
aI134
aI11
aI94
aI96
aI7
aI119
aI100
asVhttps://www.reddit.com/r/conspiracy/comments/2pp5gh/any_conspiracy_theorist_programmers_here_i_need/
p439
(lp440
I478
aI449
aI1144
aI64
aI389
aI574
aI143
aI290
aI201
aI218
aI101
aI7
aI128
aI135
aI316
aI10
asVhttps://www.reddit.com/r/webdev/comments/3xrt8y/should_i_be_handwritting_all_my_html/
p441
(lp442
I564
aI490
aI3
aI128
aI45
aI458
aI489
aI474
aI227
aI176
aI231
aI79
aI214
aI318
aI290
aI48
aI93
aI220
aI1539
aI159
aI115
asVhttps://www.reddit.com/r/letsplay/comments/39mtd7/facecam_problems_again/
p443
(lp444
I272
aI776
aI312
aI737
aI15
aI25
aI9
aI154
asVhttps://www.reddit.com/r/gaming/comments/pwodg/halo_reach_question/
p445
(lp446
I201
aI427
aI32
aI132
aI7
aI14
aI238
aI48
asVhttps://www.reddit.com/r/buildapc/comments/1slm1o/help_my_build_im_working_on_wont_post/
p447
(lp448
I9
aI74
aI21
aI9
aI79
aI9
aI9
aI12
aI340
aI780
aI100
aI300
aI9
aI157
aI113
aI9
aI110
aI177
aI112
aI9
aI134
asVhttps://www.reddit.com/r/fantasyfootball/comments/2nz95x/how_can_those_of_us_who_are_knocked_out_stay/
p449
(lp450
I188
aI140
aI80
aI121
aI250
aI204
aI132
aI161
aI92
aI294
aI356
aI227
aI391
aI27
aI26
aI467
aI515
aI398
aI78
aI255
aI62
aI34
aI10
aI82
aI25
aI74
asVhttps://www.reddit.com/r/talesfromtechsupport/comments/vz7ep/one_of_my_first_windows_97/
p451
(lp452
I1480
aI105
aI50
aI274
aI33
aI78
aI105
aI38
aI126
aI8
aI393
aI9
aI174
aI47
aI150
aI43
aI49
aI113
aI52
aI161
aI114
aI51
aI118
aI161
aI49
aI90
aI76
aI10
aI15
aI75
aI166
aI89
aI14
aI16
aI115
aI3
aI37
aI102
aI37
aI23
aI44
asVhttps://www.reddit.com/r/cycling/comments/2bqd7v/hit_by_a_car_yesterday_bike_and_nerves_are_a/
p453
(lp454
I437
aI450
aI556
aI374
aI392
aI1601
aI447
aI1371
aI258
aI453
aI679
aI610
aI407
aI884
aI18
aI85
aI74
aI111
aI331
aI283
aI32
aI162
aI160
aI11
aI156
aI59
aI107
aI328
aI26
aI59
aI76
aI108
aI148
aI3
aI30
asVhttps://www.reddit.com/r/LawSchool/comments/2o6sio/does_anyone_have_strict_liability_tort_problems/
p455
(lp456
I154
aI128
aI198
aI154
aI403
aI123
aI160
aI234
aI158
aI139
aI622
aI2064
aI450
aI116
aI177
asVhttps://www.reddit.com/r/poecilia/comments/2ic19o/how_common_are_blackchinned_livebearers/
p457
(lp458
I319
aI91
aI98
aI130
aI36
aI20
aI171
aI115
aI27
asVhttps://www.reddit.com/r/electricians/comments/3ie2sz/single_wall_outlet_failure_usa/
p459
(lp460
I719
aI509
aI59
aI711
aI129
aI86
aI82
aI31
aI232
aI37
aI83
aI239
aI89
aI217
aI448
aI152
aI47
aI56
aI106
asVhttps://www.reddit.com/r/buildmeapc/comments/4gh6bj/request_cheapish_low_mid_end_art_pc/
p461
(lp462
I1364
aI22
aI1876
aI293
aI145
aI3315
aI72
asVhttps://www.reddit.com/r/buildapc/comments/12jo5z/troubleshooting_after_installing_video_card/
p463
(lp464
I495
aI163
aI41
aI88
aI21
aI224
aI187
aI261
aI85
asVhttps://www.reddit.com/r/Guitar/comments/n2in9/hey_rguitar_im_auditioning_for_a_music_school_in/
p465
(lp466
I342
aI1679
aI71
aI114
aI190
aI441
aI27
aI69
aI437
aI175
aI641
aI222
aI163
aI463
aI89
aI159
aI183
aI124
aI15
aI1701
aI444
aI126
aI66
asVhttps://www.reddit.com/r/casualiama/comments/3bna8h/we_eliminated_95_of_red_meat_from_our_diet_on_jan/
p467
(lp468
I0
aI20
aI180
aI73
aI37
aI8
aI454
aI225
aI58
aI124
aI131
aI223
aI53
aI65
aI72
asVhttps://www.reddit.com/r/discgolf/comments/2h2yo2/top_5_disc_of_all_time/
p469
(lp470
I9
aI21
aI26
aI40
aI214
aI981
aI38
aI120
aI37
aI84
aI74
aI46
aI218
aI38
aI137
aI81
aI58
aI7
aI23
aI44
aI101
aI49
aI4
aI309
aI18
aI139
aI564
aI50
aI14
aI63
aI34
aI34
aI624
aI85
aI177
aI50
aI43
aI46
aI30
asVhttps://www.reddit.com/r/mylittlepony/comments/17paj4/this_has_probably_been_asked_before_but_what_are/
p471
(lp472
I319
aI66
aI155
aI135
aI254
aI276
aI223
aI323
aI1089
aI122
aI149
aI608
aI73
aI117
aI330
aI101
aI18
aI162
aI140
aI31
aI75
aI54
aI173
aI564
aI52
aI211
aI122
aI85
aI337
aI84
asVhttps://www.reddit.com/r/waterporn/comments/tiuis/river_camel_estuary_padstow_cornwall_720x540/
p473
(lp474
I0
aI123
aI136
aI78
aI150
aI43
aI323
aI45
aI46
aI282
asVhttps://www.reddit.com/r/arma/comments/1fy1xp/system_lags_after_using_thermal_imaging_for_a/
p475
(lp476
I181
aI61
aI24
aI129
aI278
aI240
aI121
aI216
aI110
aI86
aI188
asVhttps://www.reddit.com/r/pcmasterrace/comments/2fcoop/brothers_i_need_your_guidance/
p477
(lp478
I965
aI134
aI348
aI249
aI149
aI240
aI102
aI63
aI248
aI135
aI61
aI377
aI190
aI41
asVhttps://www.reddit.com/r/legaladvice/comments/20kjy9/nj_dui_last_night/
p479
(lp480
I2079
aI59
aI179
aI188
aI1774
aI130
aI111
aI250
aI658
aI701
aI238
aI541
asVhttps://www.reddit.com/r/flyfishing/comments/3xkx1e/end_of_the_season_in_the_black_forest_in_germany/
p481
(lp482
I0
aI54
aI116
aI52
aI136
aI155
aI65
aI330
asVhttps://www.reddit.com/r/SocialEngineering/comments/xufgo/why_you_should_check_your_flash_player_for_csrf/
p483
(lp484
I703
aI54
aI290
aI99
aI25
aI135
aI25
aI201
asVhttps://www.reddit.com/r/evolution/comments/33hwp1/evolution_of_vestigial_organs/
p485
(lp486
I363
aI1164
aI888
aI690
aI68
aI879
aI419
aI528
aI789
aI850
aI169
aI505
aI991
aI616
aI602
aI34
asVhttps://www.reddit.com/r/llsif/comments/3gn1il/en_score_match_11_nico_and_jp_token_event_28/
p487
(lp488
I960
aI128
aI183
aI504
aI265
aI173
aI264
aI88
aI221
aI372
aI1133
aI220
aI424
aI421
aI736
aI363
aI617
aI117
aI5
asVhttps://www.reddit.com/r/pcmasterrace/comments/3yk5oc/recently_ascended_games_are_crashing_im_lost_help/
p489
(lp490
I9
aI170
aI104
aI938
aI126
aI210
aI217
aI110
aI195
aI1308
aI64
aI187
aI268
aI245
aI437
aI142
aI248
aI468
aI79
aI228
aI567
aI128
aI348
aI676
aI193
aI242
aI243
asVhttps://www.reddit.com/r/trees/comments/3d5gnu/the_future_cannabis_clubs/
p491
(lp492
I0
aI215
aI88
aI127
aI108
aI58
aI71
aI29
aI47
aI309
aI85
aI18
aI43
aI101
aI96
aI85
aI129
aI1075
aI22
aI88
aI21
aI101
aI158
aI33
aI41
aI175
aI67
aI108
aI93
aI56
aI64
aI156
aI130
aI98
aI123
aI36
aI61
aI614
aI205
aI146
asVhttps://www.reddit.com/r/AskBattlestations/comments/1ywx3e/im_a_noob/
p493
(lp494
I880
aI339
aI3404
aI543
aI3
aI185
aI72
aI185
aI65
aI32
aI47
aI95
asVhttps://www.reddit.com/r/Nexus5/comments/37puhp/got_my_screen_replaced_now_my_led_notification/
p495
(lp496
I273
aI299
aI79
aI200
aI85
aI231
aI158
aI194
aI382
aI83
aI7
aI246
aI132
aI118
aI121
aI78
aI115
aI81
aI461
aI88
aI59
asVhttps://www.reddit.com/r/GPGpractice/comments/4dm0g0/iso_encryption_buddy/
p497
(lp498
I148
aI625
aI3216
aI9
aI41
aI75
aI68
aI25
aI9
aI41
aI274
aI36
aI12
asVhttps://www.reddit.com/r/skyrim/comments/mvega/college_of_winterhold_good_intentions_doesnt/
p499
(lp500
I276
aI135
aI282
aI101
aI196
aI588
aI52
asVhttps://www.reddit.com/r/trees/comments/3cv9po/mddcva_residents_any_clues_as_to_when_dc_will/
p501
(lp502
I140
aI189
aI262
aI244
aI141
aI258
asVhttps://www.reddit.com/r/AskHistorians/comments/3g6fd8/i_found_this_dress_at_a_thrift_store_what_era_and/
p503
(lp504
I398
aI562
aI137
aI65
aI125
aI40
aI190
aI862
aI75
asVhttps://www.reddit.com/r/wallstreetbets/comments/4cr53n/gluu_undervalued/
p505
(lp506
I340
aI228
aI184
aI127
aI310
aI45
aI129
aI45
asVhttps://www.reddit.com/r/shittyaskscience/comments/3d2o3o/if_i_have_water_in_my_ear_is_it_safe_to_listen_to/
p507
(lp508
I0
aI37
aI135
aI59
aI187
aI45
aI20
aI17
aI5
aI17
aI35
aI15
aI11
aI10
asVhttps://www.reddit.com/r/LiverpoolFC/comments/g8gde/quick_question_why_do_we_need_to_finish_5th_to/
p509
(lp510
I240
aI749
aI68
aI130
aI24
aI414
aI63
aI205
aI2089
asVhttps://www.reddit.com/r/touchpad/comments/ynjp7/up_to_date_cm9_guide/
p511
(lp512
I739
aI116
aI160
aI50
aI69
aI273
aI187
aI60
aI528
aI91
asVhttps://www.reddit.com/r/hearthstone/comments/4ati4h/wow_questing_to_level_20/
p513
(lp514
I198
aI80
aI43
aI152
aI191
aI56
aI166
aI277
aI161
asVhttps://www.reddit.com/r/relationships/comments/3ymw85/how_do_i_20f_tell_my_new_boyfriend_24m_about_my/
p515
(lp516
I1120
aI720
aI443
aI557
aI267
aI703
aI714
aI162
aI1107
aI808
aI1390
aI1007
aI245
aI153
aI125
aI119
aI129
aI52
aI393
aI210
aI337
aI15
aI27
aI11
aI62
asVhttps://www.reddit.com/r/1911/comments/35igzp/help_with_a_possible_trade/
p517
(lp518
I801
aI779
aI30
aI208
aI429
aI180
aI37
aI363
asVhttps://www.reddit.com/r/explainlikeimfive/comments/1wa29o/eli5_how_does_nafta_benefit_the_countries_signed/
p519
(lp520
I276
aI163
aI280
aI980
aI281
aI206
aI229
aI16
aI19
asVhttps://www.reddit.com/r/GalaxyS3/comments/179tye/help_was_trying_to_install_cm101_when_the/
p521
(lp522
I0
aI147
aI326
aI294
aI652
aI150
aI697
aI555
aI202
aI90
aI227
aI78
aI192
aI75
aI395
aI39
aI96
asVhttps://www.reddit.com/r/buildapc/comments/41fhwr/troubleshooting_multiple_problems/
p523
(lp524
I4244
aI329
aI29
aI101
aI184
aI286
aI57
asVhttps://www.reddit.com/r/DotA2/comments/46edrj/make_iron_talon_a_requirement_for_battlefurry/
p525
(lp526
I80
aI5
aI54
aI21
aI58
aI757
aI20
aI64
aI37
aI78
aI94
aI144
aI72
aI67
aI153
aI65
aI71
asVhttps://www.reddit.com/r/stalker/comments/2x1235/need_help_in_valley_of_whispers_dolina_shorohov/
p527
(lp528
I200
aI149
aI27
aI162
aI190
aI17
aI163
aI35
asVhttps://www.reddit.com/r/jailbreak/comments/qgbrz/easy_way_to_jailbreak_ipod_4g/
p529
(lp530
I155
aI100
aI117
aI137
aI18
aI221
aI57
aI181
aI77
aI24
asVhttps://www.reddit.com/r/buildapcforme/comments/26mbkn/please_help_8001100_ultra_gaminggraphic_design_pc/
p531
(lp532
I1792
aI2198
aI264
aI155
aI2383
aI22
aI26
aI90
aI354
asVhttps://www.reddit.com/r/nyjets/comments/34g96m/predraft_lets_not_fuck_this_up_upvote_party/
p533
(lp534
I9
aI1
aI26
aI209
aI151
aI180
aI11
aI73
aI119
aI34
aI48
aI43
aI162
aI3
aI48
aI121
aI39
aI23
aI23
aI60
aI38
aI37
aI22
aI1
aI38
aI27
aI29
aI46
aI40
aI61
aI92
aI1
aI37
aI52
aI9
aI1
aI5
asVhttps://www.reddit.com/r/deadliestcatch/comments/1cj5pf/who_is_your_favorite_captain_who_is_your_least/
p535
(lp536
I115
aI158
aI551
aI38
aI256
aI81
aI72
aI316
aI92
aI314
aI38
aI71
asVhttps://www.reddit.com/r/asktrp/comments/2nd4fd/after_or_during_swallowing_the_red_pill_how_did/
p537
(lp538
I903
aI153
aI533
aI2251
aI43
aI274
aI1578
aI64
aI643
aI431
aI143
aI636
aI287
aI165
aI111
aI622
aI1066
aI473
aI2263
aI303
aI1936
aI53
aI62
aI128
asVhttps://www.reddit.com/r/dndnext/comments/3xp07s/how_bad_a_low_wisdom_save/
p539
(lp540
I341
aI344
aI450
aI434
aI590
aI564
aI130
aI63
aI784
aI182
aI111
aI298
aI371
aI518
aI1675
aI523
aI314
aI233
asVhttps://www.reddit.com/r/leagueoflegends/comments/2251o0/lux_skin_please_riot/
p541
(lp542
I171
aI30
aI91
aI44
aI67
aI84
aI19
aI29
aI44
aI25
asVhttps://www.reddit.com/r/truegaming/comments/1dxf7i/has_the_age_of_regular_updates_led_to_a_greater/
p543
(lp544
I0
aI738
aI654
aI759
aI310
aI2098
aI505
aI185
aI3434
aI1090
aI467
aI348
aI217
aI145
aI105
aI108
aI317
aI507
aI55
aI457
aI630
aI736
aI594
aI462
aI335
aI501
aI211
aI720
aI750
aI257
aI133
aI330
aI1003
aI205
aI71
asVhttps://www.reddit.com/r/playrust/comments/4jf2wb/a_simple_idea_to_help_improve_solo_play/
p545
(lp546
I155
aI67
aI94
aI55
aI70
aI44
asVhttps://www.reddit.com/r/elementaryos/comments/4gdsno/installing_from_usb_error/
p547
(lp548
I493
aI132
aI169
aI257
aI58
aI135
aI226
aI351
aI31
asVhttps://www.reddit.com/r/headphones/comments/2jc4ub/isolating_instruments/
p549
(lp550
I1240
aI911
aI63
aI104
aI567
aI97
aI901
aI300
aI165
aI338
aI621
aI1081
aI142
aI111
aI15
aI734
aI246
aI674
aI124
aI401
aI359
aI427
aI67
aI621
aI83
asVhttps://www.reddit.com/r/TalesFromRetail/comments/2fn3qz/how_my_retail_job_became_a_living_hell/
p551
(lp552
I7400
aI141
aI78
aI143
aI199
aI166
aI134
aI58
aI174
aI49
aI508
aI59
aI63
aI276
aI329
aI79
aI237
aI236
aI60
aI490
aI26
aI230
aI52
aI254
aI89
aI55
aI174
aI51
aI57
aI230
aI72
asVhttps://www.reddit.com/r/CyberSleuth/comments/4af1qy/question_about_new_game_plus/
p553
(lp554
I57
aI65
aI105
aI135
aI33
aI54
asVhttps://www.reddit.com/r/wwesupercard/comments/377ioi/log_in_bonus_is_it_the_same_for_everybody/
p555
(lp556
I240
aI334
aI172
aI322
aI537
aI144
aI304
aI90
aI115
aI209
aI237
aI99
aI94
aI440
aI198
aI794
aI379
aI187
aI340
aI890
asVhttps://www.reddit.com/r/Dogtraining/comments/236orn/any_tips_on_curbing_serious_feardefensive/
p557
(lp558
I2230
aI2797
aI554
aI1107
aI850
aI602
aI769
aI247
aI537
aI1365
aI1804
aI139
aI326
aI1202
aI67
aI45
aI53
asVhttps://www.reddit.com/r/resumes/comments/35g133/i_was_offered_a_job_but_the_manager_also/
p559
(lp560
I2020
aI156
aI512
aI587
aI325
aI138
aI275
aI87
aI1602
aI144
aI231
aI253
aI214
aI86
aI177
aI127
aI119
aI245
aI318
asVhttps://www.reddit.com/r/funkopop/comments/3ikswe/flocked_simba_available_htcom/
p561
(lp562
I0
aI305
aI80
aI43
aI27
aI114
aI10
aI123
aI322
aI98
aI34
aI214
aI27
aI94
aI82
aI64
aI167
aI88
aI166
aI124
aI96
aI93
aI10
aI35
aI176
aI35
aI76
aI62
asVhttps://www.reddit.com/r/BuildPC/comments/42yo6b/building_a_pc_for_oculus_rift/
p563
(lp564
I9
aI465
aI209
aI245
aI384
aI94
aI119
aI308
aI721
aI94
aI112
aI64
aI363
aI166
asVhttps://www.reddit.com/r/buildapc/comments/mmo8t/troubleshooting_random_hard_locks_bsods_under/
p565
(lp566
I1140
aI94
aI123
aI222
aI37
aI114
asVhttps://www.reddit.com/r/peloton/comments/1ks26y/roadcc_prevuelta_standings_and_registration/
p567
(lp568
I2054
aI2137
aI583
aI1008
aI286
aI146
aI285
aI47
aI697
aI254
aI946
aI60
aI166
aI84
aI70
aI508
aI39
aI195
aI150
aI25
aI40
aI155
aI474
aI89
aI189
aI41
aI60
aI377
aI166
aI9
aI767
aI186
asVhttps://www.reddit.com/r/truegaming/comments/10gb8n/moba_control_scheme/
p569
(lp570
I705
aI801
aI138
aI68
aI354
aI183
aI501
aI985
aI300
aI173
aI153
aI235
aI53
aI109
aI1000
aI192
aI33
aI394
aI159
aI274
aI209
aI91
aI266
aI209
aI334
aI292
aI336
aI455
aI59
aI179
aI210
aI175
aI268
aI339
aI86
aI51
aI166
aI46
aI122
aI337
aI56
asVhttps://www.reddit.com/r/thedivision/comments/46jelz/is_there_a_resource_to_find_all_the_phonesintel/
p571
(lp572
I78
aI107
aI261
aI71
aI259
aI262
aI132
aI121
aI65
aI24
aI176
aI314
aI71
aI213
asVhttps://www.reddit.com/r/steroids/comments/1a95y6/understanding_testosterone_levels/
p573
(lp574
I1342
aI2051
aI639
aI1029
aI1728
aI225
aI579
aI600
aI362
aI23
aI183
aI763
aI577
asVhttps://www.reddit.com/r/FUTMobile/comments/4d7v6k/dropped_down_two_divisions_this_game_is_becoming/
p575
(lp576
I275
aI290
aI153
aI18
aI411
aI71
aI225
aI35
aI129
aI32
aI196
aI171
aI179
aI231
aI160
aI187
aI119
aI1377
aI271
aI187
aI219
aI60
aI187
aI99
aI47
aI238
aI67
aI12
asVhttps://www.reddit.com/r/SRSsucks/comments/1hdosc/exposing_the_truth_about_the_ban_of_rners/
p577
(lp578
I6259
aI373
aI1458
aI1344
aI1036
aI89
aI250
aI14
aI9
aI63
aI537
aI1073
aI432
aI294
aI488
aI72
aI1117
aI484
aI432
aI148
aI306
aI366
aI258
aI119
aI426
aI2230
aI131
aI200
asVhttps://www.reddit.com/r/edmundm/comments/2x2sxp/host/
p579
(lp580
I406
aI12
aI63
aI27
aI35
aI28
aI9
aI13
asVhttps://www.reddit.com/r/Throwers/comments/2rn11n/beginner_fine_tuning_my_throwing/
p581
(lp582
I877
aI1161
aI685
aI349
aI117
aI93
aI83
aI327
aI32
asVhttps://www.reddit.com/r/leagueoflegends/comments/1mgmh2/big_thanks_to_riot_for_getting_monte_for_analyst/
p583
(lp584
I120
aI130
aI134
aI150
aI40
aI22
aI282
aI235
aI34
aI51
aI91
aI96
aI39
aI99
aI20
aI56
aI25
aI69
aI55
aI271
aI106
aI58
aI46
aI65
aI12
aI57
aI104
aI207
aI13
aI108
aI16
aI28
aI73
aI12
aI28
aI89
aI9
aI17
aI95
aI211
aI66
asVhttps://www.reddit.com/r/dominion/comments/1yypuy/trader_question/
p585
(lp586
I307
aI155
aI924
aI246
aI1034
aI238
aI769
aI441
aI342
aI562
aI5
aI251
aI20
aI665
aI469
aI1055
aI294
asVhttps://www.reddit.com/r/noveltranslations/comments/406a4h/cn_heavenly_jewel_change_book_6_chapter_42_part_1/
p587
(lp588
I1859
aI117
aI63
aI14
aI58
aI50
aI96
aI194
aI38
aI36
aI7
aI44
aI24
aI296
aI131
aI67
aI59
aI35
aI73
aI20
aI27
aI59
asVhttps://www.reddit.com/r/ShouldIbuythisgame/comments/4cga1r/sib_masters_of_orion_collectors_edition/
p589
(lp590
I165
aI457
aI129
aI19
aI88
aI41
aI49
aI268
aI368
aI76
aI80
aI44
aI136
aI76
aI279
aI159
asVhttps://www.reddit.com/r/MMA/comments/4jgm0c/spoilers_mostleast_surprising_fight_results/
p591
(lp592
I395
aI87
aI47
aI101
aI17
aI209
aI190
aI123
aI7
aI283
aI1636
aI374
aI119
aI69
aI52
aI81
aI193
aI40
aI113
aI87
aI47
aI64
aI364
aI251
aI24
aI40
aI21
aI52
aI466
aI87
aI58
aI799
aI390
aI167
aI116
aI410
asVhttps://www.reddit.com/r/tarantulas/comments/2y2y3l/a_question_thats_been_bothering_me_about_freebies/
p593
(lp594
I206
aI233
aI722
aI349
aI669
aI560
aI16
aI72
aI116
aI238
aI147
aI287
aI216
aI111
aI148
aI88
asVhttps://www.reddit.com/r/wildwhittlers/comments/2vgpg2/im_sorry_i_know_there_are_a_lot_of_these_but_i/
p595
(lp596
I167
aI860
aI180
aI307
aI284
aI378
aI209
aI29
aI361
aI313
aI25
asVhttps://www.reddit.com/r/WildStar/comments/3yf14r/hey_so_when_i_try_to_launch_the_game_i_get_this/
p597
(lp598
I112
aI128
aI349
aI141
aI69
aI27
aI408
aI26
aI712
aI55
asVhttps://www.reddit.com/r/EliteDangerous/comments/4k7o5w/disrupt_the_neits_cg_heres_how/
p599
(lp600
I178
aI4
aI4
aI76
aI137
aI601
aI97
aI30
aI95
aI371
aI262
aI53
asVhttps://www.reddit.com/r/thedivision/comments/410gb6/level_advantage/
p601
(lp602
I333
aI193
aI87
aI162
aI52
aI217
aI238
aI92
aI327
aI253
aI80
aI116
aI126
aI31
aI110
aI171
aI7
aI95
aI192
asVhttps://www.reddit.com/r/techsupport/comments/2s1gkg/help_recovering_drive_data_from_img_file/
p603
(lp604
I1011
aI218
aI42
aI1201
aI149
aI1179
aI414
aI154
aI820
aI166
aI126
aI160
aI427
aI161
aI886
aI1253
asVhttps://www.reddit.com/r/conlangs/comments/3c5j1o/presenting_ixikyinn_my_first_conlang/
p605
(lp606
I3189
aI503
aI145
aI170
aI144
aI154
aI783
aI104
aI278
aI290
aI176
aI469
aI95
aI97
aI130
aI328
aI11
aI219
aI277
aI86
aI65
aI118
aI81
aI45
asVhttps://www.reddit.com/r/wow/comments/3blhdr/what_do_the_different_mage_specs_do/
p607
(lp608
I268
aI123
aI15
aI30
aI112
aI131
aI37
aI7
aI84
aI120
aI135
aI67
aI192
aI13
asVhttps://www.reddit.com/r/malefashionadvice/comments/1k2mgq/i_need_help_with_outfits_to_go_with_this/
p609
(lp610
I403
aI323
aI16
aI33
aI196
aI131
aI163
aI193
aI68
aI7
asVhttps://www.reddit.com/r/homelab/comments/2odo8x/new_homelab/
p611
(lp612
I642
aI118
aI362
aI108
aI114
aI360
aI31
aI26
aI139
aI99
aI177
aI116
aI371
aI7
aI181
aI12
asVhttps://www.reddit.com/r/LearnJapanese/comments/48dk4f/im_looking_for_something_like_realkana_but_with/
p613
(lp614
I1008
aI37
aI116
aI70
aI156
aI90
aI386
aI345
aI581
asVhttps://www.reddit.com/r/bindingofisaac/comments/4kjaic/the_lost_unlock_on_wii_u/
p615
(lp616
I447
aI130
aI97
aI73
aI110
aI117
aI53
aI12
aI158
asVhttps://www.reddit.com/r/ideasfortheadmins/comments/7ziwp/please_give_us_the_ability_to_see_what_subreddits/
p617
(lp618
I0
aI18
aI80
aI181
aI919
aI361
aI115
aI85
asVhttps://www.reddit.com/r/Guildwars2/comments/qucf9/me_and_the_girlfriend_was_wondering_if_the_combat/
p619
(lp620
I471
aI406
aI406
aI253
aI41
aI133
aI216
aI70
aI419
aI26
aI181
aI54
aI1446
aI579
aI118
aI85
aI138
aI221
aI170
aI195
aI636
aI983
aI212
aI82
aI9
aI60
aI60
aI179
aI153
aI228
aI186
aI366
asVhttps://www.reddit.com/r/space/comments/392xse/ldsd_parachute_is_partially_deployed/
p621
(lp622
I297
aI197
aI34
aI134
aI242
aI281
aI234
aI186
aI748
aI36
aI685
aI460
aI278
aI41
aI190
aI358
aI560
aI158
aI158
aI122
aI57
asVhttps://www.reddit.com/r/buildapc/comments/2sqie0/is_this_an_atx_or_microatx_mobo/
p623
(lp624
I182
aI61
aI138
aI60
aI49
aI118
aI21
aI67
aI101
aI53
aI197
aI72
aI15
aI211
aI129
aI333
aI69
aI167
aI305
aI312
aI228
aI144
aI54
aI197
asVhttps://www.reddit.com/r/webdev/comments/4igxug/creating_a_site_to_go_along_with_a_school_project/
p625
(lp626
I1103
aI518
aI172
aI207
aI167
aI31
aI274
aI108
aI120
aI934
aI377
aI197
asVhttps://www.reddit.com/r/Coffee/comments/40upol/i_have_an_8_cup_chemex_what_if_i_want_to_make_4/
p627
(lp628
I0
aI291
aI186
aI105
aI281
aI701
asVhttps://www.reddit.com/r/buildapc/comments/1trddi/i_just_bought_a_pny_geforce_gtx_650_and_i_cant/
p629
(lp630
I190
aI79
aI89
aI78
aI7
aI152
aI107
aI46
aI268
aI217
aI136
aI243
asVhttps://www.reddit.com/r/evangelion/comments/16mxbe/something_i_noticed_about_mari_spoilers/
p631
(lp632
I345
aI142
aI107
aI142
aI176
aI302
aI67
aI624
aI122
aI510
aI487
aI226
aI35
aI70
aI27
aI145
aI387
aI79
aI221
aI186
aI45
aI28
aI87
aI55
aI561
aI110
aI363
aI24
aI105
aI68
aI15
asVhttps://www.reddit.com/r/Health/comments/tdtoq/question_about_birth_control_and_possible/
p633
(lp634
I487
aI726
aI240
aI164
aI452
aI94
aI124
aI204
aI233
aI112
aI258
aI80
aI130
asVhttps://www.reddit.com/r/GODZILLA/comments/2c2url/favorite_roars/
p635
(lp636
I963
aI38
aI108
aI23
aI68
aI104
aI43
aI81
aI141
aI17
aI58
aI87
aI37
aI13
aI1
aI4
aI34
aI83
aI39
aI30
aI11
aI28
aI29
aI30
aI92
aI3
asVhttps://www.reddit.com/r/guns/comments/29hzwp/quick_questions_on_fixing_up_an_old_german_ww2/
p637
(lp638
I625
aI184
aI718
aI46
aI511
aI180
aI145
aI331
aI171
aI66
aI35
aI285
aI112
aI18
aI104
asVhttps://www.reddit.com/r/Games/comments/2wyqgj/chris_roberts_says_star_citizen_is_about_to_start/
p639
(lp640
I0
aI424
aI281
aI399
aI415
aI4
aI680
aI152
aI570
aI60
aI126
aI62
aI154
aI184
aI89
aI145
aI929
aI79
aI52
aI81
aI168
aI138
aI411
asVhttps://www.reddit.com/r/shittyadvice/comments/1dyg5f/both_of_my_girlfriends_have_trust_issues_help/
p641
(lp642
I0
aI90
aI65
aI40
aI161
aI54
aI202
aI257
aI78
aI51
aI48
aI170
aI25
aI57
aI55
aI144
aI47
aI35
aI36
aI9
aI153
aI183
aI8
aI267
aI49
aI40
aI130
aI96
asVhttps://www.reddit.com/r/askmath/comments/29x3n0/algebraic_structures_group_and_field/
p643
(lp644
I94
aI989
aI222
aI570
aI651
aI16
aI216
aI373
asVhttps://www.reddit.com/r/legaladvice/comments/4cfioo/beaver_dams_in_county_drain_flooding_homes/
p645
(lp646
I1894
aI1013
aI204
aI475
aI486
aI468
aI125
aI566
aI282
aI1321
aI622
asVhttps://www.reddit.com/r/flying/comments/39r81f/what_can_i_do_to_keep_me_satisfied_while_i_wait/
p647
(lp648
I438
aI181
aI20
aI148
aI21
aI229
aI385
aI759
aI62
aI48
aI1121
aI351
aI224
aI50
aI55
aI1110
aI162
aI63
aI599
aI363
aI290
aI257
aI102
aI167
aI115
asVhttps://www.reddit.com/r/circlejerk/comments/2uc12h/i_am_dan_k_meme_ama/
p649
(lp650
I39
aI9
aI10
aI39
aI48
asVhttps://www.reddit.com/r/asktransgender/comments/10556k/what_to_do/
p651
(lp652
I1062
aI2101
aI219
aI737
aI19
aI324
aI83
aI340
aI45
aI373
asVhttps://www.reddit.com/r/linux/comments/1ldmw6/devurandom_very_slow/
p653
(lp654
I1646
aI90
aI130
aI441
aI71
aI471
aI397
aI177
aI279
aI450
aI164
aI30
asVhttps://www.reddit.com/r/Bellingham/comments/2dk0lr/good_first_date_places/
p655
(lp656
I275
aI469
aI141
aI106
aI52
aI142
aI440
aI975
aI98
aI647
aI395
aI62
asVhttps://www.reddit.com/r/gaming/comments/1hb0kd/the_last_of_us_is_great_so_far_but_something/
p657
(lp658
I924
aI132
aI397
aI225
aI259
aI200
aI365
aI35
aI273
aI11
aI126
aI161
aI149
aI116
aI168
aI106
aI135
aI164
asVhttps://www.reddit.com/r/MURICA/comments/3z2qdb/my_view_on_gun_control_dont_know_the_proper_place/
p659
(lp660
I2305
aI1036
aI699
aI76
aI92
aI179
aI24
aI601
aI658
asVhttps://www.reddit.com/r/htcone/comments/1uelmj/cm_11/
p661
(lp662
I334
aI123
aI83
aI122
aI66
aI17
aI17
aI139
asVhttps://www.reddit.com/r/skyrim/comments/1pw7gh/skyrim_permadeath_roleplay_part_1/
p663
(lp664
I9
aI227
aI112
aI32
aI145
aI45
aI57
aI25
aI546
aI285
aI192
aI161
aI291
aI215
aI571
aI145
aI95
aI46
aI68
aI184
asVhttps://www.reddit.com/r/BadSocialScience/comments/2er7z1/muh_habitus/
p665
(lp666
I103
aI145
aI143
aI169
aI98
aI280
asVhttps://www.reddit.com/r/Lightpack/comments/28097w/prismatik_ambi_box_eating_cpu/
p667
(lp668
I334
aI65
aI57
aI423
aI255
aI45
aI23
aI710
aI276
aI66
aI76
aI216
aI388
aI13
aI80
aI46
aI334
aI540
aI558
asVhttps://www.reddit.com/r/battlestations/comments/119kki/dorm_style/
p669
(lp670
I0
aI123
aI13
aI32
aI58
aI235
aI523
aI62
aI80
aI399
aI144
aI172
aI23
aI95
aI149
aI405
aI22
aI299
aI61
aI148
aI38
aI41
asVhttps://www.reddit.com/r/roosterteeth/comments/2j44rx/if_you_were_going_to_be_on_an_episode_of_quick/
p671
(lp672
I728
aI87
aI462
aI57
aI62
aI323
aI61
aI11
aI75
aI181
aI59
aI67
aI21
aI54
asVhttps://www.reddit.com/r/pcmasterrace/comments/2rjkdx/help_me_rpcmasterrace_youre_my_only_help/
p673
(lp674
I1563
aI70
aI32
aI926
aI29
aI185
aI287
aI61
aI19
aI3
aI278
aI255
aI67
aI59
aI28
aI137
aI109
aI136
asVhttps://www.reddit.com/r/cars/comments/3e72rv/all_motor_ford_taurus_runs_an_118x_in_the_14_mile/
p675
(lp676
I0
aI41
aI54
aI56
aI264
aI49
aI60
aI298
aI320
aI213
aI53
asVhttps://www.reddit.com/r/aion/comments/4d04ps/just_like_most_of_these_posts_should_i_play/
p677
(lp678
I448
aI693
aI221
aI774
aI13
aI79
aI91
asVhttps://www.reddit.com/r/Christianity/comments/19kaws/not_a_christian_but_have_a_question/
p679
(lp680
I454
aI71
aI566
aI306
aI47
aI20
aI141
aI223
aI143
aI64
aI97
aI374
aI216
aI56
aI469
aI13
asVhttps://www.reddit.com/r/criticalrole/comments/4lf8gv/no_spoilers_come_on_guys_stop_the_flaming/
p681
(lp682
I428
aI381
aI733
aI171
aI649
aI449
aI1361
aI185
aI385
aI161
aI66
aI206
aI157
aI231
aI194
aI20
aI286
aI258
aI891
aI590
aI435
aI170
aI188
aI274
aI132
aI103
aI700
aI1171
aI328
aI340
aI114
aI1184
aI1010
aI71
aI198
aI126
aI472
aI280
aI85
aI237
aI123
asVhttps://www.reddit.com/r/tifu/comments/27qzjj/tifu_by_adjusting_my_package_and_picking_my_nose/
p683
(lp684
I952
aI142
aI82
aI343
aI32
aI167
aI60
asVhttps://www.reddit.com/r/VINChecks/comments/2wvnor/full_2007_toyota_camry_xle/
p685
(lp686
I17
aI40
aI57
aI238
aI253
aI282
aI87
aI225
aI86
asVhttps://www.reddit.com/r/buildapc/comments/2w351t/build_help_600800_upgrade/
p687
(lp688
I2044
aI171
aI77
aI241
aI151
aI71
aI86
aI166
aI316
aI167
aI160
aI107
aI15
aI164
aI43
asVhttps://www.reddit.com/r/destinyknot/comments/1urjh5/h_5iv_imperfect_charmanders_and_4iv_female_noibat/
p689
(lp690
I0
aI144
aI53
aI117
aI169
aI84
aI8
asVhttps://www.reddit.com/r/whitecapsfc/comments/24tr4i/whitcaps_vs_tfc_viewing_in_new_west/
p691
(lp692
I57
aI573
aI129
aI130
aI175
aI156
aI217
aI351
aI220
asVhttps://www.reddit.com/r/buildapc/comments/zmb80/build_help_i_need_a_decision_now_and_i_dont_know/
p693
(lp694
I269
aI31
aI478
aI164
aI251
aI66
aI486
aI133
aI100
aI57
aI94
aI183
asVhttps://www.reddit.com/r/bloodborne/comments/4cvhw2/chalice_dungeon_help_anyone/
p695
(lp696
I891
aI106
aI1439
aI78
aI97
aI289
aI339
aI70
asVhttps://www.reddit.com/r/goodyearwelt/comments/24rxbp/apprehensions_about_handsewns/
p697
(lp698
I934
aI30
aI317
aI355
aI63
aI291
aI23
aI12
aI647
aI69
aI77
aI465
aI225
aI448
aI12
aI251
aI258
aI63
aI43
aI127
aI130
aI159
aI94
aI103
aI104
aI218
aI117
asVhttps://www.reddit.com/r/teenagers/comments/2bxinw/those_nights_where_youre_stuck_thinking_about/
p699
(lp700
I59
aI23
aI56
aI102
aI132
aI68
aI78
aI127
aI29
aI118
aI107
aI214
aI178
aI184
aI162
aI111
aI35
aI73
aI64
aI156
aI86
aI23
aI152
aI96
aI26
aI11
aI18
asVhttps://www.reddit.com/r/trees/comments/4awb8j/took_my_first_dabs_today/
p701
(lp702
I452
aI607
aI27
aI14
aI32
aI98
asVhttps://www.reddit.com/r/buildapc/comments/1nsfo9/is_there_any_reason_not_to_use_an_amd_fx_8350/
p703
(lp704
I104
aI125
aI147
aI764
aI313
aI57
aI46
aI107
aI153
aI90
aI143
aI375
aI295
asVhttps://www.reddit.com/r/medlabprofessionals/comments/3zh33c/anyone_work_at_mayo_clinic_in_ohio/
p705
(lp706
I92
aI85
aI181
aI218
aI9
aI499
aI300
aI59
aI201
aI224
asVhttps://www.reddit.com/r/nosgoth/comments/2z0j90/why_help_the_razielim_the_other_clans/
p707
(lp708
I127
aI736
aI362
aI215
aI180
aI113
aI319
aI326
aI12
asVhttps://www.reddit.com/r/reloading/comments/1pc7zr/what_is_your_favorite_press_or_what_do_you_think/
p709
(lp710
I198
aI1495
aI624
aI174
aI277
aI154
aI368
aI1066
aI590
aI360
aI172
aI90
aI290
aI41
aI61
aI314
aI71
aI108
aI277
aI269
aI418
aI352
aI185
aI175
aI45
aI9
aI84
aI336
aI60
aI303
aI478
asVhttps://www.reddit.com/r/crayonpop/comments/19l4vn/crayon_pop_tv_ep_10/
p711
(lp712
I0
aI33
aI133
aI99
aI164
aI16
aI11
aI72
aI103
asVhttps://www.reddit.com/r/electronic_cigarette/comments/4cc5xw/question_how_to_get_in_contact_with_aspiring/
p713
(lp714
I439
aI159
aI61
aI126
aI124
aI97
aI137
aI117
aI59
aI167
aI135
aI55
aI142
aI20
aI27
aI8
asVhttps://www.reddit.com/r/blackberry/comments/19luk7/i_have_a_new_z10_on_wind_mobile_any_clue_on_the/
p715
(lp716
I398
aI131
aI214
aI321
aI770
aI194
aI357
asVhttps://www.reddit.com/r/formula1/comments/1ap72a/question_about_ferrari_drivers_red_chair_in_garage/
p717
(lp718
I349
aI94
aI146
aI367
aI38
aI15
aI56
aI48
asVhttps://www.reddit.com/r/ripcity/comments/r5d15/caution_blazersedge_deleting_comments_and_banning/
p719
(lp720
I2276
aI257
aI525
aI109
aI229
aI96
aI77
aI174
aI607
aI162
aI229
aI110
aI73
aI53
aI17
asVhttps://www.reddit.com/r/electronic_cigarette/comments/2q4bsi/newbie_needs_help_replacing_nautilus_mini/
p721
(lp722
I877
aI9
aI385
aI183
aI292
aI220
aI472
aI538
aI9
aI203
aI130
aI9
aI9
aI242
aI557
aI9
aI9
aI176
aI472
asVhttps://www.reddit.com/r/Marvel/comments/tk5mz/in_need_of_some_help_rmarvel_im_really_wanting_to/
p723
(lp724
I0
aI212
aI256
aI65
aI156
aI254
aI144
aI255
aI93
aI169
aI375
aI136
aI197
aI325
asVhttps://www.reddit.com/r/PS3/comments/gi91t/headset_recommendations/
p725
(lp726
I416
aI692
aI85
aI56
aI142
aI109
aI111
aI474
aI788
aI170
aI1240
aI518
asVhttps://www.reddit.com/r/paradoxplaza/comments/18udz4/how_do_i_stop_france_i_have_created_a_monster_of/
p727
(lp728
I0
aI177
aI410
aI18
aI110
aI247
aI437
aI105
aI56
aI71
aI28
aI200
aI27
aI32
asVhttps://www.reddit.com/r/magicTCG/comments/1ogeun/differences_between_mtgo_and_paper_drafting/
p729
(lp730
I987
aI195
aI82
aI127
aI200
aI277
aI149
asVhttps://www.reddit.com/r/Warframe/comments/2cz29k/90_day_affinity_and_credit_boosters/
p731
(lp732
I114
aI27
aI156
aI53
aI81
aI153
aI142
aI233
aI106
aI54
aI67
aI117
aI112
aI310
aI166
aI116
aI63
aI99
aI271
aI394
aI278
aI49
asVhttps://www.reddit.com/r/pcmasterrace/comments/3a1868/does_anybody_know_at_what_time_the_amd/
p733
(lp734
I30
aI30
aI69
aI37
aI60
aI44
aI29
aI42
aI49
aI55
aI128
asVhttps://www.reddit.com/r/nosleep/comments/1isdw0/there_was_a_really_creepy_customer_where_i_work/
p735
(lp736
I1428
aI128
aI381
aI34
aI109
aI107
aI77
aI41
aI310
aI90
aI141
aI84
aI41
aI30
aI146
aI85
aI36
aI74
aI19
aI6
aI48
aI59
aI75
aI327
aI26
aI43
aI278
aI27
aI277
aI41
aI59
aI17
aI50
aI18
aI6
aI121
aI15
aI5
aI69
aI38
asVhttps://www.reddit.com/r/leagueoflegends/comments/2zwdpp/how_many_of_you_would_play_a_1v1_designed_map/
p737
(lp738
I68
aI42
aI27
aI124
aI58
aI275
aI117
aI70
aI83
aI215
aI96
aI85
aI39
aI82
aI38
asVhttps://www.reddit.com/r/grammar/comments/33g728/can_i_use_dash_in_this_sentencesorry_for_not/
p739
(lp740
I151
aI165
aI166
aI70
aI25
aI248
aI684
aI394
aI255
aI479
aI305
aI191
asVhttps://www.reddit.com/r/edmproduction/comments/2xm2nu/need_help_with_warping/
p741
(lp742
I286
aI314
aI192
aI178
aI360
aI46
aI216
aI517
aI230
aI849
aI511
aI129
aI279
aI153
aI419
aI52
asVhttps://www.reddit.com/r/CrusaderKings/comments/2amj2n/trouble_moving_troops/
p743
(lp744
I375
aI20
aI48
aI79
aI196
aI935
aI176
asVhttps://www.reddit.com/r/synthesizers/comments/3yl7ek/issue_with_my_korg_ms2000r/
p745
(lp746
I506
aI365
aI290
aI25
aI110
aI115
aI331
aI272
aI212
asVhttps://www.reddit.com/r/gaming/comments/i0qyv/valve_vs_ea_heres_what_happened/
p747
(lp748
I1055
aI106
aI303
aI143
aI84
aI17
aI176
aI182
aI162
aI87
aI305
aI35
aI19
aI15
aI172
asVhttps://www.reddit.com/r/self/comments/14v8zf/for_some_reason_comedy_central_is_airing_those/
p749
(lp750
I250
aI102
aI11
aI195
aI234
aI187
aI82
aI88
aI89
aI88
asVhttps://www.reddit.com/r/relationships/comments/42qpl3/me_21f_with_my_ex_coworker_29m_of_half_a_year_is/
p751
(lp752
I3011
aI631
aI1111
aI589
aI773
aI361
aI279
aI849
aI979
aI542
aI254
aI242
aI250
asVhttps://www.reddit.com/r/lgbt/comments/2us465/the_most_frequented_lgbtq_subreddits/
p753
(lp754
I88
aI63
aI405
aI74
aI126
aI172
aI22
asVhttps://www.reddit.com/r/KeepWriting/comments/4bkh77/discussion_geographic_symbolism_in_literature/
p755
(lp756
I360
aI1556
aI1352
aI487
aI429
aI37
aI314
aI201
aI403
asVhttps://www.reddit.com/r/anchorage/comments/1b098s/have_a_decent_chance_of_getting_a_job_in/
p757
(lp758
I826
aI721
aI1612
aI337
aI796
aI238
aI499
aI452
aI638
aI184
aI409
aI172
aI285
aI233
aI172
aI191
aI114
aI723
aI47
asVhttps://www.reddit.com/r/asktrp/comments/2jbud8/dealing_with_women_phones_and_trust/
p759
(lp760
I2094
aI191
aI90
aI120
aI64
aI88
aI104
aI182
aI406
aI598
aI280
aI237
aI180
aI281
aI189
aI972
aI977
aI117
aI203
aI427
aI827
aI1290
aI176
aI218
aI192
aI952
aI131
aI144
aI69
aI152
aI112
aI637
aI368
aI405
aI157
aI72
aI114
aI774
aI1744
aI96
aI863
asVhttps://www.reddit.com/r/leagueoflegends/comments/2godv3/wither_should_affect_yasuos_steel_tempest/
p761
(lp762
I433
aI84
aI76
aI82
aI133
aI65
aI271
aI191
aI83
aI56
aI18
aI79
aI41
aI438
aI89
aI120
aI171
aI117
aI602
aI24
aI246
aI336
aI45
aI172
aI489
aI318
aI123
aI25
aI805
aI42
aI78
aI118
aI71
aI61
aI118
aI28
aI56
aI14
aI30
aI119
aI98
asVhttps://www.reddit.com/r/Windows10/comments/3fuedo/everything_is_blank_windows_10/
p763
(lp764
I354
aI132
aI207
aI67
aI168
aI95
aI133
aI332
asVhttps://www.reddit.com/r/elderscrollsonline/comments/2urzo7/what_eso_going_sub_free/
p765
(lp766
I60
aI42
aI95
aI51
aI32
aI25
aI164
aI325
aI321
aI64
aI172
aI401
aI172
asVhttps://www.reddit.com/r/webdev/comments/1lmr7o/10_year_experience_programmer_seeking_advice_on/
p767
(lp768
I9
aI1314
aI241
aI770
aI700
aI338
aI622
aI219
aI2
aI9
aI9
aI79
aI233
aI9
aI9
aI331
aI273
aI1548
aI217
aI679
aI2410
aI68
aI9
aI9
aI9
aI896
aI775
aI339
asVhttps://www.reddit.com/r/audio/comments/4lw8lp/how_to_connect_an_audio_interface_and_dac_amp_to/
p769
(lp770
I1026
aI560
aI744
aI203
aI582
aI209
aI178
asVhttps://www.reddit.com/r/skyrim/comments/3x3hxs/possible_ps3_bug_does_anyone_elses_character/
p771
(lp772
I1012
aI461
aI370
aI250
aI332
aI192
aI225
asVhttps://www.reddit.com/r/civbattleroyale/comments/4eza74/city_capture_data_for_parts_5051/
p773
(lp774
I1631
aI241
aI125
aI53
aI72
aI115
aI161
aI61
aI216
aI90
aI64
aI99
aI70
aI7
aI46
aI7
asVhttps://www.reddit.com/r/CHIBears/comments/39gbl8/te_tim_wright_released_by_pats_xpost_from_rnfl/
p775
(lp776
I388
aI76
aI256
aI49
aI113
aI200
aI109
aI49
aI55
aI207
asVhttps://www.reddit.com/r/AdviceAnimals/comments/4a78u1/dodged_a_bullet_big_time/
p777
(lp778
I0
aI52
aI97
aI187
aI41
aI201
aI17
aI173
aI46
aI238
aI657
aI57
aI46
aI62
aI29
aI70
aI48
aI145
aI102
aI14
aI31
aI62
aI111
aI93
aI38
asVhttps://www.reddit.com/r/xxfitness/comments/2sigov/question_is_it_possible_to_lose_weight_as_fast_as/
p779
(lp780
I567
aI882
aI779
aI1284
aI229
aI42
aI278
aI365
aI95
aI209
aI49
aI78
aI43
aI109
aI148
aI188
aI87
aI124
aI57
aI95
aI59
aI69
aI82
aI62
aI113
aI98
aI29
aI48
aI536
aI62
aI12
aI288
aI22
aI51
aI74
aI10
aI220
aI180
asVhttps://www.reddit.com/r/minipainting/comments/33etgs/starting_airbrushing_for_under_300/
p781
(lp782
I611
aI1136
aI194
aI103
aI177
aI250
aI219
aI602
aI160
aI53
aI464
aI116
aI397
aI64
aI64
aI85
aI71
aI45
aI35
asVhttps://www.reddit.com/r/personalfinance/comments/1ixlxz/looking_for_advice_on_a_car_loan/
p783
(lp784
I1833
aI364
aI202
aI301
aI108
aI1040
aI146
aI618
aI257
aI981
aI630
asVhttps://www.reddit.com/r/fivenightsatfreddys/comments/3itleb/random_thought_of_the_night_isnt_springtrap/
p785
(lp786
I90
aI95
aI124
aI120
aI62
aI110
aI182
aI172
aI74
aI81
aI35
aI13
aI48
aI104
aI183
aI169
aI65
aI203
aI78
aI38
aI196
aI20
aI85
aI46
aI2
aI17
asVhttps://www.reddit.com/r/HoloLens/comments/34u8vn/why_hololens_will_be_popular_among_writers/
p787
(lp788
I1483
aI677
aI220
aI222
aI97
aI367
aI702
aI305
asVhttps://www.reddit.com/r/nvidia/comments/4bm9x9/one_more_980ti_or_wait_for_new_nvidia_cards/
p789
(lp790
I41
aI99
aI101
aI160
aI58
aI98
aI101
aI9
aI111
aI24
aI34
aI5
aI46
aI7
aI50
aI9
aI396
aI23
aI125
aI112
aI9
aI232
aI17
aI64
aI971
aI101
aI247
aI9
aI115
aI30
aI221
aI114
aI9
aI165
asVhttps://www.reddit.com/r/jailbreak/comments/3d7j8r/tutorial_how_to_i_safely_rid_a_phone_of_jailbreak/
p791
(lp792
I41
aI249
aI12
aI192
aI99
aI122
aI13
aI245
aI131
aI515
aI113
aI126
aI175
aI92
aI178
aI110
aI247
asVhttps://www.reddit.com/r/dayz/comments/17wya3/i_want_to_ask_you_guys_if_my_friend_can_run_dayz/
p793
(lp794
I192
aI288
aI91
aI173
aI37
aI211
aI110
aI346
aI34
aI225
aI16
aI269
aI8
aI301
aI71
asVhttps://www.reddit.com/r/mintuit/comments/49dzy0/double_counting_spending_transactions/
p795
(lp796
I268
aI98
aI53
aI144
aI15
aI70
asVhttps://www.reddit.com/r/r4r/comments/2cuw9e/22_f4r_anywhere_international_friends/
p797
(lp798
I383
aI208
aI91
aI73
aI9
aI26
aI9
aI37
asVhttps://www.reddit.com/r/puregrease/comments/1l1m5j/accept_jesus/
p799
(lp800
I0
aI38
aI81
aI31
aI119
aI24
aI8
aI23
aI3
asVhttps://www.reddit.com/r/electronic_cigarette/comments/1g6fzc/myvaporgasm/
p801
(lp802
I284
aI1543
aI492
aI163
aI69
aI343
aI182
aI69
aI112
aI256
aI76
aI93
aI23
aI85
aI100
aI104
aI55
aI122
aI175
aI26
aI86
aI38
aI44
aI3
asVhttps://www.reddit.com/r/Firefighting/comments/32xyk4/when_the_alarm_sounds_at_2am_after_a_long_day_of/
p803
(lp804
I0
aI163
aI300
aI294
aI28
aI139
aI109
aI202
aI63
aI65
aI22
aI5
asVhttps://www.reddit.com/r/explainlikeimfive/comments/4acs7u/eli5_how_do_dogs_sense_blood_pressure_levels_in/
p805
(lp806
I137
aI362
aI233
aI274
asVhttps://www.reddit.com/r/relationship_advice/comments/to8g3/need_helpadvice_on_saving_a_long_term_relationship/
p807
(lp808
I7797
aI313
aI1644
aI317
aI632
aI128
aI305
aI337
aI231
asVhttps://www.reddit.com/r/travel/comments/2wu0xt/denied_at_airport_due_to_damaged_passport_help/
p809
(lp810
I1791
aI118
aI952
aI503
aI139
aI260
aI316
aI265
aI793
aI45
aI55
aI573
aI100
aI258
aI166
aI32
aI683
aI366
aI79
aI31
aI133
aI20
aI394
aI225
aI314
aI123
asVhttps://www.reddit.com/r/electronic_cigarette/comments/3vtitg/battery_amps_question/
p811
(lp812
I105
aI60
aI69
aI143
aI134
aI38
aI78
aI86
aI142
aI81
aI21
aI154
aI102
aI101
aI86
aI185
aI42
asVhttps://www.reddit.com/r/conlangs/comments/2bwl6g/root_system_of_wagthen_ideas_to_improve/
p813
(lp814
I1712
aI176
aI226
aI244
aI375
aI418
aI186
aI226
aI50
asVhttps://www.reddit.com/r/stormchasing/comments/36bqnd/quick_question_about_divotscircles_on_the_ground/
p815
(lp816
I544
aI1860
aI203
aI232
aI179
aI240
aI569
aI384
aI609
aI91
aI218
aI114
aI61
aI107
aI310
aI473
aI15
aI336
aI579
aI540
asVhttps://www.reddit.com/r/discgolf/comments/1b3fxv/my_bag/
p817
(lp818
I767
aI454
aI928
aI30
aI63
aI162
aI73
aI198
aI176
aI80
aI196
aI72
aI781
asVhttps://www.reddit.com/r/leangains/comments/2av7ah/simple_web_app_and_android_app_i_built_to_search/
p819
(lp820
I482
aI68
aI103
aI108
aI244
aI258
aI212
aI164
aI151
aI81
aI23
aI107
aI39
aI114
aI203
aI309
aI154
aI332
aI274
aI132
asVhttps://www.reddit.com/r/mtgfinance/comments/22si7v/fetch_lands_dropping_in_price_think_well_see/
p821
(lp822
I226
aI790
aI119
aI70
aI119
aI367
aI427
aI83
aI166
aI274
aI19
aI90
aI117
aI96
aI197
aI330
aI684
aI90
aI10
aI384
aI69
aI557
aI82
aI71
aI135
aI103
aI54
aI371
aI179
asVhttps://www.reddit.com/r/rawdenim/comments/2ldh1e/oni_517xx_7_months/
p823
(lp824
I365
aI72
aI197
aI93
aI133
aI36
aI50
aI288
aI69
aI11
aI61
aI92
aI18
aI62
aI33
aI55
aI78
aI155
aI203
aI112
aI149
aI114
aI34
aI123
aI149
aI36
aI46
aI61
aI233
aI7
aI81
aI15
aI209
aI298
aI97
aI61
aI42
aI91
aI66
aI21
aI133
asVhttps://www.reddit.com/r/buildapc/comments/2jlt9v/build_help_780_ti_or_980_and_what_brand/
p825
(lp826
I2184
aI228
aI12
aI159
aI232
aI180
aI146
aI107
asVhttps://www.reddit.com/r/GlobalOffensive/comments/4lbuq4/buffalo_wild_wings_showing_eleague/
p827
(lp828
I67
aI3
aI62
aI206
aI94
aI220
aI88
aI189
aI104
aI157
aI8
aI9
aI19
aI29
aI17
aI48
aI37
aI111
aI79
aI96
aI78
aI107
aI52
aI122
aI182
aI49
aI14
aI116
aI63
aI82
aI86
aI133
aI8
aI268
aI16
aI58
aI4
aI6
aI7
aI16
asVhttps://www.reddit.com/r/thedivision/comments/49sb5d/i_need_of_some_helpadvise_about_this_game/
p829
(lp830
I2675
aI1178
aI2055
aI9
aI765
aI139
aI614
aI185
aI934
aI34
aI106
aI53
aI626
aI234
aI327
aI399
aI162
aI298
aI72
aI176
aI152
aI176
aI370
aI891
aI107
aI335
aI390
aI131
aI178
aI118
aI70
aI161
asVhttps://www.reddit.com/r/mildlyinteresting/comments/4dibeq/the_date_stamp_on_this_bottle_was_unaffected_by/
p831
(lp832
I0
aI16
aI11
aI3
aI240
aI11
aI22
asVhttps://www.reddit.com/r/techsupport/comments/3a4dg8/bought_new_video_card_and_psu_frequent_crashing/
p833
(lp834
I2420
aI184
aI103
aI606
aI82
aI1042
aI477
asVhttps://www.reddit.com/r/gamemaker/comments/3behum/gmsgmlhow_can_i_make_the_game_look_for_a_file_in/
p835
(lp836
I9
aI45
aI9
aI556
aI9
aI421
aI255
asVhttps://www.reddit.com/r/SuggestALaptop/comments/26uyuz/want_something_that_wont_break_1415_usa_300500/
p837
(lp838
I1949
aI857
aI97
aI130
aI26
aI13
aI303
aI386
asVhttps://www.reddit.com/r/asoiaf/comments/3zbw2n/spoiler_all_a_note_on_a_character_grrm_talked/
p839
(lp840
I9
aI35
aI57
aI321
aI195
aI9
aI40
aI38
aI97
aI50
aI86
aI187
asVhttps://www.reddit.com/r/jailbreak/comments/3ydont/request_tweak_to_hide_the_status_bar_on/
p841
(lp842
I101
aI202
aI63
aI210
aI141
aI65
aI72
aI27
aI65
asVhttps://www.reddit.com/r/rupaulsdragrace/comments/4lmuwj/did_anyone_else_fall_asleep/
p843
(lp844
I9
aI49
aI132
aI99
aI134
aI63
aI261
aI74
aI53
aI19
aI42
aI26
aI10
asVhttps://www.reddit.com/r/fo4/comments/4ep30s/spoilers_bethesdas_missed_mark_on_unique/
p845
(lp846
I10817
aI339
aI499
aI118
aI642
aI396
aI1748
aI217
aI501
aI224
aI980
aI61
aI315
aI412
aI220
aI726
aI757
aI156
aI3252
aI370
aI447
aI284
aI67
aI278
aI126
aI76
aI333
aI327
aI768
aI47
aI214
aI429
aI591
aI154
aI104
aI116
aI84
aI500
aI272
aI373
asVhttps://www.reddit.com/r/civ/comments/2zo483/bnw_how_to_play_babylon/
p847
(lp848
I126
aI365
aI967
aI124
aI221
aI315
aI735
aI206
aI208
asVhttps://www.reddit.com/r/AskHistorians/comments/2ns3zy/was_hannibal_black/
p849
(lp850
I408
aI194
aI229
aI192
aI151
aI40
aI253
aI92
aI386
aI60
aI303
aI68
aI41
asVhttps://www.reddit.com/r/thewitcher3/comments/3iq9qh/my_one_big_problem_with_the_witcher_3/
p851
(lp852
I1498
aI107
aI3180
aI166
aI68
aI296
aI1030
aI13
aI400
aI289
aI276
asVhttps://www.reddit.com/r/solotravel/comments/2jxz66/hostel_recommendations_in_ubud_bali/
p853
(lp854
I477
aI257
aI259
aI748
aI325
aI29
aI49
aI89
aI88
aI662
aI304
aI104
aI88
aI59
aI34
aI230
aI687
aI283
asVhttps://www.reddit.com/r/gamegrumps/comments/33mttj/game_grumps_and_youtubers_allowed_to_sing_now/
p855
(lp856
I212
aI61
aI58
aI303
aI376
aI270
asVhttps://www.reddit.com/r/ptsd/comments/272t3w/why_is_it_common_for_victims_of_trauma_to_get/
p857
(lp858
I1193
aI398
aI521
aI362
aI3196
aI191
aI110
aI130
aI2618
aI129
aI356
aI676
aI633
aI275
aI463
aI2343
aI1795
aI785
aI215
aI1047
aI25
aI846
aI1522
aI173
aI7
asVhttps://www.reddit.com/r/gameofthrones/comments/4ljxf8/s6_what_i_feel_this_season_lacks/
p859
(lp860
I260
aI41
aI34
aI88
aI73
aI525
aI21
aI607
aI15
aI148
aI177
aI141
aI132
aI114
aI93
aI50
aI208
aI57
aI29
aI21
aI10
aI16
aI62
aI32
aI65
aI52
aI42
aI18
aI73
aI1
aI194
aI40
aI14
aI29
aI170
aI11
aI43
aI36
asVhttps://www.reddit.com/r/ApplyingToCollege/comments/4jeje4/is_there_a_list_of_schools_that_look_at_intended/
p861
(lp862
I101
aI157
aI247
aI29
aI19
aI163
aI245
asVhttps://www.reddit.com/r/hockeycards/comments/4b4qsa/sales_official_steals_and_deals_thread_31816/
p863
(lp864
I2295
aI149
aI253
aI60
aI46
aI344
aI129
aI95
asVhttps://www.reddit.com/r/vita/comments/2o4com/game_of_thrones_ep_1_apparently_releasing_on/
p865
(lp866
I223
aI127
aI5
aI112
aI100
aI138
aI50
aI70
aI167
asVhttps://www.reddit.com/r/dayz/comments/2lq3tg/stuck_in_a_portapotty/
p867
(lp868
I74
aI393
aI36
aI72
aI92
aI16
aI247
aI117
aI50
aI45
aI11
aI49
aI8
aI192
aI30
aI28
aI25
aI583
aI17
asVhttps://www.reddit.com/r/selfpublish/comments/48jg7y/launch_parties/
p869
(lp870
I101
aI437
aI549
aI170
aI45
aI90
aI240
aI207
aI213
aI742
aI158
aI210
aI63
aI24
asVhttps://www.reddit.com/r/wow/comments/364wec/garrison_question_can_you_outgear_missions/
p871
(lp872
I454
aI61
aI59
aI248
aI314
aI146
aI73
aI183
aI172
aI179
aI34
asVhttps://www.reddit.com/r/applehelp/comments/27gooo/bootcamp_partition_shows_up_in_disk_utility_but/
p873
(lp874
I9
aI297
aI9
aI288
aI9
aI723
aI9
aI223
aI9
aI114
aI9
asVhttps://www.reddit.com/r/ripcity/comments/4ag8l7/nba_draft_2nd_round_where_can_we_buy_in_and_who/
p875
(lp876
I3731
aI14
aI493
aI90
aI1022
aI154
aI37
aI316
aI336
aI551
aI61
aI40
aI88
aI871
aI187
aI168
aI124
aI190
aI82
aI479
asVhttps://www.reddit.com/r/uncharted/comments/4lhh88/uncharted_4_crushing_is_extremely_difficult/
p877
(lp878
I229
aI39
aI111
aI17
aI57
aI65
aI42
aI36
aI115
aI3
aI86
aI20
aI49
asVhttps://www.reddit.com/r/gaming/comments/qtwhv/my_personal_question_regarding_dlc_longwinded_so/
p879
(lp880
I2246
aI654
aI52
aI184
aI463
aI183
asVhttps://www.reddit.com/r/worldnews/comments/2arhjv/uks_new_energy_environment_ministers_opposed/
p881
(lp882
I0
aI213
aI64
aI244
aI218
aI75
aI102
aI41
aI617
aI55
aI53
aI213
aI62
aI66
aI163
aI371
aI32
aI15
aI21
aI604
aI180
aI398
aI51
aI80
aI10
aI190
aI9
aI102
aI220
aI413
aI74
aI7
aI91
aI579
aI10
aI413
aI455
aI1024
aI10
aI41
asVhttps://www.reddit.com/r/relationships/comments/3j063c/me_16_m_with_my_friend_17_f_gets_awkward_i_dont/
p883
(lp884
I1221
aI13
aI117
aI56
aI250
aI82
aI108
aI146
aI131
aI164
aI163
asVhttps://www.reddit.com/r/AskReddit/comments/1y9lal/men_of_reddit_which_would_you_prefer_two_6s_at/
p885
(lp886
I0
aI12
aI123
aI90
aI41
aI72
aI14
aI252
aI41
aI20
aI8
aI33
aI25
aI15
aI192
aI6
aI37
aI98
aI18
aI309
aI108
aI40
aI23
aI54
aI59
aI26
aI44
aI85
aI40
aI49
aI81
aI99
aI46
aI64
aI303
aI74
aI35
aI28
aI27
aI74
aI38
asVhttps://www.reddit.com/r/askcarsales/comments/38nvli/bought_cpo_now_potentially_facing_a_400_repair/
p887
(lp888
I2557
aI594
aI178
aI702
aI100
aI334
aI55
aI494
aI220
aI186
aI195
aI93
aI427
aI537
aI330
aI682
aI370
aI92
aI344
aI45
aI178
aI371
asVhttps://www.reddit.com/r/tmobile/comments/39j0qb/psa_motos_51_update_to_the_2015_moto_e_disables/
p889
(lp890
I723
aI39
aI52
aI710
aI220
aI40
aI138
aI236
aI162
aI21
aI126
aI370
aI433
aI581
aI86
aI122
aI312
aI187
aI289
aI590
aI100
aI140
aI101
aI177
aI152
aI139
aI112
aI67
aI350
aI90
aI67
aI144
aI165
aI127
aI300
aI20
aI52
aI216
aI259
aI36
aI54
asVhttps://www.reddit.com/r/wrestlingisreddit/comments/2f1gqj/what_youve_waited_all_week_for_im_jack_anchor_amaa/
p891
(lp892
I504
aI67
aI44
aI62
aI47
aI43
aI36
aI101
aI265
aI60
aI210
aI61
aI199
aI75
aI135
aI57
aI124
aI67
aI98
aI84
aI32
aI198
aI124
aI90
aI21
aI62
aI34
aI31
aI71
aI58
aI146
aI41
aI40
aI88
aI15
aI74
aI4
aI43
asVhttps://www.reddit.com/r/sgsflair/comments/24xggi/flair_profile_umanmana/
p893
(lp894
I343
aI188
aI168
aI147
aI162
aI10
aI9
aI60
aI31
aI31
asVhttps://www.reddit.com/r/ableton/comments/1hu9ki/whos_a_pro_here/
p895
(lp896
I346
aI256
aI23
aI76
aI1725
aI237
aI325
aI63
aI1057
asVhttps://www.reddit.com/r/circlejerk/comments/si27x/i_am_a_21_year_old_white_atheist_american_male/
p897
(lp898
I68
aI90
aI106
aI304
aI319
aI247
aI97
aI114
aI182
aI190
aI70
aI178
aI84
aI84
aI269
aI35
aI62
aI198
aI112
aI125
aI77
aI74
aI134
aI15
aI131
aI45
aI79
aI12
aI9
aI61
aI36
aI133
asVhttps://www.reddit.com/r/woodworking/comments/22omh9/how_difficult_is_it_to_make_a_half_decent/
p899
(lp900
I649
aI508
aI706
aI448
aI541
aI106
aI265
aI586
aI231
aI109
aI251
aI156
aI97
aI257
aI225
aI105
aI243
aI317
aI85
aI172
aI45
asVhttps://www.reddit.com/r/MonsterHunter/comments/2h4i3m/i_just_got_to_high_rank_what_should_i_do_now/
p901
(lp902
I618
aI566
aI605
aI294
aI10
aI281
aI226
aI70
aI16
aI13
asVhttps://www.reddit.com/r/MigrantFleet/comments/3dme4r/waits_in_the_mess_hall_of_the_avius/
p903
(lp904
I347
aI209
aI140
aI195
aI180
aI62
aI40
aI173
aI57
aI94
aI31
aI148
aI103
aI80
aI91
aI32
aI96
aI125
aI49
aI49
aI95
aI161
aI93
aI99
aI174
aI109
aI59
aI105
aI89
aI227
aI18
aI24
aI364
aI181
aI17
aI110
aI76
aI23
aI45
aI26
asVhttps://www.reddit.com/r/eindhoven/comments/4bu1x1/got_fined_in_stratumseind_but_never_received_the/
p905
(lp906
I9
aI414
aI322
aI275
aI77
aI92
asVhttps://www.reddit.com/r/Civcraft/comments/21qdrr/krosh_griefing_a_day_after_he_was_released_50d/
p907
(lp908
I385
aI30
aI10
aI131
aI320
aI60
aI38
aI380
aI36
aI80
aI87
aI29
aI146
aI163
aI45
aI52
aI248
aI35
aI86
aI150
aI39
aI679
aI244
aI134
aI12
asVhttps://www.reddit.com/r/taiwan/comments/36hmli/i_will_be_representing_taiwan_at_an_mun/
p909
(lp910
I709
aI113
aI230
aI27
aI46
aI172
aI119
aI1051
aI235
aI73
aI53
aI110
aI330
aI298
aI33
aI117
aI42
aI4
aI46
aI281
aI46
aI250
aI165
aI125
aI156
aI225
aI42
aI81
aI55
asVhttps://www.reddit.com/r/urbanfarming/comments/2lbpoy/what_is_the_term_used_for_people_who_plant/
p911
(lp912
I0
aI18
aI49
aI37
aI37
aI31
aI204
aI60
aI188
aI150
aI163
aI103
aI12
aI36
aI204
aI49
asVhttps://www.reddit.com/r/Khador/comments/3eejcy/komrades_i_request_advice_in_dealing_with_skorne/
p913
(lp914
I1155
aI2254
aI61
aI1419
aI944
aI3930
aI1677
aI3670
aI929
aI1685
aI1085
asVhttps://www.reddit.com/r/picrequests/comments/1ffatw/request_just_put_a_scumbag_steve_hat_on_this_guy/
p915
(lp916
I9
aI49
aI96
aI46
aI77
aI94
aI43
aI11
asVhttps://www.reddit.com/r/buildapc/comments/3vv8bw/so_i_randomly_decided_to_set_up_a_nas/
p917
(lp918
I3211
aI471
aI459
aI959
aI399
aI425
aI126
aI144
asVhttps://www.reddit.com/r/StardewValley/comments/4ahr4u/suggestion_make_kegs_etc_stackable_please/
p919
(lp920
I114
aI591
aI54
aI39
aI23
aI77
aI97
aI113
aI66
asVhttps://www.reddit.com/r/Smite/comments/2r6j90/its_casuals_so_we_can_do_whatever_we_want_rant/
p921
(lp922
I689
aI24
aI9
aI258
aI312
aI250
aI954
aI415
aI225
aI52
aI411
aI191
aI351
aI87
aI37
aI1649
aI56
aI36
aI32
aI289
aI209
aI76
aI270
aI121
aI461
aI74
aI52
aI47
aI21
aI94
aI402
aI37
aI271
aI71
aI74
aI72
aI137
aI90
aI94
asVhttps://www.reddit.com/r/techsupport/comments/35n4ds/hdd_is_dead_on_pc_with_preinstalled_w8_how_would/
p923
(lp924
I150
aI310
aI535
aI66
aI61
aI81
aI654
aI128
aI38
aI98
asVhttps://www.reddit.com/r/MotoX/comments/2939av/not_a_huge_fan_of_google_play_music/
p925
(lp926
I412
aI34
aI41
aI345
aI182
aI182
aI266
aI314
aI54
aI73
aI47
aI47
aI135
aI61
aI103
aI348
aI140
aI104
aI73
aI311
aI649
aI99
aI190
aI67
aI103
aI118
aI104
asVhttps://www.reddit.com/r/SquaredCircle/comments/4l491f/meltzer_on_shawn_michaelsaj_styles_comparison/
p927
(lp928
I865
aI41
aI132
aI1316
aI146
aI75
aI231
aI43
aI99
aI102
aI39
aI324
aI76
aI103
aI30
aI78
aI62
aI46
aI79
aI36
aI346
aI9
aI23
aI108
aI308
aI84
aI119
aI9
aI729
aI9
aI619
asVhttps://www.reddit.com/r/wow/comments/32jid7/is_hellfire_citadel_the_final_raid/
p929
(lp930
I314
aI352
aI133
aI449
aI67
aI30
aI151
aI278
aI33
aI5
aI201
aI222
aI692
aI77
aI717
aI44
aI43
aI432
aI7
aI96
aI120
aI115
aI17
aI179
asVhttps://www.reddit.com/r/fweddit/comments/uezxo/fweddit_fleet_info_for_rookies/
p931
(lp932
I864
aI29
aI115
aI99
aI346
aI305
aI255
aI704
aI433
aI197
asVhttps://www.reddit.com/r/HondaCB/comments/29cfeq/are_cls_welcome_here_as_well/
p933
(lp934
I113
aI9
aI3
aI60
aI31
aI2
aI73
aI47
aI10
aI9
aI210
aI61
aI408
aI107
aI165
aI547
aI199
aI636
aI170
asVhttps://www.reddit.com/r/atheism/comments/4bgz9f/how_to_stop_a_forced_first_communion/
p935
(lp936
I433
aI248
aI496
aI101
aI72
aI1064
aI161
aI114
aI256
aI125
aI551
aI976
aI20
aI200
aI219
aI246
aI123
aI71
aI161
aI430
aI179
aI538
aI50
aI442
aI137
asVhttps://www.reddit.com/r/oculus/comments/3gikpv/new_nvidiaamd_graphics_cards/
p937
(lp938
I403
aI1344
aI428
aI656
aI25
aI178
aI685
aI466
aI362
aI422
aI150
aI164
aI417
aI521
aI323
aI363
aI155
aI239
aI338
aI215
aI158
asVhttps://www.reddit.com/r/Audi/comments/19zkyo/anyone_know_how_much_it_would_cost_to_replace_a/
p939
(lp940
I126
aI44
aI97
aI23
aI78
aI20
aI91
aI6
aI224
aI14
aI380
aI92
aI537
asVhttps://www.reddit.com/r/naut/comments/4gj0dp/how_to_change_submit_your_post_to_reddit_to/
p941
(lp942
I298
aI118
aI146
aI82
aI335
aI362
aI196
asVhttps://www.reddit.com/r/tmobile/comments/3irzlb/going_international_are_the_roaming_features_as/
p943
(lp944
I169
aI117
aI306
aI342
aI474
aI85
aI86
aI42
aI1733
aI79
aI259
aI66
aI36
aI70
asVhttps://www.reddit.com/r/thedivision/comments/4bp1qz/players_who_bought_new_york_collapse_what_are/
p945
(lp946
I322
aI140
aI250
aI155
aI68
aI250
aI351
aI120
aI20
aI110
asVhttps://www.reddit.com/r/arduino/comments/4dcbwl/serialread_only_receives_data_if_i_use_serialprint/
p947
(lp948
I1393
aI2238
aI2259
aI104
aI1054
aI763
aI848
aI386
aI220
aI70
aI4
aI102
aI380
asVhttps://www.reddit.com/r/IronThronePowers/comments/3e1px7/lorerp_time/
p949
(lp950
I5515
aI8
aI1169
aI286
aI547
aI473
aI867
aI1042
aI344
aI354
aI658
asVhttps://www.reddit.com/r/feedthebeast/comments/417p4b/are_thermalilies_bugged_in_infinity_evolved/
p951
(lp952
I322
aI349
aI127
aI243
aI743
aI142
aI78
aI139
aI99
aI93
asVhttps://www.reddit.com/r/ffxiv/comments/1cexp2/a_few_questions_that_may_or_may_not_have_an_answer/
p953
(lp954
I808
aI358
aI323
aI145
aI229
aI246
aI315
asVhttps://www.reddit.com/r/trees/comments/4bug3a/reaching_a_10_with_a_high_tolerance/
p955
(lp956
I302
aI47
aI66
aI145
aI47
aI175
aI190
aI262
aI98
aI27
aI105
aI87
aI677
aI97
aI175
asVhttps://www.reddit.com/r/asktrp/comments/39tknw/can_you_have_too_much_self_confidence/
p957
(lp958
I639
aI670
aI30
aI724
aI930
aI357
aI244
aI596
aI224
aI289
aI511
aI1152
aI278
aI461
aI451
aI208
aI356
aI369
aI360
aI170
aI272
asVhttps://www.reddit.com/r/splatoon/comments/46o55h/renewed_my_love_of_games/
p959
(lp960
I650
aI83
aI47
aI39
aI166
aI66
aI23
aI21
aI36
asVhttps://www.reddit.com/r/tails/comments/1z04p9/upgraded_to_tails_0221_but_recently_cant_open/
p961
(lp962
I241
aI366
aI126
aI225
aI75
aI146
aI10
asVhttps://www.reddit.com/r/mylittlepony/comments/3d7yff/i_feel_so_at_home_here_from_rsquaredcircle/
p963
(lp964
I366
aI256
aI67
aI135
aI312
aI73
aI188
aI270
aI140
aI104
aI52
aI248
aI109
aI137
aI21
aI103
aI38
aI13
aI14
aI822
aI200
aI135
aI115
aI29
aI210
aI90
aI726
aI17
aI132
aI17
aI140
aI119
aI18
aI230
aI586
aI172
aI80
aI173
aI17
aI166
aI88
asVhttps://www.reddit.com/r/admincraft/comments/q79zg/my_host_provider_lost_all_of_my_data/
p965
(lp966
I1539
aI602
aI398
aI422
aI161
aI672
aI444
aI70
aI340
aI291
aI39
aI328
aI332
aI393
aI553
aI37
aI37
aI320
aI437
aI64
aI147
aI571
aI473
aI119
aI36
asVhttps://www.reddit.com/r/teenagers/comments/4dnq3i/hi_rteenagers_today_ill_teach_you_how_to_accept/
p967
(lp968
I244
aI174
aI51
aI72
aI63
aI27
aI36
aI138
aI20
aI55
aI439
aI743
aI224
aI186
aI46
aI12
aI170
aI99
aI123
aI28
aI13
aI443
aI61
aI37
aI37
aI102
aI292
aI2
aI9
aI63
aI11
aI15
aI52
aI223
aI16
aI497
aI125
aI91
aI25
asVhttps://www.reddit.com/r/learnprogramming/comments/4d1etw/cc_program_memory_easily_the_most_helpful_book/
p969
(lp970
I762
aI149
aI126
aI281
aI106
aI17
aI15
aI13
aI33
aI10
aI4
aI27
aI39
aI42
aI26
aI10
aI24
aI691
aI442
aI157
aI241
aI160
aI469
aI61
aI119
aI78
aI46
aI270
aI165
asVhttps://www.reddit.com/r/RWBY/comments/2jhml5/photoshop_challenge/
p971
(lp972
I565
aI21
aI100
aI22
aI189
aI29
aI30
aI46
asVhttps://www.reddit.com/r/paydaytheheist/comments/1nis2f/loco_shell_rack/
p973
(lp974
I87
aI83
aI46
asVhttps://www.reddit.com/r/blackops3/comments/3isd0y/black_hat_this_is_the_coolest_tactical_to_me/
p975
(lp976
I336
aI111
aI231
aI231
aI167
aI136
aI77
aI340
aI169
aI168
aI114
aI149
aI382
aI98
asVhttps://www.reddit.com/r/opiates/comments/1l1egz/my_fellow_choppers/
p977
(lp978
I154
aI24
aI193
aI65
aI8
aI40
aI10
aI160
aI29
asVhttps://www.reddit.com/r/BitcoinMining/comments/iqxd6/ati_driver_problems_damned_if_i_do_damned_if_i/
p979
(lp980
I1022
aI233
aI753
aI548
aI863
aI453
aI697
aI530
aI519
asVhttps://www.reddit.com/r/econhw/comments/4je20w/how_is_wage_ratio_different_from_log_wage/
p981
(lp982
I374
aI819
aI81
aI564
aI242
aI152
aI382
aI399
aI926
aI1235
aI584
asVhttps://www.reddit.com/r/UTSA/comments/48diyy/transfer_admission/
p983
(lp984
I259
aI100
aI220
aI69
aI114
aI132
aI170
aI194
aI352
asVhttps://www.reddit.com/r/flyfishing/comments/1zgp4q/looking_for_a_suggestion_for_a_chest_pack/
p985
(lp986
I225
aI2647
aI286
aI656
aI266
aI288
aI121
aI101
aI307
aI186
aI210
aI133
aI418
aI32
asVhttps://www.reddit.com/r/buildapc/comments/3gc0ni/build_help_have_a_build_in_mind_need_some/
p987
(lp988
I5614
aI49
aI738
aI96
aI395
aI26
aI364
aI314
aI149
aI65
asVhttps://www.reddit.com/r/bloodborne/comments/3y7vsw/ive_just_noticed_something_about_the_riflespear/
p989
(lp990
I62
aI157
aI55
aI61
aI211
aI84
aI78
aI225
aI101
aI225
aI781
aI72
aI285
aI191
aI642
aI61
aI79
asVhttps://www.reddit.com/r/BlackwellAcademy/comments/3bbxkl/the_great_outdoors/
p991
(lp992
I380
aI88
aI658
aI313
aI72
aI301
aI91
aI30
aI286
aI181
aI55
aI135
aI44
aI65
aI311
aI328
aI71
aI36
aI56
aI349
aI243
aI71
aI135
aI201
aI225
aI238
aI51
aI25
asVhttps://www.reddit.com/r/techsupport/comments/1vmr1t/i_have_been_noticing_frequent_internet_failures/
p993
(lp994
I915
aI472
aI60
aI234
aI34
aI729
aI109
aI129
aI121
asVhttps://www.reddit.com/r/swordartonline/comments/4i7qzu/voice_actors_of_sao/
p995
(lp996
I199
aI379
aI111
aI1493
aI23
aI260
aI455
aI185
aI212
aI194
aI312
aI732
aI78
aI113
aI29
aI58
aI195
aI45
aI64
aI44
aI98
aI135
aI98
asVhttps://www.reddit.com/r/languagelearning/comments/1d7u4b/assimil_help_please/
p997
(lp998
I850
aI121
aI268
aI144
aI97
aI260
aI193
asVhttps://www.reddit.com/r/starcraft/comments/e918g/does_anybody_else_miss_lurkers/
p999
(lp1000
I191
aI77
aI205
aI90
aI25
aI103
aI59
aI227
aI93
aI786
aI372
aI251
asVhttps://www.reddit.com/r/guitarpedals/comments/3z5um2/offered_a_deluxe_memory_man_need_some_help/
p1001
(lp1002
I0
aI256
aI262
aI37
aI97
aI115
aI133
aI104
aI42
aI59
aI116
aI55
aI66
aI279
aI142
aI133
aI24
aI105
aI60
aI3
aI447
aI218
aI60
asVhttps://www.reddit.com/r/gtaonline/comments/38ov4i/seriously_a_ufo/
p1003
(lp1004
I24
aI96
aI261
aI206
aI9
aI214
aI641
aI265
asVhttps://www.reddit.com/r/AskReddit/comments/h1amt/for_all_reddit_reptile_lovers_how_does_one_become/
p1005
(lp1006
I685
aI848
aI646
aI719
aI1228
aI503
aI376
asVhttps://www.reddit.com/r/lacrossewi/comments/r4q2v/grandads_bluff/
p1007
(lp1008
I9
aI110
aI94
aI67
aI152
aI49
aI147
aI111
asVhttps://www.reddit.com/r/techsupport/comments/3g9n6g/overvolting_asus_gtx_970_safety_guidelines/
p1009
(lp1010
I167
aI99
aI23
aI121
aI380
aI618
aI234
asVhttps://www.reddit.com/r/exjw/comments/3f0suf/letter_about_child_abuse/
p1011
(lp1012
I497
aI238
aI5939
aI1180
aI30
aI46
aI77
aI637
aI595
aI100
aI139
aI104
aI128
aI41
asVhttps://www.reddit.com/r/oculus/comments/4gklm0/playing_steam_games_with_oculus/
p1013
(lp1014
I315
aI527
aI499
aI112
aI17
aI113
aI33
aI384
aI60
aI154
aI145
aI29
asVhttps://www.reddit.com/r/RESissues/comments/119c3d/bug_imgur_album_previews_dont_correctly_handle/
p1015
(lp1016
I377
aI142
aI133
aI120
aI101
aI72
aI103
aI46
aI48
asVhttps://www.reddit.com/r/buildapcforme/comments/1hoe1p/1400_gamingreddit_machine/
p1017
(lp1018
I2706
aI1213
aI254
aI261
aI19
aI62
asVhttps://www.reddit.com/r/feedthebeast/comments/2uz5qk/blood_magic_questions/
p1019
(lp1020
I432
aI210
aI191
aI130
aI227
aI57
aI31
aI16
aI238
asVhttps://www.reddit.com/r/bloodborne/comments/30gpqm/need_help_with_a_certain_boss_spoilers/
p1021
(lp1022
I9
aI558
aI67
aI9
aI46
aI9
aI10
asVhttps://www.reddit.com/r/gardening/comments/3gtx5g/help_with_growing_my_roses/
p1023
(lp1024
I397
aI404
aI290
aI104
aI301
aI206
aI142
aI58
aI138
asVhttps://www.reddit.com/r/todayilearned/comments/45ny8m/til_nhl_goalies_are_not_allowed_to_be_named/
p1025
(lp1026
I0
aI324
aI152
aI72
aI31
aI42
aI30
aI37
aI36
aI142
aI21
aI15
aI7
aI14
aI8
aI69
aI83
aI85
aI80
aI82
aI40
aI88
asVhttps://www.reddit.com/r/Motocross/comments/1recbs/toy_hauler_and_my_odd_friend/
p1027
(lp1028
I0
aI33
aI43
aI122
aI97
aI92
aI24
asVhttps://www.reddit.com/r/feedthebeast/comments/40jol8/may_someone_answer_these_questions_about/
p1029
(lp1030
I980
aI453
aI201
aI265
aI174
aI299
aI239
aI92
aI147
asVhttps://www.reddit.com/r/hometheater/comments/498ui1/newbie_wanting_to_gradually_upgrade/
p1031
(lp1032
I776
aI254
aI407
aI284
aI499
aI66
aI380
aI235
aI128
aI177
aI601
aI49
aI72
aI11
asVhttps://www.reddit.com/r/stopsmoking/comments/lfgd2/24_hours_without_a_cigarette/
p1033
(lp1034
I574
aI712
aI548
aI605
aI275
aI291
aI424
aI107
aI617
aI592
aI297
aI439
aI242
aI87
asVhttps://www.reddit.com/r/pokemon/comments/1nxqoi/looking_for_fellow_pokemon_trainers_for_x_and_y/
p1035
(lp1036
I207
aI225
aI195
aI142
asVhttps://www.reddit.com/r/runescape/comments/nybu0/ask_me_anything_runescape_related/
p1037
(lp1038
I111
aI13
aI364
aI13
aI22
aI217
aI191
aI17
aI152
aI44
aI22
aI13
aI135
aI317
aI88
aI378
aI69
aI37
aI46
aI33
aI156
aI73
aI261
aI25
asVhttps://www.reddit.com/r/Fantasy/comments/1947m0/all_three_mongoliad_books_on_sale_for_299_now/
p1039
(lp1040
I961
aI49
aI128
aI251
aI120
aI278
aI196
aI161
aI49
aI110
aI173
aI69
asVhttps://www.reddit.com/r/fifthworldproblems/comments/24nmxj/long_lost_half_brother_zalthor_speaks_ama/
p1041
(lp1042
I954
aI43
aI34
aI26
aI43
aI177
aI265
aI29
aI155
aI38
aI172
aI53
aI103
aI124
aI265
aI150
aI103
aI146
aI78
aI19
aI81
aI50
aI62
aI245
aI237
aI51
aI206
aI94
aI522
aI44
aI166
aI85
aI27
aI8
asVhttps://www.reddit.com/r/whowouldwin/comments/1b5ocp/the_presence_vs_the_oneaboveall/
p1043
(lp1044
I331
aI239
aI48
aI71
aI206
aI5
aI179
aI533
aI197
aI166
aI97
aI67
aI156
aI199
aI149
aI682
aI344
aI398
aI315
aI427
asVhttps://www.reddit.com/r/gaymers/comments/npwnf/told_my_mom_im_bisexual_and_it_went_splendidlynow/
p1045
(lp1046
I288
aI249
aI138
aI105
aI793
aI8
aI342
aI342
aI89
aI74
aI98
aI235
asVhttps://www.reddit.com/r/engineering/comments/4475r4/looking_for_control_systems_text_book/
p1047
(lp1048
I275
aI352
aI191
aI360
aI113
aI2262
aI1382
aI1170
aI20
aI332
asVhttps://www.reddit.com/r/learnprogramming/comments/315d08/finding_the_mode_of_a_double_array_java/
p1049
(lp1050
I47
aI43
aI270
aI282
aI104
aI257
aI8
aI46
asVhttps://www.reddit.com/r/electronic_cigarette/comments/1c2od5/universal_passthrough/
p1051
(lp1052
I149
aI135
aI119
aI259
aI49
aI14
aI191
aI223
aI96
aI47
aI109
asVhttps://www.reddit.com/r/smallbusiness/comments/184zks/if_a_business_doesnt_turn_a_profit_does_not/
p1053
(lp1054
I472
aI366
aI472
aI942
aI392
aI320
aI603
aI71
aI436
aI38
aI234
aI180
aI186
aI131
aI611
aI176
asVhttps://www.reddit.com/r/guns/comments/dd9us/what_do_you_do_with_defective_ammo/
p1055
(lp1056
I423
aI260
aI869
aI228
aI32
aI107
aI262
aI70
aI379
aI184
aI279
aI209
aI345
aI182
aI181
aI354
aI126
aI199
aI150
aI176
aI18
aI239
asVhttps://www.reddit.com/r/DotA2/comments/2oph3u/nonenglish_speakers_abusing_us_english_queue/
p1057
(lp1058
I1085
aI375
aI20
aI175
aI23
aI195
aI239
aI335
aI36
aI141
aI111
aI210
aI234
aI57
aI73
aI142
aI82
aI71
aI214
aI68
aI168
aI197
aI262
aI551
aI241
aI333
aI480
aI152
aI419
aI730
aI47
aI204
aI60
asVhttps://www.reddit.com/r/ClickerHeroes/comments/2mnejq/so_i_am_at_the_point_of_my_first_heroes_easily/
p1059
(lp1060
I679
aI1554
aI160
aI302
aI74
aI238
aI588
aI281
aI247
aI143
asVhttps://www.reddit.com/r/wheeloftimerp/comments/3fqrmp/children_in_mindea/
p1061
(lp1062
I680
aI2484
aI30
aI1689
aI1297
aI535
aI1709
aI1124
aI2292
aI935
asVhttps://www.reddit.com/r/doctorwho/comments/3aywbh/doctor_who_a_companions_perspective/
p1063
(lp1064
I6389
aI197
aI1176
aI102
aI134
aI39
aI141
asVhttps://www.reddit.com/r/politics/comments/nzce4/somebody_understands_debt/
p1065
(lp1066
I109
asVhttps://www.reddit.com/r/askphilosophy/comments/376njf/which_school_of_philosophy_do_you_think_you/
p1067
(lp1068
I268
aI919
aI356
aI1348
aI635
aI222
aI1251
aI300
aI1023
aI590
aI850
aI530
aI110
aI172
aI308
aI344
aI304
aI151
aI41
aI20
aI92
aI42
aI481
aI381
aI357
aI1197
aI707
aI363
aI10
aI258
aI499
aI749
aI35
aI266
aI564
aI1488
aI112
aI103
aI625
aI168
aI138
asVhttps://www.reddit.com/r/wow/comments/4e3rl6/just_got_to_panda_with_my_dk_whats_the_most_asian/
p1069
(lp1070
I215
aI306
aI93
aI77
aI86
aI74
aI12
asVhttps://www.reddit.com/r/YamakuHighSchool/comments/2pcxvh/on_the_school_roof_alone_crying/
p1071
(lp1072
I381
aI167
aI31
asVhttps://www.reddit.com/r/techsupport/comments/3c2tl6/new_ssd_wont_act_as_a_boot_drive/
p1073
(lp1074
I2488
aI419
aI48
aI78
aI294
aI26
aI212
aI330
aI155
aI206
asVhttps://www.reddit.com/r/Dublin/comments/1d8bk1/places_to_go_on_a_saturday_night_alone/
p1075
(lp1076
I270
aI444
aI153
aI266
aI140
aI263
aI53
aI77
aI891
aI178
aI174
asVhttps://www.reddit.com/r/SteamTradingCards/comments/1l249y/question_can_someone_explain_foil_cards_for_me/
p1077
(lp1078
I182
aI226
aI7
aI122
aI187
aI123
asVhttps://www.reddit.com/r/explainlikeimfive/comments/1rsvyx/eli5_how_would_a_gun_fire_in_space/
p1079
(lp1080
I0
aI80
aI287
aI129
aI465
aI51
aI82
aI146
asVhttps://www.reddit.com/r/tf2/comments/4a748r/things_tf2_players_say_animation/
p1081
(lp1082
I150
aI53
aI44
aI108
aI49
aI23
aI114
aI21
aI15
aI62
aI302
aI13
aI40
aI24
aI51
aI64
aI52
aI24
aI231
aI190
aI58
aI51
aI4
aI2
aI8
aI32
aI42
aI6
aI97
aI144
aI282
aI8
aI31
aI23
aI120
aI127
aI127
aI19
aI438
asVhttps://www.reddit.com/r/SuggestALaptop/comments/2vxnhp/do_i_need_a_discrete_graphics_card_if_i_dont_play/
p1083
(lp1084
I1038
aI95
aI233
aI171
aI39
aI156
aI152
aI131
aI314
aI192
asVhttps://www.reddit.com/r/silenthill/comments/2dyjiu/interactions_with_lisa/
p1085
(lp1086
I2777
aI775
aI593
aI285
aI514
aI229
aI1630
aI34
aI137
aI172
aI253
aI315
aI161
aI209
aI126
aI125
aI89
aI155
aI84
aI716
aI116
aI88
aI199
aI305
aI144
aI171
aI75
aI316
aI80
aI438
aI478
aI49
aI65
aI337
aI687
asVhttps://www.reddit.com/r/snakes/comments/144ca0/het_pied_female_ball_ate_her_first_mouse_after/
p1087
(lp1088
I1145
aI233
aI42
aI240
aI75
aI348
aI314
aI251
aI114
asVhttps://www.reddit.com/r/snakes/comments/10qvst/dry_scales/
p1089
(lp1090
I9
aI592
aI59
aI1044
aI245
aI56
asVhttps://www.reddit.com/r/jailbreak/comments/2r5m8x/helpquestionios_811_batterylife_caused_safe_mode/
p1091
(lp1092
I359
aI345
aI71
aI16
aI41
aI109
asVhttps://www.reddit.com/r/legaladvice/comments/1uks9e/ga_lawyer_misspelled_my_mothers_name_for_a_power/
p1093
(lp1094
I483
aI68
aI16
aI56
aI279
aI100
aI65
aI374
aI59
aI160
aI282
aI60
aI102
aI69
aI183
aI64
asVhttps://www.reddit.com/r/legaladvice/comments/1l7v8q/someone_put_my_family_in_serious_danger_but_it/
p1095
(lp1096
I1730
aI163
aI162
aI682
aI84
aI355
aI75
aI252
aI284
aI38
aI212
aI377
asVhttps://www.reddit.com/r/AskTrumpSupporters/comments/4lt2ye/how_much_do_you_think_the_wall_would_cost_us/
p1097
(lp1098
I60
aI23
aI142
aI113
aI43
aI18
aI5
aI44
aI47
aI34
aI14
aI60
asVhttps://www.reddit.com/r/photography/comments/bz4iz/trying_to_find_a_gps_logger_to_geoencode_photos/
p1099
(lp1100
I1362
aI620
aI75
aI595
aI208
aI159
aI72
aI108
aI234
aI330
aI127
aI737
aI135
aI58
aI54
asVhttps://www.reddit.com/r/ecigclassifieds/comments/4bf09g/wtb_dr_crimmys_banana_pudding_3mg_clone/
p1101
(lp1102
I46
aI47
aI23
aI70
aI37
aI354
aI37
aI139
asVhttps://www.reddit.com/r/depression/comments/22b9x9/i_dont_know_how_to_deal_with_this/
p1103
(lp1104
I1592
aI828
aI631
aI512
aI92
aI65
aI15
asVhttps://www.reddit.com/r/breakingbad/comments/1l6ghy/i_need_the_ricin_explained/
p1105
(lp1106
I265
aI2937
aI329
aI23
aI68
aI735
aI722
aI892
aI100
aI454
aI296
aI227
aI221
aI687
aI164
aI1135
asVhttps://www.reddit.com/r/AskMen/comments/12cyac/askmen_i_need_your_help/
p1107
(lp1108
I464
aI100
aI154
aI50
aI90
aI221
aI31
aI9
aI4
aI199
aI29
aI80
aI9
aI12
aI108
aI350
aI150
aI175
aI250
aI22
aI42
aI108
asVhttps://www.reddit.com/r/learnmath/comments/3anfse/college_calc_1_the_derivative_of_fxx/
p1109
(lp1110
I192
aI97
aI156
aI256
aI95
aI746
aI64
aI1185
aI92
aI109
aI69
aI663
aI196
aI149
aI66
aI110
asVhttps://www.reddit.com/r/gaming/comments/15jcpa/my_buddy_also_a_redditor_just_walked_in_and_gave/
p1111
(lp1112
I0
aI48
aI89
aI5
aI187
aI120
asVhttps://www.reddit.com/r/learnprogramming/comments/2u79ui/i_dont_know_what_language_i_should_use/
p1113
(lp1114
I660
aI311
aI314
aI351
aI395
aI137
aI124
asVhttps://www.reddit.com/r/BabyBumps/comments/2syo4a/god_help_me_my_husband_is_out_of_prozac/
p1115
(lp1116
I1570
aI326
aI321
aI453
aI183
aI707
aI762
aI74
aI275
aI111
aI242
aI370
aI392
aI29
aI93
aI90
asVhttps://www.reddit.com/r/techsupport/comments/38f1jk/which_monitor_is_better/
p1117
(lp1118
I407
aI51
aI378
aI235
aI645
aI290
aI349
aI343
aI322
aI145
asVhttps://www.reddit.com/r/amiibo/comments/38dfzc/for_those_that_ordered_from_zavvi_and_it_still/
p1119
(lp1120
I911
aI134
aI23
aI14
aI38
aI30
aI132
aI32
aI92
asVhttps://www.reddit.com/r/blackdesertonline/comments/47vvn1/launcher_doesnt_recognize_gpu/
p1121
(lp1122
I329
aI262
aI137
aI100
aI849
aI157
aI290
aI310
aI116
aI96
aI135
aI81
aI67
aI169
asVhttps://www.reddit.com/r/leagueoflegends/comments/maaj3/what_the_hell_happened_to_jiji/
p1123
(lp1124
I680
aI72
aI315
aI683
aI289
aI25
aI11
aI60
aI287
aI28
aI55
aI29
aI639
aI720
aI267
aI83
aI184
aI18
aI134
aI61
aI183
aI243
aI120
aI114
aI67
aI63
aI192
aI308
aI102
aI349
aI157
aI120
aI47
aI436
aI316
aI609
aI279
aI1574
aI236
aI34
aI119
asVhttps://www.reddit.com/r/atheism/comments/x4tgk/a_thought_that_has_occurred_to_me_about/
p1125
(lp1126
I427
aI243
aI448
aI524
aI96
aI165
aI145
aI62
aI141
aI191
aI287
asVhttps://www.reddit.com/r/playark/comments/3abtzw/suggestionright_mouseclick_on_certain_mountable/
p1127
(lp1128
I222
aI153
aI139
aI207
aI80
aI101
aI66
aI33
aI249
aI223
aI98
aI28
asVhttps://www.reddit.com/r/tf2/comments/1tkkfc/can_i_get_some_advice_on_a_trade/
p1129
(lp1130
I602
aI95
aI86
aI216
aI63
aI70
aI80
aI170
aI43
asVhttps://www.reddit.com/r/penpals/comments/2q1zba/24faus_for_penpalsemail_need_to_practice_spanish/
p1131
(lp1132
I243
aI94
aI153
aI113
aI215
aI137
aI6
aI4
aI230
aI29
aI80
aI68
asVhttps://www.reddit.com/r/letsplay/comments/3itasy/i_got_a_mcn_invite_for_the_music_nations_network/
p1133
(lp1134
I667
aI55
aI72
aI89
aI182
aI135
aI90
aI126
aI66
aI307
asVhttps://www.reddit.com/r/emulation/comments/1jgcsd/a_question_about_using_an_external_hard_drive/
p1135
(lp1136
I278
aI234
aI32
aI139
aI93
aI159
aI56
aI53
aI140
aI123
asVhttps://www.reddit.com/r/pcmasterrace/comments/2loi4l/pcmr_1st_world_problemas/
p1137
(lp1138
I88
aI75
aI95
aI56
aI75
aI162
asVhttps://www.reddit.com/r/evedreddit/comments/lvlgx/ya_know_i_love_eve_and_dreddittest_but_damn_it_is/
p1139
(lp1140
I896
aI75
aI262
aI64
aI94
aI199
aI139
aI71
aI43
aI131
aI155
aI213
aI31
aI22
aI9
aI44
aI42
aI125
aI24
aI181
aI199
aI59
aI46
aI48
aI16
aI85
asVhttps://www.reddit.com/r/fakeid/comments/2ikjy9/need_bank_statement_template_boachasewf/
p1141
(lp1142
I134
aI157
aI77
aI57
aI32
aI132
aI41
aI117
aI43
aI138
aI279
aI180
aI79
aI115
aI87
aI602
aI163
aI72
aI124
aI128
aI4
aI63
aI195
aI24
aI162
aI109
aI91
aI134
aI253
aI159
aI148
asVhttps://www.reddit.com/r/DnD/comments/4h1veh/barbarian_backstory_help/
p1143
(lp1144
I303
aI101
aI766
aI36
aI65
aI297
aI61
aI205
aI110
aI24
aI35
aI205
aI27
aI34
aI119
aI202
aI83
aI88
asVhttps://www.reddit.com/r/changemyview/comments/2d1cqq/cmv_the_opposite_opinion_on_the_eternal_fat_vs/
p1145
(lp1146
I3243
aI1515
aI470
aI438
aI2133
aI33
aI476
aI351
aI1655
aI126
aI165
aI246
aI261
aI515
aI187
aI430
aI704
aI67
aI541
aI235
aI458
aI555
aI551
aI261
aI78
aI351
aI363
aI65
asVhttps://www.reddit.com/r/webdev/comments/1zqv4n/newbie_looking_at_setting_up_a_web_server/
p1147
(lp1148
I443
aI57
aI137
aI245
aI239
aI141
aI377
aI280
aI56
aI28
aI44
asVhttps://www.reddit.com/r/techsupport/comments/p7zkj/pc_audio_problems_even_after_driver_reinstall/
p1149
(lp1150
I192
aI137
aI75
aI92
aI188
aI45
aI320
aI69
aI213
aI207
asVhttps://www.reddit.com/r/DarkSouls3JPN/comments/4ck4jh/yuria_quest/
p1151
(lp1152
I121
aI709
aI120
aI62
aI52
aI196
aI228
asVhttps://www.reddit.com/r/web_design/comments/32skhj/a_website_that_shows_use_of_color_in_movies/
p1153
(lp1154
I161
aI257
aI112
aI40
aI101
aI102
asVhttps://www.reddit.com/r/Earwolf/comments/1p4383/comedy_bang_bang_episode_251_the_bed_spoiler_with/
p1155
(lp1156
I0
aI124
aI97
aI24
aI42
aI152
aI368
aI50
aI164
aI61
aI246
asVhttps://www.reddit.com/r/soccer/comments/25ygby/long_post_a_review_of_phil_mcnultys_louis_van/
p1157
(lp1158
I9087
aI70
aI47
aI99
aI101
aI259
aI324
aI549
aI482
aI383
asVhttps://www.reddit.com/r/answers/comments/1fbhox/does_the_vibration_rate_of_a_particle_correspond/
p1159
(lp1160
I42
aI593
aI610
aI599
aI126
aI544
aI189
aI293
aI273
asVhttps://www.reddit.com/r/malefashionadvice/comments/38vqnl/university_backpack_recommendations/
p1161
(lp1162
I1344
aI1152
aI1736
aI247
aI135
aI617
aI48
aI183
asVhttps://www.reddit.com/r/AskReddit/comments/3fq9y8/can_you_spread_your_toes/
p1163
(lp1164
I96
aI90
aI44
aI10
aI41
aI48
aI141
aI101
aI54
aI43
aI38
aI58
aI83
aI24
aI53
aI80
aI65
aI40
asVhttps://www.reddit.com/r/syriancivilwar/comments/1xqgcz/i_just_returned_from_a_syrian_town_controlled_by/
p1165
(lp1166
I143
aI83
aI101
aI88
aI248
aI104
aI118
aI141
aI135
aI616
aI338
aI243
aI572
aI176
aI222
aI739
aI130
aI325
aI49
aI192
aI57
aI915
aI78
asVhttps://www.reddit.com/r/weightlifting/comments/33y41a/some_nice_prs_and_a_few_questionstips_wanted_62kg/
p1167
(lp1168
I1340
aI224
aI220
aI303
aI142
aI72
aI78
aI97
aI284
aI86
aI24
aI30
aI10
asVhttps://www.reddit.com/r/blackops3/comments/48y1em/anyone_else_constantly_have_their_character_fail/
p1169
(lp1170
I142
aI136
aI218
aI154
aI143
aI21
aI44
asVhttps://www.reddit.com/r/dayz/comments/1tfqrl/the_mods_soundtrack/
p1171
(lp1172
I1152
aI21
aI42
aI94
aI86
aI82
aI18
asVhttps://www.reddit.com/r/Aquariums/comments/p6052/puffers_barbs_and_stocking/
p1173
(lp1174
I9
aI181
aI457
aI658
aI564
aI357
aI186
aI103
aI33
aI252
aI8
asVhttps://www.reddit.com/r/oblivion/comments/ifvsp/question_regarding_hotkeys_please_help/
p1175
(lp1176
I354
aI107
aI113
aI193
aI90
aI81
aI88
aI1497
aI302
aI285
aI25
asVhttps://www.reddit.com/r/sex/comments/35elrf/advice_numbness_when_im_with_my_girlfriend_please/
p1177
(lp1178
I1169
aI255
aI324
aI74
aI454
aI214
aI242
aI473
aI147
aI260
aI259
aI357
aI142
aI27
aI242
aI228
aI61
aI262
aI80
aI20
aI338
aI365
aI77
aI360
asVhttps://www.reddit.com/r/Nootropics/comments/3iyzwo/why_doesnt_memantine_work_for_me_and_is_there/
p1179
(lp1180
I2247
aI322
aI1026
aI161
aI605
aI275
aI226
aI373
aI204
aI577
aI520
aI355
aI42
aI222
aI242
aI82
aI116
aI32
aI27
aI99
aI187
aI16
aI15
asVhttps://www.reddit.com/r/cosplay/comments/1k815j/help_hal_octacon_emmerich_cosplay/
p1181
(lp1182
I329
aI140
aI200
aI323
aI98
aI86
asVhttps://www.reddit.com/r/pumparum/comments/4gxe2e/ps46_w_hornet_ring_h_bloodlust/
p1183
(lp1184
I84
aI24
aI56
aI63
aI24
aI6
aI112
aI112
asVhttps://www.reddit.com/r/batman/comments/2k88bq/just_finished_reading_the_long_halloween_for_the/
p1185
(lp1186
I221
aI188
aI280
aI166
aI59
aI198
aI24
aI148
aI89
aI427
aI17
aI169
aI374
aI18
aI125
aI154
asVhttps://www.reddit.com/r/homechemistry/comments/3apfyf/precautions_for_low_flash_point_liquids/
p1187
(lp1188
I176
aI370
aI256
aI937
aI18
aI726
aI21
aI116
aI681
aI83
aI89
aI161
aI392
aI206
asVhttps://www.reddit.com/r/crochet/comments/29dtve/i_was_at_work_earlier_and_couldnt_wait_to_get/
p1189
(lp1190
I32
aI88
aI389
aI86
aI129
aI175
aI119
aI44
aI387
aI30
aI605
aI75
aI99
aI319
aI50
aI59
aI34
aI18
aI83
asVhttps://www.reddit.com/r/pharmacy/comments/37av93/how_to_work_as_a_clinical_pharmacist_in_the/
p1191
(lp1192
I351
aI587
aI23
aI166
aI10
aI23
aI86
aI75
aI298
asVhttps://www.reddit.com/r/askscience/comments/1q387f/how_do_orbitals_intersect_each_other/
p1193
(lp1194
I669
aI1288
aI258
aI227
aI900
aI856
aI197
aI1223
aI464
aI298
aI332
aI204
aI155
asVhttps://www.reddit.com/r/atheism/comments/3fa0he/convert_to_islam_google_ad_on_imgur_that_i_keep/
p1195
(lp1196
I248
aI58
aI404
aI63
aI282
aI79
aI302
aI58
aI601
aI115
aI244
aI127
aI115
aI149
aI106
aI203
aI14
aI220
aI204
aI32
aI10
aI75
aI30
aI110
aI135
aI23
aI174
aI168
aI558
aI186
aI73
asVhttps://www.reddit.com/r/pcgaming/comments/288lx8/noob_here_can_i_upgrade_integrated_graphics/
p1197
(lp1198
I106
aI322
aI57
aI69
aI34
aI95
aI21
aI55
aI267
aI60
aI11
aI25
aI231
asVhttps://www.reddit.com/r/deftones/comments/33s6sc/going_to_my_first_deftones_concert_always_been_a/
p1199
(lp1200
I289
aI147
aI261
aI341
aI234
aI25
aI1328
aI368
aI405
aI243
aI751
aI11
aI76
aI607
aI380
aI36
aI189
aI170
aI371
aI271
aI23
aI58
aI346
aI192
aI255
aI115
aI148
aI131
aI52
aI33
asVhttps://www.reddit.com/r/depression/comments/1h4yhr/anything_to_help_me_get_started_each_day/
p1201
(lp1202
I1387
aI393
aI537
aI200
aI218
aI206
aI154
asVhttps://www.reddit.com/r/Instagram/comments/3zigdk/is_it_easier_to_gain_followers_the_more_followers/
p1203
(lp1204
I288
aI34
aI180
aI734
aI330
aI56
aI118
aI95
aI54
aI326
aI240
aI221
aI19
aI164
aI70
aI20
asVhttps://www.reddit.com/r/askscience/comments/4ko9n6/are_there_any_pathogenic_to_humans_archaea/
p1205
(lp1206
I0
aI428
aI219
aI464
aI119
aI9
aI543
aI188
asVhttps://www.reddit.com/r/hotlinemiamimaps/comments/4cm5iq/destructible_doors_mod_test_map/
p1207
(lp1208
I336
aI321
aI244
aI142
aI592
aI354
aI238
aI184
aI234
aI273
aI152
aI135
aI160
aI137
aI250
asVhttps://www.reddit.com/r/offmychest/comments/1d4cmk/this_is_my_life/
p1209
(lp1210
I246
aI75
aI133
aI14
aI164
aI224
aI102
aI58
aI23
aI35
aI91
aI61
aI193
aI64
aI548
aI119
aI113
aI37
aI38
aI92
aI24
aI139
aI53
aI45
aI41
aI375
aI82
aI76
aI333
aI4
aI54
aI146
aI224
aI18
aI71
aI108
aI23
aI153
aI23
asVhttps://www.reddit.com/r/Showerthoughts/comments/1lddvq/what_if_everything_i_do_is_predetermined_and_i/
p1211
(lp1212
I143
aI191
aI30
aI7
aI386
aI66
aI147
aI196
aI213
aI103
aI117
asVhttps://www.reddit.com/r/radiohead/comments/4eadwl/deep_inside_the_mind_of_thom_yorke/
p1213
(lp1214
I0
aI42
aI14
aI14
aI12
aI37
aI36
aI42
aI39
aI21
asVhttps://www.reddit.com/r/adventuretime/comments/447f0u/season_7_vs_season_6/
p1215
(lp1216
I1663
aI1183
aI5213
aI1379
aI244
aI389
aI289
aI212
aI848
aI223
aI1331
aI1924
aI48
aI135
aI43
aI594
aI845
aI313
aI882
aI996
aI1359
aI1477
aI406
aI1007
aI102
aI12
asVhttps://www.reddit.com/r/legaladvice/comments/1ck8zm/insurance_reimbursement_check/
p1217
(lp1218
I1330
aI23
aI593
aI312
aI309
aI182
aI43
aI740
aI42
aI171
aI145
aI72
aI147
aI341
asVhttps://www.reddit.com/r/whowouldwin/comments/3cnnx4/feudal_japan_vs_any_feudal_western_european/
p1219
(lp1220
I1718
aI237
aI118
aI29
aI51
aI3508
aI245
aI47
aI450
aI353
aI296
aI209
aI3596
aI7445
aI48
aI200
aI577
aI4
aI440
aI3127
aI235
aI774
aI855
aI828
aI1244
asVhttps://www.reddit.com/r/oculus/comments/2dzyzk/world_scale_way_off_in_most_demosgames/
p1221
(lp1222
I1502
aI147
aI207
aI113
aI208
aI1761
aI189
aI309
aI481
aI353
aI1087
aI506
aI727
aI30
aI30
aI85
aI445
aI303
aI361
aI75
aI315
aI87
aI1086
aI221
aI1206
aI204
aI668
aI150
aI170
aI221
aI2016
aI173
aI230
aI24
aI187
aI330
aI369
aI55
aI101
aI436
asVhttps://www.reddit.com/r/beyondthebump/comments/250yu7/finally/
p1223
(lp1224
I782
aI158
aI429
aI312
aI171
aI271
aI43
asVhttps://www.reddit.com/r/techsupport/comments/2rc17g/broken_external_hard_drive_how_can_i_get_the/
p1225
(lp1226
I819
aI172
aI256
aI89
aI17
aI390
aI155
aI49
aI340
aI220
aI223
aI181
aI88
asVhttps://www.reddit.com/r/magicTCG/comments/3xvo0f/why_is_everyone_siding_with_the_suspended_judges/
p1227
(lp1228
I1569
aI2038
aI443
aI135
aI737
aI123
aI25
aI290
aI288
aI660
aI215
aI334
aI873
aI401
aI425
aI292
aI93
aI174
aI126
aI372
aI29
aI39
aI272
aI166
aI275
aI196
aI250
aI16
aI198
aI117
asVhttps://www.reddit.com/r/trans/comments/3dlxe2/very_new_to_the_transgender_scene/
p1229
(lp1230
I331
aI156
aI43
aI80
aI210
aI80
aI169
aI428
asVhttps://www.reddit.com/r/fittings/comments/454j8i/r_solo_pvp_hurricane_fleet_issue/
p1231
(lp1232
I698
aI73
aI63
aI1340
aI687
aI12
asVhttps://www.reddit.com/r/dogemining/comments/1yof42/3x_hd_7750s_or_2x_r9_290xs_in_crossfire/
p1233
(lp1234
I321
aI499
aI45
aI39
aI96
aI129
aI217
aI168
aI142
aI66
aI234
aI114
aI53
aI186
aI174
aI4
aI65
aI49
aI115
asVhttps://www.reddit.com/r/Scapecraft/comments/2p7flr/help_with_installing_mod/
p1235
(lp1236
I378
aI482
aI183
aI84
aI48
aI59
aI114
aI280
aI187
aI577
asVhttps://www.reddit.com/r/leagueoflegends/comments/11amyn/clgeu_has_such_a_positive_attitude/
p1237
(lp1238
I343
aI66
aI87
aI69
aI532
aI71
aI85
aI136
aI28
aI429
aI196
aI24
aI357
aI121
aI85
aI38
aI24
aI131
aI201
aI61
aI125
aI207
aI25
aI14
aI105
aI849
aI11
aI78
aI39
aI52
aI52
aI346
aI43
aI33
aI27
aI32
aI21
aI39
aI20
aI29
aI33
asVhttps://www.reddit.com/r/synthesizers/comments/4g9pei/recording_yamaha_dx21_too_quiet/
p1239
(lp1240
I841
aI1026
aI118
aI139
aI1656
aI92
aI158
aI207
aI1134
aI77
aI273
aI1167
aI493
aI3560
aI1018
aI60
asVhttps://www.reddit.com/r/DebateReligion/comments/4137aj/simple_questions_0115/
p1241
(lp1242
I583
aI54
aI190
aI136
aI88
aI92
aI123
aI349
aI170
aI410
aI118
aI312
aI276
aI250
aI125
aI366
aI128
aI95
aI301
aI274
aI166
aI149
aI1440
aI139
aI174
aI364
aI217
aI308
aI83
aI2083
aI67
aI115
aI240
aI588
aI114
aI884
asVhttps://www.reddit.com/r/personalfinance/comments/17c07i/looking_for_some_advice_on_how_to_raise_my_credit/
p1243
(lp1244
I376
aI67
aI582
aI500
aI92
aI80
aI766
aI248
aI1068
aI738
aI187
aI105
aI347
aI261
aI99
aI53
aI557
aI33
aI219
asVhttps://www.reddit.com/r/bodyweightfitness/comments/ubxth/two_personal_firsts_today/
p1245
(lp1246
I504
aI9
aI9
aI343
aI169
aI153
aI39
aI54
aI50
aI568
aI166
aI91
aI145
aI450
aI41
aI147
aI7
aI7
aI303
aI380
aI1161
aI215
asVhttps://www.reddit.com/r/makeupexchange/comments/2aa5o0/sell_bobbi_brown_eye_smudge_brush/
p1247
(lp1248
I654
aI275
aI144
aI84
aI15
aI78
asVhttps://www.reddit.com/r/2007scape/comments/2x3amn/can_i_use_this_ahk_script/
p1249
(lp1250
I332
aI115
aI3
aI2
aI287
aI209
aI83
aI134
aI130
aI46
asVhttps://www.reddit.com/r/hockey/comments/371k9d/can_someone_explain_gretzkys_dominance_people/
p1251
(lp1252
I662
aI1127
aI465
aI85
aI748
aI342
aI825
aI891
aI918
aI177
aI70
aI1769
aI166
aI117
aI521
aI54
aI461
aI417
aI741
aI461
aI182
aI112
aI310
aI590
aI280
aI279
aI272
aI214
aI32
aI16
aI175
aI139
aI55
aI52
aI46
aI16
aI82
aI241
aI235
aI26
aI29
asVhttps://www.reddit.com/r/fountainpens/comments/3ykb05/twsbi_580_leaking/
p1253
(lp1254
I339
aI153
aI101
aI162
aI217
aI409
aI352
asVhttps://www.reddit.com/r/torrents/comments/1d8m8i/is_there_an_aggregated_list_of_allowed_clients/
p1255
(lp1256
I170
aI450
aI254
aI272
aI168
aI1179
aI612
aI955
aI752
asVhttps://www.reddit.com/r/pathofexile/comments/1tli7d/so_apparently_i_found_a_good_item_and_now_i_cant/
p1257
(lp1258
I721
aI221
aI312
aI55
aI47
aI92
aI133
aI53
aI113
aI203
aI63
aI15
aI45
aI32
aI63
asVhttps://www.reddit.com/r/coins/comments/3cek5z/very_faint_o_in_monticello/
p1259
(lp1260
I0
aI16
aI26
aI106
aI41
aI55
asVhttps://www.reddit.com/r/MaxMSP/comments/3ihbbn/smoothing_jumps_in_sensor_data_stream/
p1261
(lp1262
I927
aI870
aI586
aI105
aI251
aI309
aI80
aI65
aI129
asVhttps://www.reddit.com/r/pcmasterrace/comments/3xkj6p/possible_click_bait_news_about_hackers/
p1263
(lp1264
I692
aI167
aI113
aI42
aI15
aI374
aI122
aI365
aI96
aI345
aI218
aI41
aI291
aI161
aI147
aI585
aI172
aI628
aI122
aI1216
aI911
asVhttps://www.reddit.com/r/trees/comments/edn57/for_you_fellow_ents_choose_a_print_and_its_on_me/
p1265
(lp1266
I764
aI103
aI34
aI76
aI47
aI92
aI56
aI127
aI58
aI30
aI16
aI54
aI237
aI82
aI43
aI61
aI40
aI60
aI39
aI97
aI73
aI59
aI29
aI21
aI216
aI92
aI451
aI97
aI10
aI85
aI111
aI174
aI168
aI75
aI8
aI52
aI45
asVhttps://www.reddit.com/r/odroid_c2/comments/4l91pq/c2_kodi_media_centre/
p1267
(lp1268
I1762
aI366
aI109
aI293
aI361
aI276
aI206
aI86
aI394
aI1382
aI117
asVhttps://www.reddit.com/r/sales/comments/3j4anv/how_to_deal_with_multiple_decision_makers/
p1269
(lp1270
I257
aI2572
aI319
aI485
aI2319
aI484
aI681
asVhttps://www.reddit.com/r/muacirclejerk/comments/2g334s/what_do_temptalia_and_other_wellknown_beauty/
p1271
(lp1272
I363
aI414
aI276
aI344
aI99
aI15
aI264
aI307
aI222
aI245
aI435
aI91
asVhttps://www.reddit.com/r/WTF/comments/26vxej/this_is_what_happens_when_hundreds_of_people/
p1273
(lp1274
I0
aI47
aI1140
aI81
aI240
aI22
aI24
aI36
aI31
aI16
aI44
aI34
aI146
aI42
aI47
aI20
aI16
aI7
aI168
aI169
aI55
aI15
aI21
aI90
aI38
aI18
aI108
aI40
aI38
aI21
aI19
aI28
aI122
aI113
aI102
aI88
aI61
aI159
aI77
aI24
aI6
asVhttps://www.reddit.com/r/bitcoinxt/comments/3glad4/mike_hearns_plans_for_bitcoin_xt_this_upcoming/
p1275
(lp1276
I619
aI153
aI53
aI102
aI53
aI202
aI76
aI16
asVhttps://www.reddit.com/r/freefolk/comments/36j394/episode_6_unbowed_unbent_unbroken_game_of_face/
p1277
(lp1278
I490
aI166
aI72
aI27
aI515
aI56
aI498
aI847
aI39
aI464
aI646
aI43
aI262
aI57
aI77
aI7
asVhttps://www.reddit.com/r/talesfromcallcenters/comments/28kfio/just_call_center_things/
p1279
(lp1280
I236
aI434
aI50
aI439
aI130
aI159
aI8
aI188
aI133
aI64
aI155
asVhttps://www.reddit.com/r/swtor/comments/rs88o/twilek_hoods_12/
p1281
(lp1282
I214
aI152
aI70
aI26
aI170
aI66
aI219
aI454
aI96
aI163
asVhttps://www.reddit.com/r/guns/comments/422ccv/what_would_happen_if_you_necked_down_a_50_bmg_to/
p1283
(lp1284
I325
aI46
aI104
aI46
aI307
aI480
aI326
aI43
aI82
aI51
aI5
aI36
aI58
aI85
aI13
aI227
aI66
aI83
aI42
aI34
aI84
aI17
aI60
aI112
aI33
aI209
aI62
aI28
aI53
aI123
aI37
aI19
aI29
aI20
aI23
aI45
aI15
aI26
aI49
aI44
aI345
asVhttps://www.reddit.com/r/bicycling/comments/8tdp0/so_i_recently_added_3_extra_miles_to_my_daily/
p1285
(lp1286
I0
aI456
aI172
aI72
aI342
aI349
aI451
aI119
aI10
aI151
aI221
aI115
aI203
aI21
asVhttps://www.reddit.com/r/beadsprites/comments/1psvdk/question_for_the_folks_who_make_keychains/
p1287
(lp1288
I455
aI207
aI384
aI391
aI84
aI177
aI136
aI106
aI54
asVhttps://www.reddit.com/r/AskReddit/comments/8rjdx/reddit_ill_be_leaving_home_and_living_with_some/
p1289
(lp1290
I0
aI74
aI317
aI143
aI15
aI71
aI14
aI49
aI344
aI185
aI143
aI183
aI209
aI10
aI40
aI288
aI266
aI353
aI251
aI132
aI85
aI37
aI407
aI581
aI99
asVhttps://www.reddit.com/r/Mariners/comments/1scgdu/mariners_transactions/
p1291
(lp1292
I506
aI545
aI287
aI295
aI54
aI408
aI472
aI140
aI245
aI121
aI170
aI120
aI83
aI79
aI47
aI58
aI27
aI10
aI14
aI115
aI527
aI522
aI75
aI282
aI22
aI54
aI36
aI58
aI438
aI214
aI194
aI111
aI124
aI618
aI24
aI236
aI73
aI16
aI49
aI32
asVhttps://www.reddit.com/r/archlinux/comments/467dxd/when_upgrading_unresolvable_package_conflicts/
p1293
(lp1294
I1014
aI189
aI1852
aI119
aI112
aI78
aI711
aI129
aI116
asVhttps://www.reddit.com/r/Pathfinder_RPG/comments/24xyel/ridingrodeo_enemies/
p1295
(lp1296
I310
aI1511
aI135
aI123
aI1468
aI143
aI769
aI1070
aI443
aI209
aI212
aI390
aI351
aI1124
aI1601
asVhttps://www.reddit.com/r/AskReddit/comments/2inzso/what_would_be_the_best_example_of_competence/
p1297
(lp1298
I138
aI36
aI52
aI25
aI73
aI152
asVhttps://www.reddit.com/r/darksouls/comments/3z1ybp/sens_fortress_pc/
p1299
(lp1300
I74
aI43
aI9
aI55
aI47
aI75
aI5
aI43
aI84
aI48
aI94
aI23
aI56
aI38
aI25
aI40
aI144
aI63
asVhttps://www.reddit.com/r/Repsneakers/comments/2wfsdf/thats_just_too_expensive_for_a_pair_of_ua_yeezy/
p1301
(lp1302
I117
aI204
aI53
aI91
aI373
aI33
aI175
aI32
aI108
aI90
aI26
aI89
aI132
aI8
aI53
aI177
aI73
aI65
aI223
aI43
aI13
aI64
aI185
aI85
aI179
aI81
asVhttps://www.reddit.com/r/trees/comments/29lvyw/does_smoking_weed_effect_appearance_in_the_long/
p1303
(lp1304
I0
aI195
aI75
aI212
aI71
aI33
aI106
aI11
aI123
aI236
aI61
aI38
aI69
aI68
aI128
asVhttps://www.reddit.com/r/darksouls3/comments/4f6d50/someone_help_i_think_i_messed_up_a_quest_line/
p1305
(lp1306
I535
aI67
aI65
aI89
aI37
aI11
asVhttps://www.reddit.com/r/tamrielscholarsguild/comments/1eqi10/20th_of_second_seed_morning_in_the_mountains/
p1307
(lp1308
I1565
aI636
aI281
aI366
aI376
aI432
aI683
aI477
aI646
aI338
aI443
aI281
aI419
aI245
aI232
aI166
aI325
asVhttps://www.reddit.com/r/gaming/comments/gbt5u/anyone_else_think_it_a_bit_odd_that_the_3ds_comes/
p1309
(lp1310
I0
aI72
aI129
aI257
aI74
aI151
aI33
aI163
aI32
aI141
aI69
aI123
aI93
aI310
aI541
aI78
aI87
aI65
aI173
aI238
asVhttps://www.reddit.com/r/learndota2/comments/380nzo/whats_the_easiest_way_to_become_a_better/
p1311
(lp1312
I184
aI1629
aI456
aI2052
aI31
aI311
aI31
aI183
aI111
aI17
aI140
aI37
aI194
aI31
aI479
aI512
aI284
aI75
aI260
aI42
aI95
aI137
aI174
asVhttps://www.reddit.com/r/buildapc/comments/3gcax8/build_ready_1st_gaming_rig_any_suggestions/
p1313
(lp1314
I2973
aI180
aI60
aI50
aI162
aI114
aI476
aI176
aI71
aI104
aI2296
aI311
aI2428
aI131
aI74
aI115
aI171
aI30
aI82
aI117
aI95
aI98
aI18
aI43
aI64
aI300
aI233
aI58
aI70
aI104
aI34
aI99
aI147
aI33
aI125
asVhttps://www.reddit.com/r/bleach/comments/21tdjs/something_that_has_been_bugging_me_a_little/
p1315
(lp1316
I689
aI338
aI96
aI278
aI139
aI53
aI83
aI325
aI24
aI21
aI111
aI58
aI68
aI28
aI74
aI71
aI95
aI26
aI58
aI452
aI210
aI3
aI53
aI163
aI1234
aI126
asVhttps://www.reddit.com/r/exchangeserver/comments/21fqpx/exchange_mailbox_server_move_and_outlook_users/
p1317
(lp1318
I996
aI1332
aI574
aI122
aI80
aI120
aI34
asVhttps://www.reddit.com/r/explainlikeimfive/comments/1z1vey/eli5_why_in_some_animal_species_is_the_female/
p1319
(lp1320
I91
aI1047
aI51
aI127
aI146
aI150
asVhttps://www.reddit.com/r/Gamecocks/comments/2hoxv2/time_to_play_backup_qb/
p1321
(lp1322
I693
aI246
aI565
aI477
aI447
aI251
aI142
aI237
aI46
aI426
aI725
aI109
aI328
aI154
aI2466
asVhttps://www.reddit.com/r/C_Programming/comments/1yx7gh/help_plz_array_of_mixed_type/
p1323
(lp1324
I1247
aI177
aI781
aI808
aI88
aI172
aI212
aI104
aI340
aI31
asVhttps://www.reddit.com/r/buildapc/comments/1hppqe/troubleshooting_starts_for_a_split_second_and/
p1325
(lp1326
I9
aI77
aI91
aI119
aI131
aI88
aI62
aI264
aI141
aI84
asVhttps://www.reddit.com/r/storyofseasons/comments/31xmtm/looking_for_5_turnip_seeds/
p1327
(lp1328
I765
aI102
aI75
aI148
aI184
aI227
asVhttps://www.reddit.com/r/reddit.com/comments/crx6e/tried_allien_swarm_try_it_then_hit_me_up_so_i/
p1329
(lp1330
I168
aI114
aI72
aI87
aI117
aI76
aI98
aI85
aI68
aI46
aI23
aI27
aI20
aI12
aI14
asVhttps://www.reddit.com/r/DIY/comments/gdaup/weekend_project_update/
p1331
(lp1332
I461
aI98
aI222
aI38
aI83
aI166
aI35
aI170
aI53
aI588
aI487
aI175
aI219
aI96
aI360
aI81
aI179
aI100
aI307
asVhttps://www.reddit.com/r/freefolk/comments/359m6s/question_about_arya_becoming_a_faceless_man/
p1333
(lp1334
I345
aI61
aI196
aI69
aI59
aI122
aI57
aI426
aI284
aI47
aI61
aI26
aI145
aI296
aI172
aI255
aI22
aI108
aI217
aI170
aI124
aI464
aI154
aI309
aI272
asVhttps://www.reddit.com/r/gaming/comments/2m5coi/does_anybody_else_remember_when_cheapassgamer_had/
p1335
(lp1336
I396
aI36
aI98
aI39
aI161
aI45
aI172
aI41
aI15
asVhttps://www.reddit.com/r/slashdiablo/comments/3i9kr5/iso_pally_stuff/
p1337
(lp1338
I104
aI30
aI21
aI25
aI13
aI2
aI46
aI21
aI15
aI6
aI18
aI6
aI13
aI3
asVhttps://www.reddit.com/r/techsupport/comments/38jdyv/awful_980_performance/
p1339
(lp1340
I1731
aI93
aI234
aI377
aI693
aI168
aI223
aI266
aI174
asVhttps://www.reddit.com/r/heroesofthestorm/comments/24adpz/looking_for_a_logo_designer_for_my_new_yt_channel/
p1341
(lp1342
I504
aI74
aI57
aI10
aI307
aI228
aI420
asVhttps://www.reddit.com/r/ffxiv/comments/1mam9i/level_questions/
p1343
(lp1344
I91
aI2
aI53
aI105
aI125
aI17
aI62
aI194
aI33
aI230
asVhttps://www.reddit.com/r/DebateAChristian/comments/2pekcg/the_gotcha_questions_and_trap_questions_seem_to/
p1345
(lp1346
I2459
aI849
aI168
aI500
aI473
aI1543
aI3583
aI144
aI203
aI366
aI187
aI359
aI82
aI49
aI373
aI729
aI85
aI375
aI793
aI261
aI325
aI523
aI394
aI51
aI318
aI1090
aI197
aI419
aI20
aI413
aI115
aI778
aI606
aI112
aI236
aI293
aI195
aI235
aI397
aI390
asVhttps://www.reddit.com/r/whisky/comments/3ve955/whisky_library_what_to_choose/
p1347
(lp1348
I586
aI911
aI320
aI943
aI738
aI292
aI409
aI100
aI182
aI58
aI126
aI89
aI36
aI64
aI20
aI27
aI117
asVhttps://www.reddit.com/r/worldbuilding/comments/1l6k7f/terraforming_time/
p1349
(lp1350
I571
aI809
aI455
aI366
aI207
aI896
aI120
aI930
aI357
aI31
aI918
aI72
aI185
aI497
aI20
aI45
aI265
aI364
aI103
aI160
aI505
aI138
aI39
aI35
asVhttps://www.reddit.com/r/amazon/comments/3drijc/order_still_hasnt_shipped/
p1351
(lp1352
I191
aI292
aI120
aI368
aI340
aI39
aI270
aI152
aI168
asVhttps://www.reddit.com/r/india/comments/ehq59/india_ama_i_was_molested_as_a_child_once/
p1353
(lp1354
I727
aI108
aI87
aI22
aI75
aI61
aI463
aI132
aI226
aI733
aI45
aI223
aI425
aI205
aI64
asVhttps://www.reddit.com/r/Boxing/comments/1obcg3/any_legitimate_fighting_online_channels/
p1355
(lp1356
I1105
aI171
aI172
aI275
aI354
aI265
asVhttps://www.reddit.com/r/design_critiques/comments/1y9887/looking_for_feedback_on_freelance/
p1357
(lp1358
I965
aI491
aI824
aI176
aI105
aI458
aI461
aI59
aI261
aI368
aI136
aI12
asVhttps://www.reddit.com/r/running/comments/v1nh2/last_workout_left_me_hellasore_all_over_whats_the/
p1359
(lp1360
I1443
aI16
aI48
aI240
aI38
aI55
aI205
aI264
aI157
aI59
aI107
aI97
aI134
aI29
aI197
aI168
aI99
aI60
asVhttps://www.reddit.com/r/TwoXChromosomes/comments/2p2uf3/hi_twox_i_need_advice_on_a_complicated/
p1361
(lp1362
I3472
aI885
aI386
aI410
aI42
aI176
aI942
aI10
aI108
aI236
aI211
aI261
aI428
aI197
asVhttps://www.reddit.com/r/paintball/comments/18n50a/bob_long_defiant_2_maybe/
p1363
(lp1364
I265
aI303
aI287
aI267
aI33
aI5
aI277
aI392
aI152
aI58
asVhttps://www.reddit.com/r/AskReddit/comments/1e275t/post_here_the_funniest_stories_of_your_ap_classes/
p1365
(lp1366
I0
aI54
aI356
aI70
aI181
aI84
aI47
aI77
aI253
aI236
aI63
aI94
asVhttps://www.reddit.com/r/navy/comments/yvawj/navy_advice/
p1367
(lp1368
I303
aI2212
aI109
aI225
aI490
aI192
aI147
aI281
aI113
aI130
aI151
aI261
aI154
aI253
aI140
aI107
asVhttps://www.reddit.com/r/buildapcforme/comments/1o9zkt/something_messed_up_and_set_me_back_a_couple_of/
p1369
(lp1370
I2063
aI1593
aI97
aI144
aI143
aI10
aI107
aI40
aI56
aI49
aI60
aI128
aI68
aI167
aI199
aI91
aI66
aI94
aI56
asVhttps://www.reddit.com/r/techsupport/comments/m5gsh/bios_in_toshiba_laptop_doesnt_detect_hdd/
p1371
(lp1372
I294
aI169
aI193
aI208
aI96
aI96
aI280
aI244
aI136
aI75
asVhttps://www.reddit.com/r/jailbreak/comments/4bafx5/discussion_march_21st_event_megathread/
p1373
(lp1374
I131
aI98
aI76
aI7
aI1
aI27
aI33
aI24
aI116
aI162
aI48
aI37
aI57
aI3
aI19
asVhttps://www.reddit.com/r/photography/comments/4ihwan/how_to_clean_mirror_less_camera_sensor/
p1375
(lp1376
I329
aI84
aI229
aI51
aI135
aI275
aI757
aI232
aI160
aI87
aI40
aI98
aI465
aI35
aI153
aI134
aI117
aI15
aI206
asVhttps://www.reddit.com/r/yugioh/comments/13vhc3/xyz_monster_returning_to_extra_deck_the_xyz/
p1377
(lp1378
I69
aI298
aI140
aI15
aI145
aI121
aI191
aI91
aI160
aI104
aI69
aI46
aI13
aI42
aI25
aI91
aI187
aI36
aI119
aI278
aI373
aI85
aI99
aI18
aI16
aI20
aI8
asVhttps://www.reddit.com/r/ftm/comments/4le9t5/double_design_air_max_binder_review_hint_its/
p1379
(lp1380
I1766
aI93
aI104
aI934
aI370
aI770
aI287
aI16
aI200
aI67
aI40
asVhttps://www.reddit.com/r/buildapc/comments/tiqqc/help_blue_spinning_ring_of_death/
p1381
(lp1382
I499
aI57
aI31
aI203
aI24
aI4
aI32
asVhttps://www.reddit.com/r/swtor/comments/143bq3/thinking_of_ways_for_f2p_to_get_around_the_credit/
p1383
(lp1384
I467
aI174
aI307
aI473
aI172
aI152
aI181
aI124
aI29
aI95
aI467
aI58
aI19
asVhttps://www.reddit.com/r/Pathfinder_RPG/comments/395p36/how_would_you_handle_this_situation/
p1385
(lp1386
I427
aI527
aI50
aI264
aI269
aI244
aI577
aI50
aI40
aI588
aI109
aI461
asVhttps://www.reddit.com/r/exalted/comments/4lpa0a/help_with_my_1st_chronicle_how_to_recover_a_soul/
p1387
(lp1388
I2628
aI837
aI1333
aI793
aI957
aI1919
aI915
aI699
aI1195
aI505
aI834
aI1165
aI377
aI670
aI1323
aI898
aI857
aI260
aI597
aI1077
aI312
aI740
aI409
aI346
aI978
aI1143
aI636
aI1241
aI189
aI278
aI943
aI283
aI1238
aI218
aI46
aI995
aI2052
aI2739
aI1241
aI1393
asVhttps://www.reddit.com/r/skyrim/comments/1hlmz8/ive_just_discovered_an_interesting_secret_dark/
p1389
(lp1390
I9
aI93
aI149
aI70
aI13
aI20
aI29
aI18
aI13
aI50
asVhttps://www.reddit.com/r/offmychest/comments/17j1h7/holy_head_desk_batman_never_try_to_offer_a_i_use/
p1391
(lp1392
I665
aI62
aI168
aI742
aI689
aI743
aI901
asVhttps://www.reddit.com/r/AskReddit/comments/2xmeqy/serious_reddit_if_you_inherited_15_million/
p1393
(lp1394
I49
aI278
aI123
aI238
aI315
aI630
aI102
aI28
aI97
aI157
aI164
aI70
aI91
aI51
aI27
aI111
aI96
aI289
aI59
aI216
aI130
aI157
aI130
aI76
aI42
aI31
aI45
aI225
aI113
aI60
aI79
aI46
asVhttps://www.reddit.com/r/Libertarian/comments/3y0m9v/what_is_the_libertarian_response_to_statists_who/
p1395
(lp1396
I0
aI492
aI946
aI188
aI53
aI115
aI19
aI56
aI121
aI455
aI245
aI485
aI611
aI458
aI481
aI1932
asVhttps://www.reddit.com/r/photography/comments/1y7nl6/speed_booster_comparison_ef_lenses_on_panasonic/
p1397
(lp1398
I954
aI341
aI22
aI354
aI129
aI60
aI268
aI217
aI246
aI143
aI189
aI642
aI32
asVhttps://www.reddit.com/r/tf2/comments/107x2h/unboxed_the_pyro_pack_and_the_spy_hat_then_i/
p1399
(lp1400
I0
aI44
aI33
aI72
aI94
aI32
aI169
aI149
aI42
aI301
aI163
aI185
aI61
aI91
aI34
aI257
aI75
aI60
aI121
aI23
aI44
aI98
aI45
aI10
aI22
asVhttps://www.reddit.com/r/trees/comments/lyoaq/abuse/
p1401
(lp1402
I430
aI84
aI320
aI155
aI107
aI45
aI214
aI105
aI53
aI87
aI71
aI99
aI120
aI84
aI94
aI100
aI99
aI29
aI89
aI23
asVhttps://www.reddit.com/r/mflb/comments/ritov/best_batteries_to_use/
p1403
(lp1404
I355
aI48
aI125
aI35
aI110
aI3
aI480
aI31
aI20
aI50
asVhttps://www.reddit.com/r/collapse/comments/1jnf61/hello_rcollapse_id_like_to_inform_my_family_of/
p1405
(lp1406
I662
aI711
aI9
aI968
aI253
aI2587
aI519
aI462
aI72
aI51
aI177
aI216
aI41
aI228
aI640
aI664
aI823
aI655
aI292
aI155
aI1984
aI268
aI187
aI251
aI90
aI230
aI218
aI801
aI82
aI254
aI277
aI205
aI481
aI190
aI405
aI168
asVhttps://www.reddit.com/r/starcraft/comments/1e3k01/hasuobs_wins_eps_over_socke_31/
p1407
(lp1408
I65
aI474
aI74
aI34
aI389
aI35
aI31
aI132
aI26
aI187
aI376
aI123
aI812
aI208
aI362
asVhttps://www.reddit.com/r/buildapc/comments/35e723/build_help_cant_decide_if_i_want_to_crossfire/
p1409
(lp1410
I1036
aI503
aI91
aI92
aI157
aI456
aI10
aI78
aI71
aI17
aI175
aI166
aI277
aI48
aI167
aI56
aI97
aI81
aI45
aI57
aI14
aI49
asVhttps://www.reddit.com/r/conspiro/comments/1njasm/many_japanese_people_suffering_from_recurring/
p1411
(lp1412
I539
aI195
aI211
aI322
aI349
aI506
aI187
aI185
aI320
aI242
aI238
aI349
aI458
aI235
aI209
aI220
aI301
aI213
aI272
aI191
aI162
aI188
aI205
aI200
aI589
aI159
aI174
aI1350
aI167
asVhttps://www.reddit.com/r/Terraria/comments/2kbxue/mimic_farm/
p1413
(lp1414
I274
aI153
aI76
aI129
aI185
aI551
aI151
aI214
aI346
aI478
asVhttps://www.reddit.com/r/jailbreak/comments/2nn3dv/is_anyone_working_on_a_bluetooth_fix_for_ios_81/
p1415
(lp1416
I0
aI29
aI350
aI148
aI78
aI234
aI387
aI323
asVhttps://www.reddit.com/r/MechanicAdvice/comments/33lkql/08_cobalt_it_cranks_but_doesnt_start/
p1417
(lp1418
I423
aI115
aI263
aI64
aI97
aI79
aI302
aI106
aI93
aI138
aI96
aI121
aI219
aI348
aI215
asVhttps://www.reddit.com/r/zenfone2/comments/4flbb6/my_screen_went_black/
p1419
(lp1420
I151
aI18
aI3
aI131
aI88
aI8
asVhttps://www.reddit.com/r/sportsbook/comments/2pcsf7/bitcoins_influence_on_online_gambling_and_why/
p1421
(lp1422
I340
aI88
aI186
aI247
aI1013
aI109
aI236
aI427
aI77
aI70
aI625
aI218
aI54
aI157
aI334
aI46
aI78
aI57
aI35
aI306
aI33
asVhttps://www.reddit.com/r/buildapc/comments/44txvy/troubleshooting_new_pc_isnt_making_use_of_full/
p1423
(lp1424
I208
aI50
aI55
aI278
aI119
aI147
aI91
aI415
aI89
aI219
aI171
aI425
aI191
aI48
asVhttps://www.reddit.com/r/bloodborne/comments/4c03vs/3_endings_3_playthroughs_1_platinum/
p1425
(lp1426
I556
aI111
aI152
aI362
aI131
aI28
aI67
aI125
aI34
aI132
aI126
aI159
asVhttps://www.reddit.com/r/guns/comments/14y644/i_picked_a_terrible_time_to_get_into_guns/
p1427
(lp1428
I373
aI239
aI318
aI239
aI103
aI24
aI274
aI341
aI67
aI61
aI187
aI220
aI239
aI99
aI70
aI25
aI46
aI160
aI77
aI18
aI44
aI62
aI102
aI86
aI9
aI13
aI14
aI279
aI240
aI203
aI55
aI88
aI319
aI13
aI115
aI64
aI9
aI695
aI83
aI75
asVhttps://www.reddit.com/r/buffy/comments/199fzg/is_it_reasonable_to_think_that_cordelia_in_buffy/
p1429
(lp1430
I328
aI981
aI309
aI652
aI1298
aI315
asVhttps://www.reddit.com/r/wma/comments/278ptr/a_new_and_better_definition_of_indes/
p1431
(lp1432
I242
aI1233
aI81
aI288
aI1591
aI146
aI680
aI592
aI524
aI92
aI192
aI147
aI485
aI248
aI262
aI226
aI135
aI1457
aI254
aI1771
aI423
aI251
aI1031
aI384
aI455
aI4178
aI568
asVhttps://www.reddit.com/r/askseddit/comments/17aost/advice_on_postokc_exchange_on_fb_her_recent/
p1433
(lp1434
I1044
aI76
aI409
aI341
aI1016
aI170
aI295
asVhttps://www.reddit.com/r/hockeycirclejerk/comments/1i42ia/kovalchuk_signs_8_year_extension_with_devils/
p1435
(lp1436
I0
aI8
aI69
aI15
aI84
aI16
aI48
aI23
aI27
asVhttps://www.reddit.com/r/Warthunder/comments/4hpcuk/best_currency_to_get_eagles/
p1437
(lp1438
I283
aI50
aI383
aI138
aI494
aI113
aI225
asVhttps://www.reddit.com/r/startrek/comments/23wnmk/does_anyone_know_why_tng_changed_command_uniform/
p1439
(lp1440
I0
aI97
aI555
aI126
aI861
aI187
aI23
aI157
aI264
aI568
aI43
aI11
aI387
aI860
aI311
aI811
aI445
asVhttps://www.reddit.com/r/DIYBeauty/comments/4cm2md/lets_talk_ingredients_is_there_one_magical/
p1441
(lp1442
I678
aI1002
aI76
aI233
aI734
aI29
aI48
aI29
aI700
aI258
aI159
aI412
aI110
aI250
aI107
aI181
aI267
aI384
asVhttps://www.reddit.com/r/mac/comments/20z4xo/is_it_just_me_or_is_my_rmbp_15_2013_really_slow/
p1443
(lp1444
I382
aI250
aI426
aI94
aI333
aI40
aI75
aI88
aI51
aI116
aI165
aI106
aI142
asVhttps://www.reddit.com/r/teslore/comments/q54bg/do_daedric_prince_have_genders/
p1445
(lp1446
I46
aI463
aI100
aI503
aI430
aI79
aI227
aI26
aI92
aI665
aI14
aI48
aI45
asVhttps://www.reddit.com/r/cheatatmathhomework/comments/3dsrs9/local_extrema_calculus/
p1447
(lp1448
I237
aI339
aI44
aI133
aI335
aI161
asVhttps://www.reddit.com/r/bjj/comments/40xuzt/tutorial_thursday_stepover_kneebars_from_the/
p1449
(lp1450
I191
aI326
aI55
aI82
aI75
aI306
aI183
aI41
aI48
aI26
aI23
aI94
aI370
aI42
aI215
aI334
aI52
asVhttps://www.reddit.com/r/electronic_cigarette/comments/4h5vg6/shout_out_to_bx_vapor_really_impressed/
p1451
(lp1452
I430
aI36
aI167
aI82
aI148
aI98
aI74
aI54
aI255
asVhttps://www.reddit.com/r/MensRights/comments/xlu54/what_brought_you_to_the_mrm/
p1453
(lp1454
I361
aI779
aI472
aI1071
aI763
aI990
aI87
aI266
aI522
aI326
aI201
aI129
aI627
aI22
aI519
aI120
aI490
aI216
aI196
aI313
aI413
aI132
aI1712
aI200
aI729
aI546
aI195
aI294
aI39
aI6
aI698
aI75
aI224
aI163
aI233
aI48
aI35
asVhttps://www.reddit.com/r/doctorwho/comments/49nhn8/opinion_steven_moffat_he_cant_kill_characters/
p1455
(lp1456
I2772
aI1592
aI2401
aI519
aI88
aI39
aI985
aI919
aI1133
aI766
aI37
aI944
aI1615
aI990
aI569
aI1301
aI269
aI489
asVhttps://www.reddit.com/r/CoDCompetitive/comments/30826t/do_gunnar_glasses_or_similar_glasses_work/
p1457
(lp1458
I42
aI267
aI110
aI50
aI59
aI110
aI267
aI164
aI115
aI289
aI113
aI199
aI390
aI212
aI395
aI215
aI132
aI283
aI213
aI95
aI724
aI154
asVhttps://www.reddit.com/r/theydidthemath/comments/32gm58/request_if_every_multistory_building_in_the_world/
p1459
(lp1460
I0
aI2037
aI619
aI1025
aI191
aI952
asVhttps://www.reddit.com/r/pathofexile/comments/39y9m2/awakeningelemental_windripper_magic_find_what/
p1461
(lp1462
I837
aI308
aI256
aI628
aI524
aI158
aI142
aI541
aI161
asVhttps://www.reddit.com/r/AskReddit/comments/40ycv4/what_are_the_best_gilded_posts_in_reddit_nsfw/
p1463
(lp1464
I0
aI92
aI74
aI56
aI9
aI137
aI164
aI1400
aI45
aI69
aI43
asVhttps://www.reddit.com/r/manga/comments/1gr9a6/looking_for_info_on_highschool_of_the_dead/
p1465
(lp1466
I816
aI394
aI128
aI133
aI46
aI902
aI23
aI30
aI132
aI131
aI1609
aI72
aI436
aI38
asVhttps://www.reddit.com/r/heroesofthestorm/comments/365w0g/blizzard_please_dont_just_flatout_kill_the_li_li/
p1467
(lp1468
I813
aI162
aI27
aI759
aI128
aI56
aI516
aI98
aI167
aI20
aI121
aI138
aI106
aI494
aI205
aI153
aI103
aI300
aI254
aI78
aI362
aI132
aI84
aI546
aI45
aI103
aI278
aI155
aI245
aI208
aI152
aI157
asVhttps://www.reddit.com/r/eagles/comments/4ap0m2/would_you_take_a_risk_on_jaylon_smith/
p1469
(lp1470
I697
aI44
aI198
aI191
aI178
aI703
aI206
aI225
aI114
aI230
aI80
aI241
aI133
aI49
aI231
aI88
aI80
aI98
aI186
aI312
aI16
aI102
aI116
aI70
aI106
aI62
aI262
aI132
aI31
aI209
aI83
aI170
aI123
asVhttps://www.reddit.com/r/drums/comments/1fy2nw/i_dont_want_to_be_clueless_on_drum_specs/
p1471
(lp1472
I358
aI275
aI139
aI373
aI158
aI308
aI87
aI289
aI46
aI396
aI58
aI49
aI38
aI31
aI118
asVhttps://www.reddit.com/r/bangtan/comments/4g35ds/rapmons_twitter_video_what_color_is_his_hair/
p1473
(lp1474
I285
aI128
aI118
aI131
aI794
aI1456
aI69
aI327
aI104
asVhttps://www.reddit.com/r/iosgaming/comments/3gegj8/are_there_any_mmo_strategy_games_similar_to/
p1475
(lp1476
I124
aI80
aI356
aI432
aI40
aI257
aI78
aI995
aI277
aI264
asVhttps://www.reddit.com/r/fountainpens/comments/357sp8/anyone_know_frequency_of_twsbi_580_diamond_stock/
p1477
(lp1478
I366
aI170
aI69
aI14
aI194
aI139
aI98
aI70
aI165
asVhttps://www.reddit.com/r/araragi/comments/410by9/kizumonogatari_for_the_southeast/
p1479
(lp1480
I103
aI201
aI138
aI66
aI57
aI110
aI174
aI393
aI155
aI118
aI63
aI230
aI15
aI28
asVhttps://www.reddit.com/r/starwarscollecting/comments/4d3ikb/started_collecting_figurines/
p1481
(lp1482
I246
aI238
aI69
aI91
aI241
aI7
aI421
aI206
asVhttps://www.reddit.com/r/RocketLeague/comments/3crycf/is_it_a_huge_disadvantage_to_use_mousekeyboard/
p1483
(lp1484
I166
aI21
aI48
aI237
aI605
aI141
aI52
aI140
aI107
aI55
aI25
aI102
aI64
aI42
aI301
aI30
aI16
asVhttps://www.reddit.com/r/photography/comments/q6jx4/hdr/
p1485
(lp1486
I486
aI258
aI757
aI76
aI53
aI126
aI16
aI281
aI52
aI24
aI363
aI441
aI85
aI72
aI359
asVhttps://www.reddit.com/r/hwatch/comments/3vu2u8/battery_problems_with_new_watch/
p1487
(lp1488
I9
aI847
aI443
aI288
aI201
aI120
aI9
aI167
aI116
aI221
aI425
asVhttps://www.reddit.com/r/Malazan/comments/3d8zh9/done/
p1489
(lp1490
I287
aI27
aI238
aI148
aI172
aI115
aI35
aI91
aI41
aI314
aI184
aI251
aI71
aI43
aI41
asVhttps://www.reddit.com/r/web_design/comments/1dd12c/other_than_htmlcss_what_else_is_necessary_for_a/
p1491
(lp1492
I190
aI358
aI1264
aI1565
aI86
aI559
aI250
aI2031
aI147
aI117
aI42
aI85
aI360
aI233
asVhttps://www.reddit.com/r/kvariety/comments/10sh2l/where_are_you_afphreak_youre_our_only_mod_and_its/
p1493
(lp1494
I157
aI328
aI183
aI375
aI729
aI148
aI52
asVhttps://www.reddit.com/r/vintageaudio/comments/18uxw0/vintage_tube_amp_advice/
p1495
(lp1496
I9
aI1276
aI384
aI395
aI409
aI140
aI130
aI908
aI42
aI239
aI303
aI129
aI156
asVhttps://www.reddit.com/r/Drugs/comments/193lkh/25cnbome_life_of_pi_trip_report/
p1497
(lp1498
I7570
aI107
aI10
aI39
aI242
aI52
aI127
aI160
asVhttps://www.reddit.com/r/leagueoflegends/comments/2ilytz/i_hit_gold_in_solo_que_and_now_the_ranked_is/
p1499
(lp1500
I1434
aI251
aI95
aI89
aI73
aI29
aI730
aI972
aI96
aI28
aI36
aI115
aI340
aI111
aI48
aI134
aI77
aI78
aI79
aI191
aI4
aI368
aI155
aI204
aI126
aI59
aI305
aI54
aI97
asVhttps://www.reddit.com/r/arduino/comments/2mw9qi/newb_question_arduino_coding_languages/
p1501
(lp1502
I771
aI424
aI101
aI251
aI263
aI162
aI36
aI87
aI194
aI120
aI152
asVhttps://www.reddit.com/r/asktransgender/comments/1sq372/dysphoria_possibly_triggering/
p1503
(lp1504
I1266
aI63
aI83
aI402
aI262
aI95
aI92
aI118
aI136
aI117
aI279
aI150
aI129
aI51
aI296
asVhttps://www.reddit.com/r/hearthstone/comments/3bv2m1/was_playing_the_brawl_as_a_priest/
p1505
(lp1506
I94
aI60
aI75
aI74
aI56
aI85
aI16
asVhttps://www.reddit.com/r/tf2/comments/1kqmps/if_you_spend_money_lets_say_10_dollarseuros_on/
p1507
(lp1508
I0
aI129
aI133
aI182
aI96
aI77
aI471
aI163
aI105
aI98
aI129
aI172
aI158
aI18
aI109
asVhttps://www.reddit.com/r/firefox/comments/4jbs82/defaulting_to_an_old_profile_in_firefox_developer/
p1509
(lp1510
I1299
aI9
aI177
aI561
aI71
aI9
aI462
aI9
aI95
asVhttps://www.reddit.com/r/AskReddit/comments/3v510m/what_is_the_strangest_or_most_amusing_reason/
p1511
(lp1512
I0
aI216
aI212
aI1364
aI218
aI126
aI35
aI95
aI176
aI111
aI52
aI293
aI151
aI122
aI7
aI277
aI39
aI327
aI52
aI66
aI22
aI42
aI262
aI17
aI212
aI56
aI88
aI101
aI88
aI187
asVhttps://www.reddit.com/r/Pokemongiveaway/comments/3yo0p7/lf_ha_chikorita_and_pachirisu/
p1513
(lp1514
I45
aI51
aI17
aI19
aI42
aI17
aI29
aI7
asVhttps://www.reddit.com/r/schizoaffective/comments/4e3je2/hospitalization/
p1515
(lp1516
I606
aI183
aI63
aI78
aI181
aI182
aI56
aI145
aI104
aI443
aI73
aI35
aI77
aI87
aI12
aI74
aI342
aI151
aI110
aI36
aI118
aI92
aI21
aI94
aI43
aI25
aI45
asVhttps://www.reddit.com/r/buildapc/comments/lxm3y/first_build_making_a_midrange_pc_for_a_non_gamer/
p1517
(lp1518
I94
aI228
aI50
aI203
aI507
aI121
aI41
aI178
aI208
asVhttps://www.reddit.com/r/rpg/comments/f1woc/pathfinder_help_needed_building_a_character_that/
p1519
(lp1520
I290
aI2315
aI1520
aI489
aI230
aI26
aI1212
aI761
aI3
aI359
aI1166
aI60
aI484
aI1463
aI182
aI247
aI126
aI1153
aI10
aI1345
aI396
aI61
aI98
aI32
aI291
aI3
aI135
aI39
asVhttps://www.reddit.com/r/linux/comments/femwk/modifying_linux_default_sort_order_to_honor/
p1521
(lp1522
I661
aI290
aI116
aI107
aI159
aI22
aI53
aI49
aI135
aI49
aI115
aI57
asVhttps://www.reddit.com/r/SWORDS/comments/28i632/i_want_to_learn_more/
p1523
(lp1524
I238
aI896
aI111
aI503
aI103
aI75
asVhttps://www.reddit.com/r/SuicideWatch/comments/1x0opf/i_fucked_up/
p1525
(lp1526
I781
aI1150
aI494
aI2421
aI233
aI714
aI41
aI123
asVhttps://www.reddit.com/r/Mabinogi/comments/3hsky2/which_would_be_a_better_solo_mage_alchemist_human/
p1527
(lp1528
I175
aI55
aI116
aI226
aI104
aI44
aI186
aI340
aI5
aI89
aI27
aI266
asVhttps://www.reddit.com/r/fixit/comments/4k5hqg/how_can_i_remove_the_debris_off_my_pool_cover/
p1529
(lp1530
I654
aI304
aI360
aI76
aI457
aI196
aI410
aI78
aI26
aI55
aI110
aI86
aI170
aI30
aI181
aI154
aI206
aI586
aI27
asVhttps://www.reddit.com/r/askscience/comments/1dk37g/is_spacetime_discrete_or_continuous/
p1531
(lp1532
I324
aI176
aI343
aI570
aI134
aI187
aI310
aI226
aI12
asVhttps://www.reddit.com/r/speedrun/comments/3fr12j/sgdq_2015_save_vs_kill_the_animals_by_the_numbers/
p1533
(lp1534
I1276
aI83
aI175
aI34
aI702
aI301
aI249
aI112
aI570
aI73
aI315
aI70
aI91
aI354
aI213
aI353
aI161
aI252
aI121
aI83
aI56
aI89
aI23
aI106
aI72
aI253
aI380
aI143
aI107
aI76
aI115
aI571
aI45
aI56
aI215
aI73
aI139
aI206
aI138
aI348
asVhttps://www.reddit.com/r/AskReddit/comments/22hvqh/urban_explorers_what_is_the_coolestcreepiestmost/
p1535
(lp1536
I0
aI854
aI179
aI83
aI11
aI26
aI325
aI60
aI402
aI50
aI65
aI39
aI230
aI64
aI42
aI44
aI106
aI4
asVhttps://www.reddit.com/r/geology/comments/1tkbyx/looking_through_great_uncles_rock_collection_and/
p1537
(lp1538
I696
aI426
aI45
aI191
aI111
aI180
aI21
aI68
aI364
aI187
aI150
aI39
aI55
aI232
aI58
aI175
aI283
aI317
aI29
asVhttps://www.reddit.com/r/recipes/comments/p02hw/chinatown_baked_bao_dough/
p1539
(lp1540
I475
aI204
aI267
aI21
aI19
aI87
aI42
aI43
aI159
aI1475
aI32
asVhttps://www.reddit.com/r/DarkSouls2/comments/20m9of/question_magic_hands_d_possible_item_spoilers/
p1541
(lp1542
I60
aI225
aI50
aI49
aI106
aI66
aI216
aI11
aI61
aI29
aI206
asVhttps://www.reddit.com/r/techsupport/comments/1bxeoc/looking_for_allinone_that_does_not_suck_for_small/
p1543
(lp1544
I200
aI251
aI58
aI55
aI32
aI3
asVhttps://www.reddit.com/r/FeMRADebates/comments/2p57z0/concerning_male_empathy_and_torture_if_guantanamo/
p1545
(lp1546
I88
aI411
aI48
aI177
aI334
aI310
aI88
aI541
aI243
aI450
aI1093
aI167
aI126
aI126
aI307
aI409
aI202
aI335
aI124
aI302
aI347
aI349
aI943
aI72
aI829
aI498
aI231
aI49
aI364
asVhttps://www.reddit.com/r/tampa/comments/2rczbm/bubba_is_back_bitches_6am_on_987_fm_anyone_care/
p1547
(lp1548
I120
aI1607
aI47
aI221
aI41
aI87
aI45
aI92
aI132
aI176
aI68
aI124
aI405
aI150
aI323
aI31
aI435
aI385
aI476
asVhttps://www.reddit.com/r/SkincareAddiction/comments/2g8a3o/how_do_i_get_rid_of_these_skin_colored_bumps/
p1549
(lp1550
I2190
aI325
aI715
aI172
aI403
aI50
aI47
asVhttps://www.reddit.com/r/vapor/comments/2p9tee/burnt_juice_in_drip_tip/
p1551
(lp1552
I180
aI167
aI67
aI65
aI248
aI319
aI165
aI5
asVhttps://www.reddit.com/r/whowouldwin/comments/2yglcu/sentry_vs_swamp_thing/
p1553
(lp1554
I414
aI436
aI424
aI115
aI364
aI146
aI58
aI103
aI141
aI8
aI49
aI78
aI200
aI171
aI261
aI101
aI128
asVhttps://www.reddit.com/r/leagueoflegends/comments/1oqqxb/drops_in_fps/
p1555
(lp1556
I741
aI182
aI12
aI96
aI75
aI34
aI32
aI141
aI36
aI17
aI18
aI64
aI120
asVhttps://www.reddit.com/r/startups/comments/3g1icn/doing_business_in_puerto_rico/
p1557
(lp1558
I466
aI234
aI248
aI330
aI45
aI234
aI429
aI49
aI113
asVhttps://www.reddit.com/r/wow/comments/2u0bto/help_me_figure_out_why_i_keep_disconnecting_from/
p1559
(lp1560
I1668
aI1402
aI180
aI1145
aI212
aI371
aI113
aI391
aI1262
aI693
aI193
aI450
aI214
aI696
aI100
aI65
asVhttps://www.reddit.com/r/DotA2/comments/3z6ska/now_that_kappa_crusaders_took_their_first_victory/
p1561
(lp1562
I33
aI46
aI25
aI140
aI306
aI170
aI39
aI60
aI19
aI30
aI8
aI27
aI38
aI49
aI97
aI33
aI30
aI32
aI54
aI5
aI43
aI40
aI7
aI8
aI16
aI12
asVhttps://www.reddit.com/r/androidapps/comments/2kzq7v/help_with_emojiswiftkey_app_specifically_no/
p1563
(lp1564
I423
aI80
aI341
aI345
aI49
aI581
aI197
aI254
asVhttps://www.reddit.com/r/energy_work/comments/16hk05/is_this_my_energy_killing_the_electronics_or/
p1565
(lp1566
I9
aI1562
aI253
aI251
aI122
aI558
aI129
aI301
aI1278
aI133
aI28
aI13
aI67
aI16
aI222
aI2729
aI108
aI20
aI101
aI988
aI21
aI22
aI49
aI848
aI92
aI40
aI82
aI43
aI11
aI275
aI46
aI138
aI105
asVhttps://www.reddit.com/r/apple/comments/9izr5/in_case_like_me_you_never_upgraded_your_ipod/
p1567
(lp1568
I3
aI43
aI80
aI43
aI176
aI101
aI107
aI15
aI114
aI93
aI32
aI7
asVhttps://www.reddit.com/r/tressless/comments/431gxj/what_do_you_guys_think_am_i_thinning_on_top/
p1569
(lp1570
I0
aI24
aI24
aI15
aI79
aI20
aI38
aI243
aI93
asVhttps://www.reddit.com/r/kodi/comments/4d6eep/multiple_files_for_a_single_title/
p1571
(lp1572
I1077
aI419
aI131
aI240
aI390
aI341
aI48
aI135
asVhttps://www.reddit.com/r/Standup/comments/1czcju/what_seems_to_be_an_effective_way_to_write/
p1573
(lp1574
I353
aI2273
aI822
aI639
aI586
aI7
aI4
aI7
aI47
aI37
aI246
aI85
aI33
aI84
aI2558
aI545
aI283
aI174
aI274
aI37
aI160
asVhttps://www.reddit.com/r/eagles/comments/2qr3nz/based_on_the_schedule/
p1575
(lp1576
I175
aI9
aI80
aI183
aI4
aI3
aI48
aI49
aI81
aI43
aI64
aI152
aI383
aI8
aI218
aI86
aI85
aI80
aI47
aI49
aI98
aI124
aI116
asVhttps://www.reddit.com/r/byu/comments/1wynv3/a_question_from_the_bunyion/
p1577
(lp1578
I566
aI1045
aI85
aI311
aI232
aI67
aI165
aI193
aI7
aI68
aI25
aI1374
aI218
aI33
aI46
aI105
aI295
aI56
asVhttps://www.reddit.com/r/Crouton/comments/3d4qdo/comprehensive_guide_to_linux_on_acer_c720_for/
p1579
(lp1580
I800
aI681
aI729
aI45
aI272
aI167
aI198
aI145
aI499
aI770
aI805
aI276
asVhttps://www.reddit.com/r/electricians/comments/3hiowz/lighthing_fixture/
p1581
(lp1582
I404
aI280
aI177
aI68
aI134
aI104
aI396
aI109
aI33
aI42
aI273
asVhttps://www.reddit.com/r/cats/comments/4idnth/i_see_a_orange_and_white_cat_roaming_through_my/
p1583
(lp1584
I556
aI285
aI313
aI215
aI194
aI9
aI437
aI11
aI164
aI14
aI217
aI86
aI286
aI703
asVhttps://www.reddit.com/r/AskReddit/comments/2zcqa6/what_is_something_that_is_relatively_simple_to/
p1585
(lp1586
I0
aI86
aI98
aI298
aI215
aI112
aI83
aI238
aI65
aI44
aI51
aI286
aI81
aI155
asVhttps://www.reddit.com/r/huntersbell/comments/3f2zs2/cddefiled130/
p1587
(lp1588
I158
aI13
aI9
aI17
aI18
aI94
aI47
aI73
aI48
aI99
aI35
aI21
aI89
aI73
aI115
aI18
aI68
asVhttps://www.reddit.com/r/pokemon/comments/3xz40u/need_help_creating_a_team_to_face_my_friend/
p1589
(lp1590
I964
aI62
aI432
aI493
aI136
aI94
aI128
aI404
aI256
aI7
aI118
aI111
aI384
aI304
aI414
aI75
aI85
aI46
aI190
aI161
aI112
aI96
aI168
aI347
aI486
aI28
aI231
aI138
aI90
aI83
aI18
aI233
aI120
aI201
aI299
aI577
aI171
aI120
aI550
aI231
asVhttps://www.reddit.com/r/demonssouls/comments/1rio39/having_trouble_getting_plat_due_to_the_world/
p1591
(lp1592
I283
aI120
aI125
aI145
aI142
aI36
aI704
aI31
asVhttps://www.reddit.com/r/singing/comments/4dnhub/how_to_get_volume_control/
p1593
(lp1594
I319
aI954
aI39
aI1484
aI401
aI1032
aI800
aI173
aI380
aI121
aI253
aI58
asVhttps://www.reddit.com/r/lfg/comments/2hsjag/online_dd_2e_need_dm_or_player_for_ist_4_to_1130/
p1595
(lp1596
I138
aI25
aI12
aI47
aI15
aI7
asVhttps://www.reddit.com/r/smallbusiness/comments/29imxh/i_have_an_idea_for_a_niche_bookstore_and_i_have/
p1597
(lp1598
I745
aI311
aI153
aI250
aI958
aI201
aI332
aI376
aI94
aI116
aI740
aI1997
aI180
aI178
aI24
aI1051
aI318
aI36
aI719
aI353
aI450
aI423
aI271
aI377
aI143
aI29
asVhttps://www.reddit.com/r/discododgeball/comments/34wcmk/hoops_league_fridays_8pm_et/
p1599
(lp1600
I9
aI769
aI372
aI222
aI110
aI94
aI252
aI132
asVhttps://www.reddit.com/r/AskReddit/comments/152xvo/where_can_i_find_really_good_porn_gifs/
p1601
(lp1602
I278
aI162
aI13
aI16
aI29
aI25
aI6
aI151
aI116
aI12
aI67
aI27
aI75
asVhttps://www.reddit.com/r/oculus/comments/1jez77/mmorpg_addicts_a_future_rift_problem/
p1603
(lp1604
I457
aI135
aI254
aI613
aI317
aI141
aI149
aI1002
aI98
aI247
aI167
aI76
aI59
aI79
aI338
aI20
aI173
aI32
aI367
aI28
aI109
aI44
asVhttps://www.reddit.com/r/phoenix/comments/4elkew/rphoenix_daily_discussion_thread_april_13_2016/
p1605
(lp1606
I188
aI69
aI273
aI59
aI81
aI93
aI99
aI69
aI247
aI58
aI11
aI67
aI168
aI1325
aI417
aI64
aI172
aI89
aI30
aI171
aI65
aI372
aI75
aI61
aI37
aI50
aI186
aI217
aI73
aI23
aI37
aI31
aI255
asVhttps://www.reddit.com/r/huntersbell/comments/326ure/ng135chalice_dungeonsskaloola/
p1607
(lp1608
I183
aI41
aI24
aI101
aI247
aI62
aI26
aI273
aI40
aI42
aI99
aI25
aI14
aI112
aI75
aI24
asVhttps://www.reddit.com/r/gta5/comments/4fp355/anyone_know_of_a_mod_that_slows_down_the_walking/
p1609
(lp1610
sVhttps://www.reddit.com/r/techsupport/comments/zby2d/my_roku_device_suddenly_stopped_connecting_to_my/
p1611
(lp1612
I828
aI135
aI372
aI259
aI415
aI139
aI220
aI423
aI93
aI114
aI639
aI95
aI421
aI277
aI93
aI190
aI167
aI367
aI305
aI84
aI123
aI200
aI247
aI168
aI150
aI365
aI143
aI57
aI52
aI81
aI93
aI36
aI220
aI87
aI277
aI53
aI148
aI90
aI263
aI242
asVhttps://www.reddit.com/r/ClickerHeroes/comments/2ehcw9/skillz_what_is_your_favorite_order_of_skills/
p1613
(lp1614
I161
aI657
aI17
aI1613
aI229
aI132
aI129
aI774
aI20
aI170
aI614
aI207
aI271
aI403
aI199
asVhttps://www.reddit.com/r/leagueoflegends/comments/2zy4ko/ability_to_break_an_item_and_sell_a_part_of_it/
p1615
(lp1616
I350
aI124
aI66
aI23
aI72
aI99
aI466
aI66
asVhttps://www.reddit.com/r/techsupport/comments/37vo6i/recording_games_produces_unreadable_avi_files/
p1617
(lp1618
I808
aI78
aI169
aI185
aI141
aI321
aI119
aI145
aI386
aI364
aI110
aI66
aI141
aI136
asVhttps://www.reddit.com/r/diablo3/comments/2g45p4/finally_getting_d3_for_my_birthday_this_weekend/
p1619
(lp1620
I325
aI32
aI19
aI76
aI40
aI14
aI82
aI139
aI92
asVhttps://www.reddit.com/r/csmapmakers/comments/2gk86c/ive_hit_a_wall_with_detailing_my_map_de_fruit/
p1621
(lp1622
I512
aI725
aI593
aI100
aI73
aI233
aI4
aI61
aI31
aI61
aI17
aI24
asVhttps://www.reddit.com/r/Cleveland/comments/4hbbh2/goodtime_iii_vs_nautica_queen/
p1623
(lp1624
I198
aI1513
aI206
aI75
aI60
aI60
aI111
aI172
asVhttps://www.reddit.com/r/rpg/comments/3b7zgn/ludology_are_there_relevant_fundamental_texts/
p1625
(lp1626
I431
aI335
aI1347
aI844
aI276
aI83
aI823
aI144
aI213
aI164
aI56
asVhttps://www.reddit.com/r/evedreddit/comments/195f7z/im_looking_to_join_but_i_want_to_be_prepared/
p1627
(lp1628
I558
aI678
aI845
aI221
aI217
aI436
aI721
aI981
aI78
aI75
asVhttps://www.reddit.com/r/40kLore/comments/3au23g/a_human_in_taus_clothing/
p1629
(lp1630
I414
aI941
aI102
aI230
aI43
aI24
aI174
aI233
aI27
aI131
aI43
aI42
aI106
aI382
aI106
asVhttps://www.reddit.com/r/guns/comments/4aklyx/shiloh_sharps_1874_inherited_it_from_my/
p1631
(lp1632
I1339
aI449
aI86
aI51
aI187
aI192
aI307
aI32
aI69
aI38
aI193
aI3
aI262
aI24
aI258
aI541
asVhttps://www.reddit.com/r/BurningMan/comments/2e30uw/yet_another_will_call_question_not_answered/
p1633
(lp1634
I632
aI180
aI1321
aI152
aI167
aI60
aI114
aI87
asVhttps://www.reddit.com/r/Warframe/comments/4c5que/best_endgame_warframe/
p1635
(lp1636
I60
aI1814
aI245
aI16
aI255
aI269
aI46
aI218
aI7
aI480
aI450
aI237
aI9
aI98
aI17
aI108
aI82
aI326
aI49
aI250
aI67
aI60
aI23
aI77
aI150
aI254
aI482
aI369
aI391
asVhttps://www.reddit.com/r/rocksmith/comments/2z9q4r/rocksmith_really_works_heres_where_im_at_after_a/
p1637
(lp1638
I0
aI136
aI42
aI254
aI105
aI128
aI1345
aI250
aI367
aI163
aI140
aI228
aI92
aI44
aI204
aI81
aI71
aI95
aI152
aI189
aI62
asVhttps://www.reddit.com/r/oaklandraiders/comments/311ftm/what_do_you_guys_think_about_good_guys_new_look/
p1639
(lp1640
I479
aI100
aI65
aI360
aI19
aI766
aI52
aI281
aI178
aI231
aI23
aI57
aI62
aI386
aI99
aI74
aI237
aI23
aI181
aI95
asVhttps://www.reddit.com/r/dayz/comments/1vp8b6/should_i_get_the_dayz_sa_or_buy_arma_ii_and_get/
p1641
(lp1642
I0
aI5
aI118
aI2
aI136
aI128
aI193
aI59
aI198
aI95
aI84
aI115
aI68
asVhttps://www.reddit.com/r/WTF/comments/1f5j6q/found_this_on_the_windshield_of_ever_car_in_our/
p1643
(lp1644
I0
aI54
aI209
aI378
aI25
aI432
aI179
aI845
aI237
aI47
aI222
aI70
aI184
aI65
aI127
aI663
aI192
aI810
aI18
aI30
aI242
aI175
aI577
aI50
aI37
aI116
aI87
aI98
aI111
aI167
aI70
aI42
aI49
aI92
aI56
aI112
aI72
aI39
aI23
aI98
asVhttps://www.reddit.com/r/hockeyplayers/comments/1k4ksi/screening_the_goalie/
p1645
(lp1646
I1177
aI1340
aI278
aI856
aI1801
aI114
aI451
aI1574
aI181
aI99
aI47
aI264
aI98
aI587
aI370
aI325
aI370
aI90
aI283
aI30
aI14
aI96
aI22
aI13
aI233
asVhttps://www.reddit.com/r/Nexus5/comments/1uf55c/stuck_between_cases/
p1647
(lp1648
I1063
aI152
aI148
aI227
aI150
aI630
aI83
aI140
aI23
aI95
aI192
aI51
aI148
aI35
aI570
aI94
aI146
asVhttps://www.reddit.com/r/asheville/comments/2c748d/what_is_an_upper_echelon_consignment_store_in/
p1649
(lp1650
I0
aI18
aI118
aI56
aI1
aI177
aI332
aI213
aI294
aI159
aI107
aI77
aI222
aI105
aI26
asVhttps://www.reddit.com/r/legaladvice/comments/1riqzr/bought_2000_worth_of_fake_gold/
p1651
(lp1652
I583
aI264
aI80
aI63
aI373
aI297
aI167
aI491
aI150
aI29
aI155
asVhttps://www.reddit.com/r/jobs/comments/23qq5y/do_interviewers_ask_for_references_if_they_arent/
p1653
(lp1654
I965
aI485
aI463
aI131
aI401
aI189
aI24
asVhttps://www.reddit.com/r/MinionHate/comments/3j4zip/it_finally_fucking_happened_to_me_god_damn_it/
p1655
(lp1656
I0
aI124
aI49
aI103
aI35
aI37
aI77
aI52
aI117
aI301
aI90
aI49
aI4
aI8
aI104
aI1
aI12
aI15
aI95
aI36
aI102
aI12
aI330
aI2
aI20
aI19
aI70
aI19
aI21
aI6
aI127
aI200
aI29
aI12
aI797
asVhttps://www.reddit.com/r/zen/comments/2rjq21/science_and_human_beings/
p1657
(lp1658
I3310
aI76
aI66
aI441
aI186
aI90
aI1952
aI43
aI72
aI238
aI47
aI164
aI18
aI178
aI144
aI2079
aI122
aI286
aI98
aI797
aI1737
aI72
aI48
aI102
aI706
aI801
aI1474
aI91
aI4
aI119
aI2053
aI58
aI89
aI47
aI39
aI40
aI399
aI101
aI410
aI101
aI855
asVhttps://www.reddit.com/r/batonrouge/comments/3bxcna/moving_to_br_soon_whats_the_area_like/
p1659
(lp1660
I612
aI231
aI18
aI262
aI31
aI1061
aI219
aI121
aI168
aI190
aI404
aI208
aI787
aI111
aI251
aI69
aI51
aI60
aI435
aI151
aI12
aI116
aI236
aI89
aI23
aI42
aI57
aI132
aI246
aI116
aI195
aI260
aI420
aI136
aI732
aI224
aI170
aI2
aI60
asVhttps://www.reddit.com/r/androiddev/comments/34uehq/is_there_a_way_to_disable_the_subreddit_styles/
p1661
(lp1662
I217
aI253
aI1066
aI208
aI30
aI108
aI118
aI59
aI100
aI247
aI78
asVhttps://www.reddit.com/r/MHOL/comments/4c7az1/b211_education_for_underdeveloped_nations_bill/
p1663
(lp1664
I2956
aI292
aI837
aI89
aI236
aI620
aI473
aI958
aI125
aI533
aI148
aI11
aI702
aI81
aI2159
aI638
aI1781
asVhttps://www.reddit.com/r/electronic_cigarette/comments/171yzh/best_and_cheapest_place_to_buy_a_pair_of_18350/
p1665
(lp1666
I132
aI335
aI207
aI257
aI55
aI173
aI91
aI212
aI169
aI75
aI107
aI46
aI21
aI90
aI186
aI58
aI4
aI26
aI226
aI54
aI68
aI118
aI60
aI51
aI350
aI89
aI105
asVhttps://www.reddit.com/r/smashbros/comments/32acgk/mang0_being_mang0/
p1667
(lp1668
I37
aI8
aI41
aI31
aI106
aI46
aI105
aI176
aI114
aI150
aI125
aI19
aI29
aI60
aI107
aI17
aI311
aI152
aI9
aI112
aI126
aI9
aI206
aI7
aI69
aI15
aI68
aI99
aI86
aI273
aI42
aI148
aI72
aI98
aI112
aI59
aI122
aI94
aI170
aI103
aI61
asVhttps://www.reddit.com/r/buildapc/comments/3zxoya/troubleshooting_no_soundvisual_from_pc/
p1669
(lp1670
I1290
aI138
aI36
aI131
aI46
aI22
aI42
aI18
asVhttps://www.reddit.com/r/FFRecordKeeper/comments/421a31/no_end_of_the_month_bonuses/
p1671
(lp1672
I541
aI419
aI112
aI106
aI197
aI199
aI55
aI174
aI266
aI95
aI64
aI202
aI85
aI372
aI56
aI88
asVhttps://www.reddit.com/r/taiko/comments/21gxkc/any_ideassuggestions_for_cool_taiko_tshirts/
p1673
(lp1674
I311
aI375
aI187
aI20
aI51
aI21
asVhttps://www.reddit.com/r/warframeclanrecruit/comments/2zs13p/napclfc_mincer558/
p1675
(lp1676
I197
aI80
aI1730
aI113
aI119
aI30
aI16
asVhttps://www.reddit.com/r/marvelstudios/comments/4ej762/important_antman_movie_question/
p1677
(lp1678
I201
aI74
aI34
aI28
aI18
aI169
aI122
aI68
aI42
asVhttps://www.reddit.com/r/zen/comments/4bqqeo/everything_is_black_and_white/
p1679
(lp1680
I33
aI842
aI268
aI43
aI29
aI35
aI22
aI276
aI58
aI21
aI42
aI9
aI14
aI58
aI16
aI6
aI9
aI13
aI12
aI24
as.