(dp0
Vhttps://www.reddit.com/r/buildapc/comments/14ylcw/build_help_this_probably_gets_asked_a_lot_but/
p1
V[Build Help] This probably gets asked a lot, but will someone help me choose the best video card?
p2
sVhttps://www.reddit.com/r/rock/comments/vt3mx/because_accordion/
p3
VBecause accordion.
p4
sVhttps://www.reddit.com/r/teclast/comments/3gmf1k/teclast_x98fixing_error_0xc0000225/
p5
VTeclast x98-Fixing Error 0xc0000225
p6
sVhttps://www.reddit.com/r/trees/comments/14otha/anyone_clean_a_bowl_with_a_selfcleaning_oven/
p7
VAnyone clean a bowl with a self-cleaning oven?
p8
sVhttps://www.reddit.com/r/buildapcforme/comments/3i05e9/livingroom_pc/
p9
VLivingroom PC
p10
sVhttps://www.reddit.com/r/oblivion/comments/1qp1qg/new_to_oblivion_skyrim_was_the_first_es_game_i/
p11
VNew to Oblivion (Skyrim was the first ES game I played, and absolutely loved it), what are some things that I should know before beginning?
p12
sVhttps://www.reddit.com/r/shittyadvice/comments/10qzqz/not_very_popular_at_work_right_now/
p13
VNot very popular at work right now.
p14
sVhttps://www.reddit.com/r/dayz/comments/2155i7/where_to_find_pistol_mags/
p15
VWhere to find pistol mags?
p16
sVhttps://www.reddit.com/r/legaladvice/comments/2qg6bb/neighbours_left_me_an_angry_letter_and_threatened/
p17
VNeighbours left me an angry letter and threatened to call the cops because someone mistook their house for mine
p18
sVhttps://www.reddit.com/r/picrequests/comments/1iabie/can_you_help_me_remove_this_smudge_on_this_old_pic/
p19
VCan You help me remove this smudge on this old pic??
p20
sVhttps://www.reddit.com/r/stlouisblues/comments/1ua960/gifs_1214_kings_blues_blues_win_50/
p21
V[GIFs] 1-2-14 Kings @ Blues, Blues win 5-0
p22
sVhttps://www.reddit.com/r/pkmntcg/comments/oqxk0/looking_for_1st_edition_base_set_cards/
p23
VLooking for 1st edition base set cards!
p24
sVhttps://www.reddit.com/r/fireemblem/comments/31wprt/possibility_of_same_sex_marriages_in_fe14/
p25
VPossibility of same sex marriages in FE14?
p26
sVhttps://www.reddit.com/r/cigars/comments/4fvjk5/beer_and_cigars_contest_entry_tatuaje_tattoo_and/
p27
VBeer and Cigars contest entry - Tatuaje Tattoo and North coast brewing Pranqster
p28
sVhttps://www.reddit.com/r/britishproblems/comments/1giqbd/just_walked_past_a_group_of_youths_proclaiming/
p29
VJust walked past a group of youths proclaiming profanities about "The Feds", what has the world come to?
p30
sVhttps://www.reddit.com/r/makinghiphop/comments/2t0kur/discuss_how_do_you_guys_compose_good_melodies/
p31
V[DISCUSS] How do you guys compose good melodies?
p32
sVhttps://www.reddit.com/r/nihilism/comments/1qjn6i/a_really_nice_quote_i_came_across_sums_up_my/
p33
VA really nice quote I came across. Sums up my feeling towards life.
p34
sVhttps://www.reddit.com/r/learnprogramming/comments/13jevc/java_how_to_improve_performance_of_arraylist/
p35
V[Java] How to improve performance of ArrayList...
p36
sVhttps://www.reddit.com/r/gamecollecting/comments/2uxzyo/been_playing_games_since_the_late_1980s_still/
p37
VBeen playing games since the late 1980's. Still can't beat SMB 1 or SMB 3 (NES)......
p38
sVhttps://www.reddit.com/r/summonerschool/comments/1dzwxr/what_do_you_do_as_an_adc_when_your_team_is_behind/
p39
VWhat do you do as an ADC when your team is behind?
p40
sVhttps://www.reddit.com/r/conspiro/comments/1vfgak/the_doctor_who_claimed_there_was_a_link_between/
p41
VThe doctor who claimed there was a link between vaccination's and autism got his doctoral license revoked.
p42
sVhttps://www.reddit.com/r/seduction/comments/2g3rb6/my_experience_with_edm_shows/
p43
VMy experience with EDM shows
p44
sVhttps://www.reddit.com/r/buildapc/comments/2g13n8/build_help_best_budget_motherboard_for_the/
p45
V[Build Help] Best budget motherboard for the i5-4690k, I don't plan on over clocking
p46
sVhttps://www.reddit.com/r/AskReddit/comments/20bl8l/reddit_what_is_one_taste_good_or_bad_that_you/
p47
VReddit, what is one taste, good or bad, that you will never forget?
p48
sVhttps://www.reddit.com/r/pcmasterrace/comments/351t8o/need_help_with_gaming_laptop_under_1000_this/
p49
VNeed help with gaming laptop under $1000. "This thread again?" Edition.
p50
sVhttps://www.reddit.com/r/relationship_advice/comments/qcobj/fwb_and_i_have_feelings_for_each_other_now/
p51
VFWB and I have feelings for each other, now awkward lull, not sure what to do now
p52
sVhttps://www.reddit.com/r/learnprogramming/comments/1xw309/php_in_shell_question_how_to_reload_from_the/
p53
VPHP in shell question: How to reload from the script.
p54
sVhttps://www.reddit.com/r/windowsphone/comments/1akc9l/lumia_920_glass_replacement/
p55
Vlumia 920 glass replacement?
p56
sVhttps://www.reddit.com/r/counting/comments/2lj4yz/time_counting_thread_20000_am/
p57
VTime Counting Thread | 2:00:00 AM
p58
sVhttps://www.reddit.com/r/polyamory/comments/r61z9/how_do_you_define_primary_partner_do_you_think/
p59
VHow do you define "primary partner"? Do you think the term connotes monogamy?
p60
sVhttps://www.reddit.com/r/askportland/comments/3wutrg/parking_for_visitors/
p61
VParking for Visitors
p62
sVhttps://www.reddit.com/r/dailyprogrammer_ideas/comments/39rm5g/alice_through_the_looking_glass/
p63
VAlice Through the Looking Glass
p64
sVhttps://www.reddit.com/r/TalesFromRetail/comments/1xf2kq/the_bowie_knife/
p65
VThe Bowie knife.
p66
sVhttps://www.reddit.com/r/jailbreak/comments/1jmtse/upgrade_to_70_then_back_to_612/
p67
VUpgrade to 7.0 then back to 6.1.2?
p68
sVhttps://www.reddit.com/r/science/comments/gdft3/is_the_earth_6000_years_old/
p69
VIs the Earth 6000 years old?
p70
sVhttps://www.reddit.com/r/offmychest/comments/3aj98m/if_youre_aggravated_by_something_please_dont_vent/
p71
VIf you're aggravated by something. Please don't vent on people who haven't done anything wrong to you.
p72
sVhttps://www.reddit.com/r/ftm/comments/44ajoa/fantastic_friday_interesting_images_february_05/
p73
VFantastic Friday Interesting Images! February 05, 2016
p74
sVhttps://www.reddit.com/r/Juve/comments/2pcn5o/well_face_borussia_dortmund_thoughts/
p75
VWe'll face Borussia Dortmund. Thoughts?
p76
sVhttps://www.reddit.com/r/darksouls3/comments/4fjxhy/tips_for_mercenary_load_out/
p77
VTips for Mercenary Load Out?
p78
sVhttps://www.reddit.com/r/blackops3/comments/4jjrff/new_everything_apparently/
p79
VNew everything (apparently)
p80
sVhttps://www.reddit.com/r/loremasters/comments/28pr5n/need_some_feedback_on_the_main_plot_of_my_campaign/
p81
VNeed some feedback on the main plot of my campaign.
p82
sVhttps://www.reddit.com/r/formula1/comments/4jmsiw/dutch_max_got_wasted_last_night/
p83
V[Dutch] Max got wasted last night. :-)
p84
sVhttps://www.reddit.com/r/hardware/comments/1d3fni/i_have_a_unique_problem_and_i_am_looking_for_a/
p85
VI have a unique problem and I am looking for a creative solution
p86
sVhttps://www.reddit.com/r/bloodborne/comments/4fn86y/none_of_my_friends_can_summon_me_but_i_can_summon/
p87
VNone of my friends can summon me but I can summon everyone.
p88
sVhttps://www.reddit.com/r/teslore/comments/1v5ugj/a_last_lecture_on_sithis/
p89
VA Last Lecture on Sithis
p90
sVhttps://www.reddit.com/r/buildapc/comments/3c3xwu/troubleshooting_bios_splash_screen_disabled_by/
p91
V[Troubleshooting] BIOS splash screen disabled by default?
p92
sVhttps://www.reddit.com/r/Guildwars2/comments/35niq1/eles_minor_trait_versus_mesmers_minor_trait/
p93
Vele's minor trait versus mesmer's minor trait
p94
sVhttps://www.reddit.com/r/karate/comments/kz88r/shamo_an_awesome_manga_about_karate_that_you_guys/
p95
VShamo: An awesome manga about karate that you guys and gals might enjoy. NSFW
p96
sVhttps://www.reddit.com/r/Nikon/comments/4ebr2l/artistic_wideangle_lens_for_d7200/
p97
VArtistic wide-angle lens for D7200?
p98
sVhttps://www.reddit.com/r/pcmasterracents/comments/48u618/minecraft_server/
p99
VMinecraft server
p100
sVhttps://www.reddit.com/r/fantasyfootball/comments/2dqiot/about_to_draft_in_a_20_team_league/
p101
VAbout to draft in a 20 team league
p102
sVhttps://www.reddit.com/r/exjw/comments/r5b28/time_to_come_out_as_exjw/
p103
VTime to Come Out As ExJW
p104
sVhttps://www.reddit.com/r/weddingplanning/comments/4aymd3/psa_gta_brides_nordstrom_warehouse_sale_march/
p105
VPSA: GTA Brides.. Nordstrom Warehouse Sale March 18th - March 28th
p106
sVhttps://www.reddit.com/r/bipolar/comments/4g0j4h/im_so_thankful_for_nice_pharmacists/
p107
VI'm so thankful for nice pharmacists.
p108
sVhttps://www.reddit.com/r/motorcycles/comments/17r8mm/water_in_oil_on_my_oil_cooled_bike/
p109
VWater in oil, on my oil cooled bike...
p110
sVhttps://www.reddit.com/r/politics/comments/16c68q/big_donors_hope_to_challenge_nra_on_gun_control/
p111
VBig donors hope to challenge NRA on gun control
p112
sVhttps://www.reddit.com/r/keto/comments/15adwk/started_last_saturday_223_today_im_216_thats/
p113
VStarted Last Saturday @ 223. Today I'm @ 216. That's 1lb./day!
p114
sVhttps://www.reddit.com/r/MechanicAdvice/comments/3w7dfn/windows_wont_defog/
p115
VWindows Won't Defog
p116
sVhttps://www.reddit.com/r/linux/comments/1rraow/such_useful_error_messages_we_get_these_days/
p117
VSuch useful error messages we get these days
p118
sVhttps://www.reddit.com/r/buildapc/comments/2afmpk/build_help_pc_upgrading/
p119
V[Build Help] PC Upgrading
p120
sVhttps://www.reddit.com/r/buildapc/comments/2b10qe/build_help_and_build_ready_im_seeking_help_with/
p121
V[Build Help] and [Build Ready] I'm seeking help with my first gaming pc build!!
p122
sVhttps://www.reddit.com/r/GetStudying/comments/46a0av/cant_grasp_simple_math_homework/
p123
VCan't grasp simple math homework
p124
sVhttps://www.reddit.com/r/houston/comments/4jenwx/photography_of_houston/
p125
VPhotography of Houston
p126
sVhttps://www.reddit.com/r/fantasyhockey/comments/1phm5l/not_busy_all_day_will_answer_any_and_all_questions/
p127
VNot busy all day. Will answer any and all questions.
p128
sVhttps://www.reddit.com/r/sales/comments/4jboyd/i_just_finished_reading_my_first_sales_book_and/
p129
VI just finished reading my first sales book and...
p130
sVhttps://www.reddit.com/r/fatestaynight/comments/3h5f1b/fhollow_ataraxia_voice_patch_question/
p131
VF/Hollow Ataraxia Voice Patch Question
p132
sVhttps://www.reddit.com/r/OSU/comments/2mi0p4/got_a_jaywalking_ticket_is_it_worth_it_to_contest/
p133
VGot a jaywalking ticket, is it worth it to contest it in court?
p134
sVhttps://www.reddit.com/r/offmychest/comments/2p37rx/i_am_on_the_look_out_for_another_manwhile_with_my/
p135
VI am on the look out for another man,while with my s/o yet again.
p136
sVhttps://www.reddit.com/r/opieandanthony/comments/2sy4na/burr_cumia_and_norton_would_have_been_the_perfect/
p137
VBurr, Cumia and Norton would have been the perfect show.
p138
sVhttps://www.reddit.com/r/ota/comments/4agn5d/hauppauge_new_4x_atsc_tuner_card_99/
p139
VHauppauge new 4x ATSC tuner card $99
p140
sVhttps://www.reddit.com/r/design_critiques/comments/31l9ka/logobusiness_cardswebsite_design_student_in_final/
p141
V[Logo][Business Cards][Website] Design Student in Final classes, Critique?
p142
sVhttps://www.reddit.com/r/techsupport/comments/1ia3vt/laptop_seems_weaker_than_it_should_be/
p143
VLaptop seems weaker than it should be.
p144
sVhttps://www.reddit.com/r/synthesizers/comments/22mrsf/inside_of_pocket_piano_gr_uses_the_same_pcb_as/
p145
VInside of Pocket Piano GR uses the same PCB as the midi enabled. Maybe you just need some terminals and some other stuff? help?
p146
sVhttps://www.reddit.com/r/casualiama/comments/4f9l1e/super_knowledgeable_on_plants_fashion_and_strange/
p147
VSuper knowledgeable on plants, fashion, and strange music. AMA
p148
sVhttps://www.reddit.com/r/gaming/comments/yq9cl/dark_souls_pc_controls_are_funky/
p149
VDark Souls PC controls are funky
p150
sVhttps://www.reddit.com/r/guns/comments/2lox2o/talk_me_out_of_a_ruger_ar556/
p151
VTalk me out of a ruger AR556.
p152
sVhttps://www.reddit.com/r/keto/comments/1sewkc/thinking_about_trying_keto/
p153
VThinking about trying keto.
p154
sVhttps://www.reddit.com/r/audioengineering/comments/4iyyr2/plugin_chain_or_track_effects/
p155
VPlugin Chain or Track Effects?
p156
sVhttps://www.reddit.com/r/leagueoflegends/comments/3gexqm/lunity_the_bounty_hunter/
p157
VLunity - The Bounty Hunter
p158
sVhttps://www.reddit.com/r/cpp_questions/comments/43b0bh/difference_between_const_string_s_string_and/
p159
VDifference between const string& s = string() and const string& s = ""?
p160
sVhttps://www.reddit.com/r/NoStupidQuestions/comments/49vjo5/i_accidentally_left_my_laundry_in_the_washing/
p161
VI accidentally left my laundry in the washing machine for a day after a wash. I washed it again and now it smells bad. What should I do?
p162
sVhttps://www.reddit.com/r/relationships/comments/3fwitf/me_20_f_with_my_friends_20sf_of_about_a_year_i/
p163
VMe [20 F] with my friends [20sF] of about a year, I got depressed and withdrew; want to know how to get closure for everyone
p164
sVhttps://www.reddit.com/r/bipolar/comments/39hfh6/mixed_state_what_does_it_mean_to_you/
p165
VMixed state. what does it mean to you?
p166
sVhttps://www.reddit.com/r/politics/comments/4hhb4b/for_top_federal_contractors_investments_in/
p167
VFor Top Federal Contractors, Investments in Lobbying, PACs Yield Big Returns: Major U.S. government contractors have received $1,171 in taxpayer money for every $1 invested in lobbying and political action committee contributions during the last decade
p168
sVhttps://www.reddit.com/r/ultimate/comments/43qnuz/up_line_flick_vs_lefty_backhand/
p169
VUp line flick vs. lefty backhand?
p170
sVhttps://www.reddit.com/r/windows8/comments/1lln1p/need_help_with_games_on_windows_8/
p171
VNeed help with games on windows 8
p172
sVhttps://www.reddit.com/r/darksouls3/comments/40cskn/question_about_socalled_fanservice/
p173
VQuestion about so-called "fanservice"
p174
sVhttps://www.reddit.com/r/Charadefensesquad/comments/4jh0ir/chara_did_kill_someone/
p175
VChara did kill someone
p176
sVhttps://www.reddit.com/r/tarnation/comments/35m2xp/anyone_on_elder_scrolls_online/
p177
VAnyone on Elder Scrolls Online?
p178
sVhttps://www.reddit.com/r/ffxiv/comments/nfgpb/cant_log_in_to_ffxiv/
p179
VCan't log in to FFXIV 
p180
sVhttps://www.reddit.com/r/mathriddles/comments/31bwr3/the_magic_chessboard/
p181
VThe Magic Chessboard
p182
sVhttps://www.reddit.com/r/sticker/comments/s633l/thanks_to_user_caseyl_for_those_dope_stickers/
p183
VThanks to user "caseyl" for those dope stickers!
p184
sVhttps://www.reddit.com/r/ffxiv/comments/1ljuxe/got_in/
p185
VGOT IN!!
p186
sVhttps://www.reddit.com/r/slashdiablo/comments/463x39/ft_crafter_pack_40_ral_40_p_amethyst/
p187
VFT: Crafter Pack (40 ral + 40 p amethyst)
p188
sVhttps://www.reddit.com/r/pcmasterrace/comments/2ntwgv/so_i_showed_my_mom_a_4k_resolution_tv_at_the/
p189
VSo I showed my mom a 4k resolution TV at the store the other day
p190
sVhttps://www.reddit.com/r/Steam/comments/39mnsy/non_steam_game_compatibility_with_steam_link/
p191
V'Non Steam Game' Compatibility with Steam Link
p192
sVhttps://www.reddit.com/r/networking/comments/27puqu/so_what_do_you_guys_think_about_the_juniper_and/
p193
VSo what do you guys think about the Juniper and Aruba wireless "Joint venture"
p194
sVhttps://www.reddit.com/r/casualiama/comments/1cwgu0/i_just_want_to_be_the_center_of_attention_for_a/
p195
VI just want to be the center of attention for a bit, so AMA
p196
sVhttps://www.reddit.com/r/explainlikeimfive/comments/20hg9k/eli5_how_do_airplanes_not_show_up_everywhere_on/
p197
VELI5: How do airplanes not show up everywhere on digital maps? (Google Earth / Maps etc)
p198
sVhttps://www.reddit.com/r/buildapcforme/comments/4bslx4/hey_all_i_require_assistance_in_upgradingbuilding/
p199
VHey all, I require assistance in upgrading/building my pc. I do not need a video card or memory.
p200
sVhttps://www.reddit.com/r/chemistry/comments/1983z2/chemistry_work_reu_for_summer/
p201
VChemistry work/ REU for summer
p202
sVhttps://www.reddit.com/r/PrettyLittleLiars/comments/3etxrj/your_friend_and_ally_the_painting_and_charles/
p203
V"Your friend and ally", the painting and Charles' therapy
p204
sVhttps://www.reddit.com/r/lgg2/comments/37u2c4/wifi_cant_go_above_42_mbit/
p205
VWiFi can't go above 42 Mbit
p206
sVhttps://www.reddit.com/r/leagueoflegends/comments/28ww7w/tips_on_how_to_play_against_fiora/
p207
VTips on how to play against Fiora?
p208
sVhttps://www.reddit.com/r/leagueoflegends/comments/1pfegm/drop_the_d1bomb_and_get_1k_karma/
p209
VDrop the D1-bomb and get 1k karma!!!
p210
sVhttps://www.reddit.com/r/relationship_advice/comments/i37nf/2_year_dating_anniversary_coming_up_yet_im_going/
p211
V2 year dating anniversary coming up - yet I'm going to be out of the country. Any gift advice?
p212
sVhttps://www.reddit.com/r/madisonwi/comments/3c6y6y/weekly_catchall_july_05_2015/
p213
VWeekly Catch-All! July 05, 2015
p214
sVhttps://www.reddit.com/r/AskReddit/comments/1at5ow/what_book_do_you_think_is_beautifully_written/
p215
VWhat book do you think is beautifully written?
p216
sVhttps://www.reddit.com/r/starcraft/comments/2nej87/anybody_from_logitech_g_or_myi_here/
p217
VAnybody from Logitech G or mYi here ?
p218
sVhttps://www.reddit.com/r/feedthebeast/comments/2xpngt/help_me_i_just_want_to_find_an_origin_valley/
p219
VHelp me! I just want to find an Origin Valley (Biomes o' Plenty)
p220
sVhttps://www.reddit.com/r/WouldYouRather/comments/2fcldn/wyr_always_have_a_wasp_within_15_feet_of_you_or/
p221
VWYR always have a wasp within 15 feet of you, OR once per day at a random time during your waking hours be unable to use your wallet, keys, and phone for 60 minutes?
p222
sVhttps://www.reddit.com/r/minecraftsuggestions/comments/4lkmjl/named_items_dont_despawn/
p223
VNamed items don't de-spawn.
p224
sVhttps://www.reddit.com/r/PS3/comments/1p0pwq/how_can_i_listen_to_game_audio_with_bluetooth/
p225
VHow can I listen to game audio with bluetooth headphones?
p226
sVhttps://www.reddit.com/r/bakchodi/comments/1ewiap/saar_muslims_suxxawar_gr8_nation_belaang_2/
p227
Vsaar muslims suxx..awar gr8 nation belaang 2 hindoos..lets kill aal muslims
p228
sVhttps://www.reddit.com/r/stopdrinking/comments/221tiw/well_this_might_be_it_about_to_hit_bottom_bottom/
p229
VWell this might be it. About to hit bottom bottom and I am scared
p230
sVhttps://www.reddit.com/r/dreamcast/comments/4f3yct/mod_request/
p231
VMod Request
p232
sVhttps://www.reddit.com/r/LetsNotMeet/comments/1m7acm/how_my_dad_convinced_me_never_to_hitchhike/
p233
VHow my Dad Convinced Me Never To Hitchhike
p234
sVhttps://www.reddit.com/r/steroids/comments/1mpn03/lab_results_baseline_can_you_interpret_if_okay/
p235
VLab results - "baseline", can you interpret if okay?
p236
sVhttps://www.reddit.com/r/NHLHUT/comments/3ybp3f/mov_kreider_vs_thornton_upgrade_possibility/
p237
VMOV Kreider vs. Thornton upgrade possibility
p238
sVhttps://www.reddit.com/r/ecigclassifieds/comments/250bpe/mvp_v2/
p239
VMvp v2
p240
sVhttps://www.reddit.com/r/saplings/comments/3c2666/advice_acquiring_dealerpickup/
p241
V[advice] acquiring dealer/pick-up
p242
sVhttps://www.reddit.com/r/AskReddit/comments/whdiq/is_admiring_someone_off_facebook_creepy/
p243
VIs admiring someone off Facebook creepy?
p244
sVhttps://www.reddit.com/r/TumblrInAction/comments/2kc134/a_lesson_in_sjw_biology/
p245
VA lesson in SJW Biology
p246
sVhttps://www.reddit.com/r/wow/comments/4i28qi/your_game_account_showing_korea_kr_account/
p247
V'YOUR GAME ACCOUNT' showing korea (KR) account
p248
sVhttps://www.reddit.com/r/rupaulsdragrace/comments/36xmbc/now_that_the_duggars_are_off_tlc_maybe_rdr_can/
p249
VNow that the Duggars are off TLC, Maybe RDR can move networks.
p250
sVhttps://www.reddit.com/r/prowrestling/comments/jos4q/is_the_money_in_the_bank_briefcase_really_a_good/
p251
VIs the money in the bank briefcase really a good thing?
p252
sVhttps://www.reddit.com/r/DestinyTheGame/comments/2qkek2/explaining_destiny_to_your_so_parents/
p253
VExplaining Destiny to your SO parents
p254
sVhttps://www.reddit.com/r/britishproblems/comments/4ilzux/this_very_british_problems_tv_program_is_shit/
p255
VThis "Very British Problems" tv program is shit.
p256
sVhttps://www.reddit.com/r/politics/comments/hoxjn/ok_downvote_if_this_is_stupid_but_i_do_it_to/
p257
VOk Downvote if this is stupid but I do it to people I meet and people I know because I feel subtlety is the way.
p258
sVhttps://www.reddit.com/r/depression/comments/4lm0xz/you_know_you_live_a_sad_existence_when/
p259
VYou know you live a sad existence when...
p260
sVhttps://www.reddit.com/r/XMenRP/comments/2e8gmj/dinner_218/
p261
VDinner 21/8
p262
sVhttps://www.reddit.com/r/pcmasterrace/comments/35uz52/i_dont_play_by_your_surround_rules_nvidia/
p263
VI don't play by your surround rules Nvidia!
p264
sVhttps://www.reddit.com/r/CrusaderKings/comments/2vxvko/question_on_culture_conversion_english_culture/
p265
VQuestion on culture conversion (English culture event)
p266
sVhttps://www.reddit.com/r/buildapc/comments/3amzre/build_ready_second_build_woo/
p267
V[Build Ready] Second build, woo!
p268
sVhttps://www.reddit.com/r/running/comments/oclfu/been_running_for_3_months_little_or_no_progress/
p269
VBeen running for 3 months, little or no progress.
p270
sVhttps://www.reddit.com/r/WhoWouldWinVerse/comments/4cbyp5/super_tantrum/
p271
VSuper Tantrum
p272
sVhttps://www.reddit.com/r/Fitness/comments/yogjv/hello_fittit_i_am_looking_for_advice_on_weight/
p273
VHello Fittit, I am looking for advice on Weight Gain/Dieting/Supplements. (Warning: Long w/ pictures)
p274
sVhttps://www.reddit.com/r/cpp_questions/comments/2k6wa6/fsteam_think/
p275
Vfsteam think
p276
sVhttps://www.reddit.com/r/techsupport/comments/2gbg5d/how_can_i_boot_my_pc_into_bios/
p277
VHow can I boot my PC into BIOS?
p278
sVhttps://www.reddit.com/r/diablo3/comments/2r147m/i_feel_like_i_really_suck/
p279
VI feel like I really suck
p280
sVhttps://www.reddit.com/r/truegaming/comments/3icl63/jrpgs_of_the_type_popular_in_the_late_90s_and/
p281
VJRPGs, of the type popular in the late 90s and early 2000s, are essentially their own genre and should be preserved.
p282
sVhttps://www.reddit.com/r/xboxone/comments/3795w4/due_to_winning_your_xbox_live_reputation_has/
p283
VDue to winning, your XBOX Live reputation has fallen to Needs Improvement.
p284
sVhttps://www.reddit.com/r/cigars/comments/q2q03/could_use_some_help_remembering_an_old_fav/
p285
VCould use some help remembering an old Fav.
p286
sVhttps://www.reddit.com/r/buildapc/comments/2akgqz/discussion_non_modular_psus/
p287
V[Discussion] Non Modular PSUs
p288
sVhttps://www.reddit.com/r/pathofexile/comments/1906i8/login_screen_lags_me_bad_any_way_to_fix_this/
p289
VLogin screen lags me bad. Any way to fix this?
p290
sVhttps://www.reddit.com/r/buildapc/comments/2z15gi/troubleshooting_im_on_the_verge_of_a_mental/
p291
V[Troubleshooting] I'm on the verge of a mental breakdown. Windows 8.1 64b version keeps rebooting before any menus during installation.
p292
sVhttps://www.reddit.com/r/roguelikes/comments/4im8e6/dcss_need_help_with_my_2rune_mibe/
p293
V[DCSS] Need help with my 2-rune MiBe
p294
sVhttps://www.reddit.com/r/personalfinance/comments/2yabw2/just_got_hired_at_my_first_jobwhat_should_i_know/
p295
VJust got hired at my first job!what should I know about income and working?
p296
sVhttps://www.reddit.com/r/wardrobepurge/comments/29up04/sell_dresses_shoes_and_tops_sizes_xss/
p297
V[Sell] Dresses, shoes, and tops, sizes XS-S
p298
sVhttps://www.reddit.com/r/dogecoin/comments/2pic6g/help_my_broken_wallet_cant_update/
p299
VHelp my broken wallet (Can't update!)
p300
sVhttps://www.reddit.com/r/heroesofthestorm/comments/3dx6rs/somethings_odd_about_the_map_rotation/
p301
VSomething's odd about the map rotation.
p302
sVhttps://www.reddit.com/r/wheelanddeal/comments/28px2z/ps3_ng_15m/
p303
V[ps3] ng+ 15m+
p304
sVhttps://www.reddit.com/r/jailbreak/comments/2ljviy/my_remaining_jailbreak_issues_care_to_help_out_if/
p305
VMy remaining jailbreak issues; care to help out if you can?
p306
sVhttps://www.reddit.com/r/DestinyTheGame/comments/2x8l5o/suggestion_an_exotic_vendor_not_xur/
p307
V[Suggestion] An Exotic Vendor - not Xur
p308
sVhttps://www.reddit.com/r/Drugs/comments/3fludd/curious_what_every_bodies_personal_relationship/
p309
VCurious what every bodies personal relationship with weed is?
p310
sVhttps://www.reddit.com/r/legaladvice/comments/2hk56h/federal_production_of_child_pornography_charge/
p311
V[Federal] Production of Child Pornography Charge and Mandatory Minimums
p312
sVhttps://www.reddit.com/r/puns/comments/1zts00/a_friend_and_i_were_talking_about_a_book/
p313
VA friend and I were talking about a book character who beats her brother and husband just for kicks.
p314
sVhttps://www.reddit.com/r/coolermaster/comments/1h30gi/is_there_a_program_for_controlling_fan_speeds_for/
p315
VIs there a program for controlling fan speeds for the Seidon series?
p316
sVhttps://www.reddit.com/r/matheducation/comments/4iuuvh/i_have_a_simple_math_question_and_dont_know_where/
p317
VI have a simple math question and don't know where else to ask it. Please help?
p318
sVhttps://www.reddit.com/r/Rainbow6/comments/4daitq/psa_if_you_keep_receiving_connection_error_switch/
p319
VPSA: if you keep receiving "Connection error", switch from wifi to ethernet
p320
sVhttps://www.reddit.com/r/findareddit/comments/1k8z3n/a_subreddit_to_ask_about_how_it_is_to_work_at_a/
p321
VA subreddit to ask about how it is to work at a certain company
p322
sVhttps://www.reddit.com/r/thedivision/comments/4ce834/got_dz50_already_have_a_number_of_best_in_class/
p323
VGot DZ50, already have a number of best in class items, what should I buy?
p324
sVhttps://www.reddit.com/r/whowouldwin/comments/27m29d/tug_of_war_magneto_vs_luke_skywalker/
p325
VTug of war. Magneto vs Luke Skywalker.
p326
sVhttps://www.reddit.com/r/DestinyTheGame/comments/3gm2hw/prison_of_elders_retirement_home/
p327
VPrison of Elders (Retirement Home)
p328
sVhttps://www.reddit.com/r/atheism/comments/dv7d6/need_some_help_here/
p329
VNeed some help here
p330
sVhttps://www.reddit.com/r/createthisworld/comments/4gaaqg/the_outcast_legions_of_vord/
p331
VThe Outcast Legions of Vord
p332
sVhttps://www.reddit.com/r/watch_dogs/comments/286hh6/what_would_you_like_to_see_a_watch_dogs_sequel/
p333
VWhat would you like to see a Watch Dogs sequel improve upon?
p334
sVhttps://www.reddit.com/r/dayz/comments/11ebf0/been_on_an_extended_dayz_break_where_do_you_get/
p335
VBeen on an extended dayZ break, Where do you get all the new maps?
p336
sVhttps://www.reddit.com/r/bleach/comments/16xgg2/reading_chap_510_and_we_saw_as_nodt_steal/
p337
VReading Chap. 510 and, we saw As Nodt steal Senbonzakura, but we also 3 more Bankais stolen. Did we ever see them used by the Stern Ritter? 
p338
sVhttps://www.reddit.com/r/rockhounds/comments/rytez/getting_ready_for_the_spring_show/
p339
VGetting ready for the spring show!
p340
sVhttps://www.reddit.com/r/civ/comments/1ku71e/warmonger_changes_id_like_to_see/
p341
VWarmonger Changes I'd like to see
p342
sVhttps://www.reddit.com/r/relationships/comments/2192js/i_f22_want_to_move_back_home_to_europe_in_the/
p343
VI [F22] want to move back home to Europe in the near future. My bf [25] is not fond of idea.
p344
sVhttps://www.reddit.com/r/bourbon/comments/20zo93/what_would_be_the_difference_in_taste_between_a/
p345
VWhat would be the difference in taste between a bourbon distilled with a column still and one distilled with a pot still?
p346
sVhttps://www.reddit.com/r/buildapc/comments/2akcng/build_ready_ready_to_go_for_it_looking_for/
p347
V[build ready] Ready to go for it, looking for opinions before pulling the trigger
p348
sVhttps://www.reddit.com/r/skyrimmods/comments/1kqg1q/looking_for_some_clarification/
p349
VLooking for some clarification
p350
sVhttps://www.reddit.com/r/mwo/comments/45ts2g/i_get_an_error_anytime_i_change_settings_please/
p351
VI get an error anytime I change settings. Please, Help!!
p352
sVhttps://www.reddit.com/r/DuelingCorner/comments/topeg/the_rematch_of_gallantgunslinger_and/
p353
VThe Rematch of GallantGunslinger and ObeySaturnGod for the title of Grand Duelist. 
p354
sVhttps://www.reddit.com/r/relationship_advice/comments/38ciyx/about_my_fwb_24m_and_myself_19f_i_need_advice/
p355
VAbout my FwB (24/M) and myself (19/F) I need advice, please.
p356
sVhttps://www.reddit.com/r/saskatoon/comments/wg40d/cyclists_looking_for_shelter/
p357
Vcyclists looking for shelter
p358
sVhttps://www.reddit.com/r/GirlGamers/comments/38qj9l/what_would_you_do_if_bethesda_used_the_female/
p359
VWhat would you do if Bethesda used the female version of the protagonist for Fallout 4 in the recent trailer?
p360
sVhttps://www.reddit.com/r/googleglass/comments/1s3iaf/glass_question_left_eye_dominant/
p361
VGlass Question - Left Eye Dominant
p362
sVhttps://www.reddit.com/r/MonsterHunter/comments/1wo0zc/any_news_on_monhun_4s_weapon_mechanics/
p363
VAny news on MonHun 4's Weapon mechanics?
p364
sVhttps://www.reddit.com/r/TheWitness/comments/49uqyv/spoilers_can_i_just_whine_about_the_shipwreck_for/
p365
V[SPOILERS] Can I just whine about the shipwreck for a minute?
p366
sVhttps://www.reddit.com/r/Insurance/comments/430kqh/will_my_rate_go_up_for_failure_to_obey_control/
p367
VWill my rate go up for failure to obey control signal ticket in ct?
p368
sVhttps://www.reddit.com/r/makemychoice/comments/1x27uj/should_i_smoke_another_bowl_and_stay_up_watching/
p369
VShould I smoke another bowl and stay up watching S.H.I.E.L.D or go to bed?
p370
sVhttps://www.reddit.com/r/MonsterHunter/comments/2xll8o/when_do_weapons_show_up_at_the_blacksmith_for_the/
p371
VWhen do weapons show up at the blacksmith for the charge blade?
p372
sVhttps://www.reddit.com/r/talesfromtechsupport/comments/3cl41f/can_you_please_open_this_backpack/
p373
VCan you please open this backpack?
p374
sVhttps://www.reddit.com/r/trees/comments/o4xpj/my_friend_said_to_me_you_only_enjoy_smoking_trees/
p375
VMy friend said to me you only enjoy smoking trees because its illegal? So how come when I was in Amsterdam it was FUCKING AMAZING!? 
p376
sVhttps://www.reddit.com/r/Aquariums/comments/2uesut/whats_the_name_of_your_lfs_in_your_home_town/
p377
VWhat's the name of your LFS in your home town?
p378
sVhttps://www.reddit.com/r/iOSthemes/comments/2hnyrw/lbi_signalwifi_revamp/
p379
VLBI Signal/Wifi Revamp
p380
sVhttps://www.reddit.com/r/starcraft/comments/h2fnl/there_are_32966_people_here_on_starcraftthats/
p381
Vthere are 32,966 people here on starcraft...that's 12,966 more than IdrA needs tomorrow night. Reddit, you know what to do!
p382
sVhttps://www.reddit.com/r/chelseafc/comments/334gki/hazard_chant/
p383
VHazard chant
p384
sVhttps://www.reddit.com/r/starcraft/comments/1fmdyr/age_versus_race_frequency_data_collection_project/
p385
VAge Versus Race Frequency Data Collection Project (x-post from /r/starcraft2)
p386
sVhttps://www.reddit.com/r/AskReddit/comments/18fazr/what_made_you_smile_today/
p387
VWhat made you smile today?
p388
sVhttps://www.reddit.com/r/Silverbugs/comments/4dxoc2/mexican_coin_broker/
p389
VMexican Coin Broker
p390
sVhttps://www.reddit.com/r/bicycling/comments/1rvzzc/carbon_carbon_every_last_part_is_carbon_lunch/
p391
VCarbon Carbon! every last part is Carbon! (Lunch Comic, freely translated by me)
p392
sVhttps://www.reddit.com/r/chicagor4r/comments/2v35ji/29_m4r_drinks_sometime_video_games_lisle_il/
p393
V29 M4R Drinks sometime? Video Games? Lisle, IL
p394
sVhttps://www.reddit.com/r/techsupport/comments/32pppl/ide_hdd_not_detected_by_bios_but_is_detected_in/
p395
VIDE HDD not detected by BIOS but is detected in windows.
p396
sVhttps://www.reddit.com/r/WildernessBackpacking/comments/3f5pai/transitioning_from_day_hikes_to_backpackingcamping/
p397
VTransitioning from day hikes to backpacking/camping
p398
sVhttps://www.reddit.com/r/facepalm/comments/2r297y/can_someone_please_tell_lindsay_lohan_what_year/
p399
VCan someone please tell Lindsay Lohan what year it is...
p400
sVhttps://www.reddit.com/r/sto/comments/4fkz4t/finding_the_istaap_for_an_accolade/
p401
VFinding the Istaap for an accolade
p402
sVhttps://www.reddit.com/r/AskLEO/comments/38x3zt/cbp_officer_entrance_exam_questions/
p403
VCBP officer entrance exam questions.
p404
sVhttps://www.reddit.com/r/mac/comments/2qkixq/buying_13_rmbp_question_about_ssd/
p405
VBuying 13" rMBP, question about SSD
p406
sVhttps://www.reddit.com/r/leagueoflegends/comments/2tbcqv/why_is_there_no_mana_biscuit_id_love_to_have_one/
p407
VWhy is there no mana biscuit? I'd love to have one please!
p408
sVhttps://www.reddit.com/r/vegan/comments/4gvirz/help_me_out_guys_is_this_vegan_nesquik_powder/
p409
VHelp me out guys! Is this vegan? (Nesquik powder)
p410
sVhttps://www.reddit.com/r/techsupport/comments/30ubu9/browser_speed_at_253_mbit_steam_and_torrents_at/
p411
VBrowser speed at 2.5-3 Mbit. Steam and torrents at full 25 Mbit. What gives?
p412
sVhttps://www.reddit.com/r/knitting/comments/1rm8ln/advice_on_what_increasedecrease_to_use/
p413
VAdvice on what increase/decrease to use?
p414
sVhttps://www.reddit.com/r/fountainpens/comments/22cry1/new_toy_from_pen_place_in_kc/
p415
VNew Toy from Pen Place in KC!
p416
sVhttps://www.reddit.com/r/flextweak/comments/1tsnm7/requesting_youtube_tutorials/
p417
VRequesting YouTube tutorials
p418
sVhttps://www.reddit.com/r/wow/comments/2dxx0b/looking_for_healthy_alliance_favored_pve_servers/
p419
VLooking for Healthy Alliance Favored PVE Servers
p420
sVhttps://www.reddit.com/r/TheNarutoWorld/comments/1wqxyy/looking_for_information_on_taro/
p421
VLooking for Information on Taro.
p422
sVhttps://www.reddit.com/r/Cooking/comments/1noffg/what_kinds_of_panspots_for_what_kind_of_dishes/
p423
VWhat kinds of pans/pots for what kind of dishes?
p424
sVhttps://www.reddit.com/r/wiiu/comments/1wgjnx/is_it_possible_from_turning_the_wiiu_on_to_play/
p425
VIs it possible from, turning the wiiu on, to play without the gamepad? Odd question but details inside
p426
sVhttps://www.reddit.com/r/nba/comments/qyvrv/as_a_warriors_fan_i_am_wary_and_certainly_hopeful/
p427
VAs a Warriors fan, I am wary and certainly hopeful, but I had a few questions.
p428
sVhttps://www.reddit.com/r/relationships/comments/447mz6/my_m22_girlfriend_f22_consistently_looks_up_her/
p429
VMy [M/22] girlfriend [F/22] consistently looks up her past hook-up on Facebook. Should I be worried?
p430
sVhttps://www.reddit.com/r/masseffect/comments/1ddkmv/spoilers_a_crazy_theory_about_the_protheans/
p431
V[Spoilers] A crazy theory about the Protheans, Cerberus and why Shepard is so unique
p432
sVhttps://www.reddit.com/r/woodworking/comments/x8z5u/help_a_newb_understand_the_difference_between_a/
p433
VHelp a newb understand the difference between a brad nailer and a finish nailer
p434
sVhttps://www.reddit.com/r/RealEstate/comments/4ckzf7/fl_realty_company_wants_double_security_deposit/
p435
V(FL) Realty company wants double security deposit because I switched jobs recently. Is this a thing?
p436
sVhttps://www.reddit.com/r/conspiracy/comments/2pp5gh/any_conspiracy_theorist_programmers_here_i_need/
p437
VAny conspiracy theorist programmers here? I need help...
p438
sVhttps://www.reddit.com/r/webdev/comments/3xrt8y/should_i_be_handwritting_all_my_html/
p439
VShould I be handwritting all my html?
p440
sVhttps://www.reddit.com/r/letsplay/comments/39mtd7/facecam_problems_again/
p441
VFacecam problems... again
p442
sVhttps://www.reddit.com/r/gaming/comments/pwodg/halo_reach_question/
p443
VHalo Reach Question
p444
sVhttps://www.reddit.com/r/buildapc/comments/1slm1o/help_my_build_im_working_on_wont_post/
p445
VHelp! My build I'm working on won't post!
p446
sVhttps://www.reddit.com/r/fantasyfootball/comments/2nz95x/how_can_those_of_us_who_are_knocked_out_stay/
p447
VHow can those of us who are knocked out stay interested and involved?
p448
sVhttps://www.reddit.com/r/talesfromtechsupport/comments/vz7ep/one_of_my_first_windows_97/
p449
VOne of my first - Windows 97
p450
sVhttps://www.reddit.com/r/cycling/comments/2bqd7v/hit_by_a_car_yesterday_bike_and_nerves_are_a/
p451
VHit by a car yesterday. Bike and nerves are a little beat up.
p452
sVhttps://www.reddit.com/r/LawSchool/comments/2o6sio/does_anyone_have_strict_liability_tort_problems/
p453
VDoes anyone have strict liability tort problems not involving products liability?
p454
sVhttps://www.reddit.com/r/poecilia/comments/2ic19o/how_common_are_blackchinned_livebearers/
p455
VHow common are blackchinned livebearers?
p456
sVhttps://www.reddit.com/r/electricians/comments/3ie2sz/single_wall_outlet_failure_usa/
p457
VSingle Wall outlet failure (USA)
p458
sVhttps://www.reddit.com/r/buildmeapc/comments/4gh6bj/request_cheapish_low_mid_end_art_pc/
p459
VRequest: Cheap(ish) Low / mid end art PC
p460
sVhttps://www.reddit.com/r/buildapc/comments/12jo5z/troubleshooting_after_installing_video_card/
p461
V[troubleshooting] after installing video card drivers, I can't use .exes?
p462
sVhttps://www.reddit.com/r/Guitar/comments/n2in9/hey_rguitar_im_auditioning_for_a_music_school_in/
p463
VHey r/guitar, I'm auditioning for a music school in January and I need some help figuring out some pieces I should play. Any suggestions? 
p464
sVhttps://www.reddit.com/r/casualiama/comments/3bna8h/we_eliminated_95_of_red_meat_from_our_diet_on_jan/
p465
VWe eliminated 95% of red meat from our diet on Jan 1, 2015. AmA
p466
sVhttps://www.reddit.com/r/discgolf/comments/2h2yo2/top_5_disc_of_all_time/
p467
VTop 5 disc of all time?
p468
sVhttps://www.reddit.com/r/mylittlepony/comments/17paj4/this_has_probably_been_asked_before_but_what_are/
p469
VThis has probably been asked before, but what are your favorite pony Tumblr accounts?
p470
sVhttps://www.reddit.com/r/waterporn/comments/tiuis/river_camel_estuary_padstow_cornwall_720x540/
p471
VRiver Camel Estuary, Padstow, Cornwall [720x540]
p472
sVhttps://www.reddit.com/r/arma/comments/1fy1xp/system_lags_after_using_thermal_imaging_for_a/
p473
VSystem lags after using Thermal Imaging for a while
p474
sVhttps://www.reddit.com/r/pcmasterrace/comments/2fcoop/brothers_i_need_your_guidance/
p475
VBrothers! I need your guidance.
p476
sVhttps://www.reddit.com/r/legaladvice/comments/20kjy9/nj_dui_last_night/
p477
VNJ DUI last night.
p478
sVhttps://www.reddit.com/r/flyfishing/comments/3xkx1e/end_of_the_season_in_the_black_forest_in_germany/
p479
VEnd of the season in the Black Forest in Germany
p480
sVhttps://www.reddit.com/r/SocialEngineering/comments/xufgo/why_you_should_check_your_flash_player_for_csrf/
p481
VWhy you should check your flash player for CSRF
p482
sVhttps://www.reddit.com/r/evolution/comments/33hwp1/evolution_of_vestigial_organs/
p483
VEvolution of vestigial organs
p484
sVhttps://www.reddit.com/r/llsif/comments/3gn1il/en_score_match_11_nico_and_jp_token_event_28/
p485
VEN Score Match 11 - Nico and JP Token Event 28 - Nozomi T1/2 cutoff predictions
p486
sVhttps://www.reddit.com/r/pcmasterrace/comments/3yk5oc/recently_ascended_games_are_crashing_im_lost_help/
p487
VRecently ascended. Games are crashing. I'm lost. Help a new guy out.
p488
sVhttps://www.reddit.com/r/trees/comments/3d5gnu/the_future_cannabis_clubs/
p489
VThe future, cannabis clubs
p490
sVhttps://www.reddit.com/r/AskBattlestations/comments/1ywx3e/im_a_noob/
p491
VI'm a Noob....
p492
sVhttps://www.reddit.com/r/Nexus5/comments/37puhp/got_my_screen_replaced_now_my_led_notification/
p493
VGot my screen replaced, now my LED notification light shines with the strenght of a thousand suns
p494
sVhttps://www.reddit.com/r/GPGpractice/comments/4dm0g0/iso_encryption_buddy/
p495
VISO Encryption Buddy
p496
sVhttps://www.reddit.com/r/skyrim/comments/mvega/college_of_winterhold_good_intentions_doesnt/
p497
VCollege of Winterhold - Good Intentions - Doesn't start the next quest after completing.
p498
sVhttps://www.reddit.com/r/trees/comments/3cv9po/mddcva_residents_any_clues_as_to_when_dc_will/
p499
VMD/DC/VA residents... any clues as to when DC will have weed "stores" the average citizen can just walk up in and make a purchase?
p500
sVhttps://www.reddit.com/r/AskHistorians/comments/3g6fd8/i_found_this_dress_at_a_thrift_store_what_era_and/
p501
VI found this dress at a thrift store. What era and country is it from?
p502
sVhttps://www.reddit.com/r/wallstreetbets/comments/4cr53n/gluu_undervalued/
p503
VGLUU Undervalued?
p504
sVhttps://www.reddit.com/r/shittyaskscience/comments/3d2o3o/if_i_have_water_in_my_ear_is_it_safe_to_listen_to/
p505
VIf I have water in my ear is it safe to listen to electronic music?
p506
sVhttps://www.reddit.com/r/LiverpoolFC/comments/g8gde/quick_question_why_do_we_need_to_finish_5th_to/
p507
VQuick question: why do we need to finish 5th to qualify for Europa league?
p508
sVhttps://www.reddit.com/r/touchpad/comments/ynjp7/up_to_date_cm9_guide/
p509
VUp to date CM9 Guide?
p510
sVhttps://www.reddit.com/r/hearthstone/comments/4ati4h/wow_questing_to_level_20/
p511
VWOW Questing to level 20
p512
sVhttps://www.reddit.com/r/relationships/comments/3ymw85/how_do_i_20f_tell_my_new_boyfriend_24m_about_my/
p513
VHow do I [20F] tell my new boyfriend [24M] about my OLD self harm scars?
p514
sVhttps://www.reddit.com/r/1911/comments/35igzp/help_with_a_possible_trade/
p515
VHelp with a possible trade?
p516
sVhttps://www.reddit.com/r/explainlikeimfive/comments/1wa29o/eli5_how_does_nafta_benefit_the_countries_signed/
p517
VELI5: How does NAFTA benefit the countries signed onto it.
p518
sVhttps://www.reddit.com/r/GalaxyS3/comments/179tye/help_was_trying_to_install_cm101_when_the/
p519
VHELP! Was trying to install CM10.1 when the download failed. In the guide I was watching he said to backup s3 and then clear data and phone. Now my phone has no information on it. Is there any way to recover?
p520
sVhttps://www.reddit.com/r/buildapc/comments/41fhwr/troubleshooting_multiple_problems/
p521
V[Troubleshooting] Multiple problems
p522
sVhttps://www.reddit.com/r/DotA2/comments/46edrj/make_iron_talon_a_requirement_for_battlefurry/
p523
VMake Iron Talon a requirement for Battlefurry.
p524
sVhttps://www.reddit.com/r/stalker/comments/2x1235/need_help_in_valley_of_whispers_dolina_shorohov/
p525
VNeed help in Valley of Whispers (Dolina Shorohov)
p526
sVhttps://www.reddit.com/r/jailbreak/comments/qgbrz/easy_way_to_jailbreak_ipod_4g/
p527
VEasy way to Jailbreak iPod 4g
p528
sVhttps://www.reddit.com/r/buildapcforme/comments/26mbkn/please_help_8001100_ultra_gaminggraphic_design_pc/
p529
V[please help] $800-1100 ultra gaming/graphic design pc for the price!!!!!
p530
sVhttps://www.reddit.com/r/nyjets/comments/34g96m/predraft_lets_not_fuck_this_up_upvote_party/
p531
V~~~~PRE-DRAFT LETS NOT FUCK THIS UP UPVOTE PARTY~~~~
p532
sVhttps://www.reddit.com/r/deadliestcatch/comments/1cj5pf/who_is_your_favorite_captain_who_is_your_least/
p533
VWho is your favorite captain? Who is your least favorite captain?
p534
sVhttps://www.reddit.com/r/asktrp/comments/2nd4fd/after_or_during_swallowing_the_red_pill_how_did/
p535
VAfter (or during) swallowing the red pill, how did your hobbies/interest change, if at all, to orient you to more of a red pill lifestyle?
p536
sVhttps://www.reddit.com/r/dndnext/comments/3xp07s/how_bad_a_low_wisdom_save/
p537
VHow bad a low Wisdom save?
p538
sVhttps://www.reddit.com/r/leagueoflegends/comments/2251o0/lux_skin_please_riot/
p539
VLux Skin Please Riot
p540
sVhttps://www.reddit.com/r/truegaming/comments/1dxf7i/has_the_age_of_regular_updates_led_to_a_greater/
p541
VHas the age of regular updates led to a greater sense of entitlement in the gaming community? Have we become spoilt?
p542
sVhttps://www.reddit.com/r/playrust/comments/4jf2wb/a_simple_idea_to_help_improve_solo_play/
p543
VA Simple Idea to help improve Solo Play.
p544
sVhttps://www.reddit.com/r/elementaryos/comments/4gdsno/installing_from_usb_error/
p545
VInstalling from USB Error
p546
sVhttps://www.reddit.com/r/headphones/comments/2jc4ub/isolating_instruments/
p547
VIsolating instruments
p548
sVhttps://www.reddit.com/r/TalesFromRetail/comments/2fn3qz/how_my_retail_job_became_a_living_hell/
p549
VHow my retail job became a living hell.
p550
sVhttps://www.reddit.com/r/CyberSleuth/comments/4af1qy/question_about_new_game_plus/
p551
VQuestion about new game plus
p552
sVhttps://www.reddit.com/r/wwesupercard/comments/377ioi/log_in_bonus_is_it_the_same_for_everybody/
p553
VLog in Bonus: is it the same for everybody?
p554
sVhttps://www.reddit.com/r/Dogtraining/comments/236orn/any_tips_on_curbing_serious_feardefensive/
p555
VAny tips on curbing serious fear/defensive aggression towards strangers?
p556
sVhttps://www.reddit.com/r/resumes/comments/35g133/i_was_offered_a_job_but_the_manager_also/
p557
VI was offered a job, but the manager also mentioned that several of my references were critical of me, how should I handle this>
p558
sVhttps://www.reddit.com/r/funkopop/comments/3ikswe/flocked_simba_available_htcom/
p559
VFlocked Simba available @ HT.com
p560
sVhttps://www.reddit.com/r/BuildPC/comments/42yo6b/building_a_pc_for_oculus_rift/
p561
VBuilding a PC for Oculus Rift
p562
sVhttps://www.reddit.com/r/buildapc/comments/mmo8t/troubleshooting_random_hard_locks_bsods_under/
p563
V[Troubleshooting] Random hard locks / BSODs under heavy load
p564
sVhttps://www.reddit.com/r/peloton/comments/1ks26y/roadcc_prevuelta_standings_and_registration/
p565
V[road.cc] Pre-Vuelta Standings and Registration Reminder
p566
sVhttps://www.reddit.com/r/truegaming/comments/10gb8n/moba_control_scheme/
p567
VMOBA control scheme
p568
sVhttps://www.reddit.com/r/thedivision/comments/46jelz/is_there_a_resource_to_find_all_the_phonesintel/
p569
VIs there a resource to find all the phones/Intel?
p570
sVhttps://www.reddit.com/r/steroids/comments/1a95y6/understanding_testosterone_levels/
p571
VUnderstanding Testosterone Levels
p572
sVhttps://www.reddit.com/r/FUTMobile/comments/4d7v6k/dropped_down_two_divisions_this_game_is_becoming/
p573
VDropped down two divisions. This game is becoming a joke!
p574
sVhttps://www.reddit.com/r/SRSsucks/comments/1hdosc/exposing_the_truth_about_the_ban_of_rners/
p575
VExposing the truth about the ban of /r/n****ers
p576
sVhttps://www.reddit.com/r/edmundm/comments/2x2sxp/host/
p577
VHOST
p578
sVhttps://www.reddit.com/r/Throwers/comments/2rn11n/beginner_fine_tuning_my_throwing/
p579
VBeginner: Fine tuning my throwing
p580
sVhttps://www.reddit.com/r/leagueoflegends/comments/1mgmh2/big_thanks_to_riot_for_getting_monte_for_analyst/
p581
VBig thanks to Riot for getting Monte for analyst desk!
p582
sVhttps://www.reddit.com/r/dominion/comments/1yypuy/trader_question/
p583
VTrader question
p584
sVhttps://www.reddit.com/r/noveltranslations/comments/406a4h/cn_heavenly_jewel_change_book_6_chapter_42_part_1/
p585
V[CN] Heavenly Jewel Change - Book 6 Chapter 42 (Part 1)
p586
sVhttps://www.reddit.com/r/ShouldIbuythisgame/comments/4cga1r/sib_masters_of_orion_collectors_edition/
p587
V[SIB] Master's of Orion: Collector's Edition
p588
sVhttps://www.reddit.com/r/MMA/comments/4jgm0c/spoilers_mostleast_surprising_fight_results/
p589
V[Spoilers] Most/Least Surprising Fight Results (motherfuckers)
p590
sVhttps://www.reddit.com/r/tarantulas/comments/2y2y3l/a_question_thats_been_bothering_me_about_freebies/
p591
VA question that's been bothering me about "freebies" from online sellers...
p592
sVhttps://www.reddit.com/r/wildwhittlers/comments/2vgpg2/im_sorry_i_know_there_are_a_lot_of_these_but_i/
p593
VI'm sorry I know there are a lot of these but I have 3 questions and I haven't found one yet that answers my last 2 questions.
p594
sVhttps://www.reddit.com/r/WildStar/comments/3yf14r/hey_so_when_i_try_to_launch_the_game_i_get_this/
p595
VHey so when I try to launch the game I get this error can anyone help?
p596
sVhttps://www.reddit.com/r/EliteDangerous/comments/4k7o5w/disrupt_the_neits_cg_heres_how/
p597
VDisrupt the neits CG heres how
p598
sVhttps://www.reddit.com/r/thedivision/comments/410gb6/level_advantage/
p599
VLevel advantage
p600
sVhttps://www.reddit.com/r/techsupport/comments/2s1gkg/help_recovering_drive_data_from_img_file/
p601
VHelp recovering drive data from .img file
p602
sVhttps://www.reddit.com/r/conlangs/comments/3c5j1o/presenting_ixikyinn_my_first_conlang/
p603
VPresenting ixiKyinn, my first conlang!
p604
sVhttps://www.reddit.com/r/wow/comments/3blhdr/what_do_the_different_mage_specs_do/
p605
VWhat do the different mage specs do?
p606
sVhttps://www.reddit.com/r/malefashionadvice/comments/1k2mgq/i_need_help_with_outfits_to_go_with_this/
p607
VI need help with outfits to go with this particular long coat.
p608
sVhttps://www.reddit.com/r/homelab/comments/2odo8x/new_homelab/
p609
VNew homelab
p610
sVhttps://www.reddit.com/r/LearnJapanese/comments/48dk4f/im_looking_for_something_like_realkana_but_with/
p611
VI'm looking for something like Realkana, but with strings/sentences of kana characters that are also actual words. Outside of Anki decks, does such a thing exist?
p612
sVhttps://www.reddit.com/r/bindingofisaac/comments/4kjaic/the_lost_unlock_on_wii_u/
p613
VThe Lost unlock on Wii U?
p614
sVhttps://www.reddit.com/r/ideasfortheadmins/comments/7ziwp/please_give_us_the_ability_to_see_what_subreddits/
p615
VPlease give us the ability to see what subreddits someone moderates in their user profile.
p616
sVhttps://www.reddit.com/r/Guildwars2/comments/qucf9/me_and_the_girlfriend_was_wondering_if_the_combat/
p617
VMe and the girlfriend was wondering if the combat in GW2 is similar to that in Kingdoms of Amalur: Reckoning?
p618
sVhttps://www.reddit.com/r/space/comments/392xse/ldsd_parachute_is_partially_deployed/
p619
VLDSD Parachute is Partially Deployed
p620
sVhttps://www.reddit.com/r/buildapc/comments/2sqie0/is_this_an_atx_or_microatx_mobo/
p621
VIs this an ATX or Micro-ATX Mobo?
p622
sVhttps://www.reddit.com/r/webdev/comments/4igxug/creating_a_site_to_go_along_with_a_school_project/
p623
VCreating a site to go along with a school project - need a simple backend solution
p624
sVhttps://www.reddit.com/r/Coffee/comments/40upol/i_have_an_8_cup_chemex_what_if_i_want_to_make_4/
p625
VI have an 8 cup Chemex. What if I want to make 4 cups. Is that possible? What changes do I need to make.
p626
sVhttps://www.reddit.com/r/buildapc/comments/1trddi/i_just_bought_a_pny_geforce_gtx_650_and_i_cant/
p627
Vi just bought a PNY Geforce GTX 650, and I can't seem to get it to work.
p628
sVhttps://www.reddit.com/r/evangelion/comments/16mxbe/something_i_noticed_about_mari_spoilers/
p629
VSomething I noticed about Mari (spoilers)
p630
sVhttps://www.reddit.com/r/Health/comments/tdtoq/question_about_birth_control_and_possible/
p631
VQuestion about birth control and possible pregnancy...
p632
sVhttps://www.reddit.com/r/GODZILLA/comments/2c2url/favorite_roars/
p633
VFavorite Roars
p634
sVhttps://www.reddit.com/r/guns/comments/29hzwp/quick_questions_on_fixing_up_an_old_german_ww2/
p635
VQuick questions on fixing up an old german ww2 rifle.
p636
sVhttps://www.reddit.com/r/Games/comments/2wyqgj/chris_roberts_says_star_citizen_is_about_to_start/
p637
VChris Roberts says Star Citizen is about to start coming together
p638
sVhttps://www.reddit.com/r/shittyadvice/comments/1dyg5f/both_of_my_girlfriends_have_trust_issues_help/
p639
VBoth of my girlfriends have trust issues. Help?
p640
sVhttps://www.reddit.com/r/askmath/comments/29x3n0/algebraic_structures_group_and_field/
p641
VAlgebraic Structures: Group and Field
p642
sVhttps://www.reddit.com/r/legaladvice/comments/4cfioo/beaver_dams_in_county_drain_flooding_homes/
p643
VBeaver dams in county drain flooding homes
p644
sVhttps://www.reddit.com/r/flying/comments/39r81f/what_can_i_do_to_keep_me_satisfied_while_i_wait/
p645
VWhat can I do to keep me satisfied(?) while I wait until I can solo?
p646
sVhttps://www.reddit.com/r/circlejerk/comments/2uc12h/i_am_dan_k_meme_ama/
p647
VI am Dan K. Meme. AMA
p648
sVhttps://www.reddit.com/r/asktransgender/comments/10556k/what_to_do/
p649
VWhat to do
p650
sVhttps://www.reddit.com/r/linux/comments/1ldmw6/devurandom_very_slow/
p651
V/dev/urandom very slow
p652
sVhttps://www.reddit.com/r/Bellingham/comments/2dk0lr/good_first_date_places/
p653
VGood First Date Places?
p654
sVhttps://www.reddit.com/r/gaming/comments/1hb0kd/the_last_of_us_is_great_so_far_but_something/
p655
VThe Last of Us is great so far, but something keeps bugging me (No Plot Spoilers)
p656
sVhttps://www.reddit.com/r/MURICA/comments/3z2qdb/my_view_on_gun_control_dont_know_the_proper_place/
p657
VMy view on gun control. Don't know the proper place to post this.
p658
sVhttps://www.reddit.com/r/htcone/comments/1uelmj/cm_11/
p659
VCM 11
p660
sVhttps://www.reddit.com/r/skyrim/comments/1pw7gh/skyrim_permadeath_roleplay_part_1/
p661
VSkyrim Permadeath Roleplay - Part 1
p662
sVhttps://www.reddit.com/r/BadSocialScience/comments/2er7z1/muh_habitus/
p663
VMuh habitus
p664
sVhttps://www.reddit.com/r/Lightpack/comments/28097w/prismatik_ambi_box_eating_cpu/
p665
VPrismatik & ambi box eating CPU
p666
sVhttps://www.reddit.com/r/battlestations/comments/119kki/dorm_style/
p667
VDorm Style
p668
sVhttps://www.reddit.com/r/roosterteeth/comments/2j44rx/if_you_were_going_to_be_on_an_episode_of_quick/
p669
VIf you were going to be on an episode of "Quick Draw, With Patrick", what would you ask him to draw you as?
p670
sVhttps://www.reddit.com/r/pcmasterrace/comments/2rjkdx/help_me_rpcmasterrace_youre_my_only_help/
p671
VHelp me /r/pcmasterrace, you're my only help!
p672
sVhttps://www.reddit.com/r/cars/comments/3e72rv/all_motor_ford_taurus_runs_an_118x_in_the_14_mile/
p673
VAll motor Ford Taurus runs an 11.8x in the 1/4 mile.
p674
sVhttps://www.reddit.com/r/aion/comments/4d04ps/just_like_most_of_these_posts_should_i_play/
p675
VJust like most of these posts, should I play?
p676
sVhttps://www.reddit.com/r/Christianity/comments/19kaws/not_a_christian_but_have_a_question/
p677
VNot a Christian, but have a question.
p678
sVhttps://www.reddit.com/r/criticalrole/comments/4lf8gv/no_spoilers_come_on_guys_stop_the_flaming/
p679
V[No Spoilers] Come on guys, stop the flaming
p680
sVhttps://www.reddit.com/r/tifu/comments/27qzjj/tifu_by_adjusting_my_package_and_picking_my_nose/
p681
VTIFU by adjusting my package and picking my nose.
p682
sVhttps://www.reddit.com/r/VINChecks/comments/2wvnor/full_2007_toyota_camry_xle/
p683
V[FULL] 2007 Toyota Camry XLE
p684
sVhttps://www.reddit.com/r/buildapc/comments/2w351t/build_help_600800_upgrade/
p685
V[Build Help] $600-800 upgrade
p686
sVhttps://www.reddit.com/r/destinyknot/comments/1urjh5/h_5iv_imperfect_charmanders_and_4iv_female_noibat/
p687
V[H] 5IV imperfect Charmanders and 4IV Female Noibat [W] Chlorophyll female Bulbasaur.
p688
sVhttps://www.reddit.com/r/whitecapsfc/comments/24tr4i/whitcaps_vs_tfc_viewing_in_new_west/
p689
VWhitcaps vs TFC viewing in New West?
p690
sVhttps://www.reddit.com/r/buildapc/comments/zmb80/build_help_i_need_a_decision_now_and_i_dont_know/
p691
V[Build Help] I need a decision now and I dont know what to do. LGA 1155 or 2011
p692
sVhttps://www.reddit.com/r/bloodborne/comments/4cvhw2/chalice_dungeon_help_anyone/
p693
VChalice dungeon help anyone?
p694
sVhttps://www.reddit.com/r/goodyearwelt/comments/24rxbp/apprehensions_about_handsewns/
p695
VApprehensions about handsewns
p696
sVhttps://www.reddit.com/r/teenagers/comments/2bxinw/those_nights_where_youre_stuck_thinking_about/
p697
VThose nights where you're stuck thinking about your future [social]
p698
sVhttps://www.reddit.com/r/trees/comments/4awb8j/took_my_first_dabs_today/
p699
VTook my first dab(s) today
p700
sVhttps://www.reddit.com/r/buildapc/comments/1nsfo9/is_there_any_reason_not_to_use_an_amd_fx_8350/
p701
VIs there any reason not to use an amd fx 8350 over an intel i5 4670?
p702
sVhttps://www.reddit.com/r/medlabprofessionals/comments/3zh33c/anyone_work_at_mayo_clinic_in_ohio/
p703
VAnyone work at Mayo Clinic (in Ohio)?
p704
sVhttps://www.reddit.com/r/nosgoth/comments/2z0j90/why_help_the_razielim_the_other_clans/
p705
VWhy help the Razielim the other clans?
p706
sVhttps://www.reddit.com/r/reloading/comments/1pc7zr/what_is_your_favorite_press_or_what_do_you_think/
p707
VWhat is your favorite press, or what do you think the best reloading product company is and why?
p708
sVhttps://www.reddit.com/r/crayonpop/comments/19l4vn/crayon_pop_tv_ep_10/
p709
VCrayon Pop TV Ep 10!
p710
sVhttps://www.reddit.com/r/electronic_cigarette/comments/4cc5xw/question_how_to_get_in_contact_with_aspiring/
p711
VQuestion, how to get in contact with aspiring juice makers / Vapeshops
p712
sVhttps://www.reddit.com/r/blackberry/comments/19luk7/i_have_a_new_z10_on_wind_mobile_any_clue_on_the/
p713
VI have a new Z10 on Wind Mobile. Any clue on the  update to 10.0.10.85?
p714
sVhttps://www.reddit.com/r/formula1/comments/1ap72a/question_about_ferrari_drivers_red_chair_in_garage/
p715
VQuestion about Ferrari drivers' red chair in garage?
p716
sVhttps://www.reddit.com/r/ripcity/comments/r5d15/caution_blazersedge_deleting_comments_and_banning/
p717
VCaution: Blazersedge deleting comments and banning accounts
p718
sVhttps://www.reddit.com/r/electronic_cigarette/comments/2q4bsi/newbie_needs_help_replacing_nautilus_mini/
p719
VNewbie needs help replacing Nautilus Mini
p720
sVhttps://www.reddit.com/r/Marvel/comments/tk5mz/in_need_of_some_help_rmarvel_im_really_wanting_to/
p721
VIn need of some help r/marvel.  Im really wanting to get into The Incredible Hulk comics. What's a really good starting point and/or story arc?
p722
sVhttps://www.reddit.com/r/PS3/comments/gi91t/headset_recommendations/
p723
VHeadset Recommendations
p724
sVhttps://www.reddit.com/r/paradoxplaza/comments/18udz4/how_do_i_stop_france_i_have_created_a_monster_of/
p725
VHow do I stop france ;_; I have created a monster of my own making and I can't undo it.
p726
sVhttps://www.reddit.com/r/magicTCG/comments/1ogeun/differences_between_mtgo_and_paper_drafting/
p727
VDifferences between mtgo and paper drafting.
p728
sVhttps://www.reddit.com/r/Warframe/comments/2cz29k/90_day_affinity_and_credit_boosters/
p729
V90 day affinity and credit boosters
p730
sVhttps://www.reddit.com/r/pcmasterrace/comments/3a1868/does_anybody_know_at_what_time_the_amd/
p731
VDoes anybody know at what time the AMD presentation will be for the netherlands?
p732
sVhttps://www.reddit.com/r/nosleep/comments/1isdw0/there_was_a_really_creepy_customer_where_i_work/
p733
VThere was a really creepy customer where I work today and now I'm freaking out. (Final Update)
p734
sVhttps://www.reddit.com/r/leagueoflegends/comments/2zwdpp/how_many_of_you_would_play_a_1v1_designed_map/
p735
VHow many of you would play a 1v1 designed map ?
p736
sVhttps://www.reddit.com/r/grammar/comments/33g728/can_i_use_dash_in_this_sentencesorry_for_not/
p737
VCan I use dash in this sentence:"Sorry for not contacting you this whole time\u2014 the last meeting was intense."
p738
sVhttps://www.reddit.com/r/edmproduction/comments/2xm2nu/need_help_with_warping/
p739
VNeed help with Warping!
p740
sVhttps://www.reddit.com/r/CrusaderKings/comments/2amj2n/trouble_moving_troops/
p741
VTrouble Moving Troops
p742
sVhttps://www.reddit.com/r/synthesizers/comments/3yl7ek/issue_with_my_korg_ms2000r/
p743
VIssue with my Korg ms2000r
p744
sVhttps://www.reddit.com/r/gaming/comments/i0qyv/valve_vs_ea_heres_what_happened/
p745
VValve vs. EA - here's what happened.
p746
sVhttps://www.reddit.com/r/self/comments/14v8zf/for_some_reason_comedy_central_is_airing_those/
p747
VFor some reason, Comedy Central is airing those black and white 'Bod' body cologne commercials from the  90s. 
p748
sVhttps://www.reddit.com/r/relationships/comments/42qpl3/me_21f_with_my_ex_coworker_29m_of_half_a_year_is/
p749
VMe [21F] with my ex co-worker [29M] of half a year, is age difference a huge problem and advice?
p750
sVhttps://www.reddit.com/r/lgbt/comments/2us465/the_most_frequented_lgbtq_subreddits/
p751
VThe most frequented LGBTQ+ subreddits.
p752
sVhttps://www.reddit.com/r/KeepWriting/comments/4bkh77/discussion_geographic_symbolism_in_literature/
p753
V[Discussion] Geographic symbolism in literature.
p754
sVhttps://www.reddit.com/r/anchorage/comments/1b098s/have_a_decent_chance_of_getting_a_job_in/
p755
VHave a decent chance of getting a job in Anchorage. What should I know before I move here?
p756
sVhttps://www.reddit.com/r/asktrp/comments/2jbud8/dealing_with_women_phones_and_trust/
p757
VDealing with Women, phones and trust.
p758
sVhttps://www.reddit.com/r/leagueoflegends/comments/2godv3/wither_should_affect_yasuos_steel_tempest/
p759
Vwither should affect yasuo's steel tempest
p760
sVhttps://www.reddit.com/r/Windows10/comments/3fuedo/everything_is_blank_windows_10/
p761
VEVERYTHING is blank Windows 10
p762
sVhttps://www.reddit.com/r/elderscrollsonline/comments/2urzo7/what_eso_going_sub_free/
p763
VWhat! ESO going sub free?
p764
sVhttps://www.reddit.com/r/webdev/comments/1lmr7o/10_year_experience_programmer_seeking_advice_on/
p765
V10+ year experience programmer seeking advice on choosing a new language/stack
p766
sVhttps://www.reddit.com/r/audio/comments/4lw8lp/how_to_connect_an_audio_interface_and_dac_amp_to/
p767
VHow to connect an audio interface and DAC/ AMP to active monitors
p768
sVhttps://www.reddit.com/r/skyrim/comments/3x3hxs/possible_ps3_bug_does_anyone_elses_character/
p769
VPossible PS3 Bug? Does anyone else's character sheathe their weapons in the middle of combat when switching between stealth and non-stealth?
p770
sVhttps://www.reddit.com/r/civbattleroyale/comments/4eza74/city_capture_data_for_parts_5051/
p771
VCity Capture Data for Parts 50-51
p772
sVhttps://www.reddit.com/r/CHIBears/comments/39gbl8/te_tim_wright_released_by_pats_xpost_from_rnfl/
p773
VTE Tim Wright released by Pats x-post from /r/nfl
p774
sVhttps://www.reddit.com/r/AdviceAnimals/comments/4a78u1/dodged_a_bullet_big_time/
p775
VDodged a bullet... big time.
p776
sVhttps://www.reddit.com/r/xxfitness/comments/2sigov/question_is_it_possible_to_lose_weight_as_fast_as/
p777
V[QUESTION] Is it possible to lose weight as fast as I put it on?
p778
sVhttps://www.reddit.com/r/minipainting/comments/33etgs/starting_airbrushing_for_under_300/
p779
VStarting airbrushing for under 300$
p780
sVhttps://www.reddit.com/r/personalfinance/comments/1ixlxz/looking_for_advice_on_a_car_loan/
p781
VLooking for advice on a car loan
p782
sVhttps://www.reddit.com/r/fivenightsatfreddys/comments/3itleb/random_thought_of_the_night_isnt_springtrap/
p783
VRandom thought of the night; isn't Springtrap technically a cyborg?
p784
sVhttps://www.reddit.com/r/HoloLens/comments/34u8vn/why_hololens_will_be_popular_among_writers/
p785
VWhy HoloLens will be popular among writers
p786
sVhttps://www.reddit.com/r/nvidia/comments/4bm9x9/one_more_980ti_or_wait_for_new_nvidia_cards/
p787
Vone more 980ti or wait for new nvidia cards?
p788
sVhttps://www.reddit.com/r/jailbreak/comments/3d7j8r/tutorial_how_to_i_safely_rid_a_phone_of_jailbreak/
p789
V[Tutorial] How to I safely rid a phone of jailbreak?
p790
sVhttps://www.reddit.com/r/dayz/comments/17wya3/i_want_to_ask_you_guys_if_my_friend_can_run_dayz/
p791
VI want to ask you guys if my friend can run DayZ on lowest settings.
p792
sVhttps://www.reddit.com/r/mintuit/comments/49dzy0/double_counting_spending_transactions/
p793
Vdouble counting spending transactions ?
p794
sVhttps://www.reddit.com/r/r4r/comments/2cuw9e/22_f4r_anywhere_international_friends/
p795
V22 [F4R] Anywhere - International Friends!
p796
sVhttps://www.reddit.com/r/puregrease/comments/1l1m5j/accept_jesus/
p797
VAccept Jesus
p798
sVhttps://www.reddit.com/r/electronic_cigarette/comments/1g6fzc/myvaporgasm/
p799
VMyvaporgasm
p800
sVhttps://www.reddit.com/r/Firefighting/comments/32xyk4/when_the_alarm_sounds_at_2am_after_a_long_day_of/
p801
VWhen the alarm sounds at 2am after a long day of work.
p802
sVhttps://www.reddit.com/r/explainlikeimfive/comments/4acs7u/eli5_how_do_dogs_sense_blood_pressure_levels_in/
p803
VELI5: How do dogs sense blood pressure levels in diabetics?
p804
sVhttps://www.reddit.com/r/relationship_advice/comments/to8g3/need_helpadvice_on_saving_a_long_term_relationship/
p805
VNeed help/advice on saving a long term relationship
p806
sVhttps://www.reddit.com/r/travel/comments/2wu0xt/denied_at_airport_due_to_damaged_passport_help/
p807
VDenied at airport due to damaged passport. Help
p808
sVhttps://www.reddit.com/r/electronic_cigarette/comments/3vtitg/battery_amps_question/
p809
VBattery amps question
p810
sVhttps://www.reddit.com/r/conlangs/comments/2bwl6g/root_system_of_wagthen_ideas_to_improve/
p811
VRoot system of Wagthen- ideas to improve?
p812
sVhttps://www.reddit.com/r/stormchasing/comments/36bqnd/quick_question_about_divotscircles_on_the_ground/
p813
VQuick question about divots/circles on the ground- Jarrell, TX tornado
p814
sVhttps://www.reddit.com/r/discgolf/comments/1b3fxv/my_bag/
p815
VMy bag.
p816
sVhttps://www.reddit.com/r/leangains/comments/2av7ah/simple_web_app_and_android_app_i_built_to_search/
p817
VSimple Web app and Android app I built to search foods at chain restaurants by calories and macros [x-post].
p818
sVhttps://www.reddit.com/r/mtgfinance/comments/22si7v/fetch_lands_dropping_in_price_think_well_see/
p819
VFetch lands dropping in price. Think we'll see Scalding Tarns in the 50 dollar low price range?
p820
sVhttps://www.reddit.com/r/rawdenim/comments/2ldh1e/oni_517xx_7_months/
p821
VONI 517XX (7 months)
p822
sVhttps://www.reddit.com/r/buildapc/comments/2jlt9v/build_help_780_ti_or_980_and_what_brand/
p823
V[Build Help] 780 TI or 980 and what brand?
p824
sVhttps://www.reddit.com/r/GlobalOffensive/comments/4lbuq4/buffalo_wild_wings_showing_eleague/
p825
VBuffalo Wild Wings showing E-League?
p826
sVhttps://www.reddit.com/r/thedivision/comments/49sb5d/i_need_of_some_helpadvise_about_this_game/
p827
VI need of some help/advise about this game "EX-guardian" inside.
p828
sVhttps://www.reddit.com/r/mildlyinteresting/comments/4dibeq/the_date_stamp_on_this_bottle_was_unaffected_by/
p829
VThe date stamp on this bottle was unaffected by its condensation.
p830
sVhttps://www.reddit.com/r/techsupport/comments/3a4dg8/bought_new_video_card_and_psu_frequent_crashing/
p831
Vbought new video card and psu; frequent crashing ever since
p832
sVhttps://www.reddit.com/r/gamemaker/comments/3behum/gmsgmlhow_can_i_make_the_game_look_for_a_file_in/
p833
V[GMS][GML]How can I make the game look for a file in a directory?
p834
sVhttps://www.reddit.com/r/SuggestALaptop/comments/26uyuz/want_something_that_wont_break_1415_usa_300500/
p835
VWant something that won't break. 14-15", USA, 300-500.
p836
sVhttps://www.reddit.com/r/asoiaf/comments/3zbw2n/spoiler_all_a_note_on_a_character_grrm_talked/
p837
V(Spoiler All) A note on a character GRRM talked about in his last post
p838
sVhttps://www.reddit.com/r/jailbreak/comments/3ydont/request_tweak_to_hide_the_status_bar_on/
p839
V[Request] Tweak to hide the status bar on Springboard
p840
sVhttps://www.reddit.com/r/rupaulsdragrace/comments/4lmuwj/did_anyone_else_fall_asleep/
p841
VDid anyone else fall asleep?
p842
sVhttps://www.reddit.com/r/fo4/comments/4ep30s/spoilers_bethesdas_missed_mark_on_unique/
p843
V**[SPOILERS]** Bethesda's missed mark on unique recruit-able settlers.
p844
sVhttps://www.reddit.com/r/civ/comments/2zo483/bnw_how_to_play_babylon/
p845
V[BNW] How to play Babylon?
p846
sVhttps://www.reddit.com/r/AskHistorians/comments/2ns3zy/was_hannibal_black/
p847
VWas Hannibal black?
p848
sVhttps://www.reddit.com/r/thewitcher3/comments/3iq9qh/my_one_big_problem_with_the_witcher_3/
p849
VMy one big 'problem' with The Witcher 3.
p850
sVhttps://www.reddit.com/r/solotravel/comments/2jxz66/hostel_recommendations_in_ubud_bali/
p851
VHostel Recommendations in Ubud, Bali??
p852
sVhttps://www.reddit.com/r/gamegrumps/comments/33mttj/game_grumps_and_youtubers_allowed_to_sing_now/
p853
VGame Grumps (and YouTubers) allowed to "sing" now
p854
sVhttps://www.reddit.com/r/ptsd/comments/272t3w/why_is_it_common_for_victims_of_trauma_to_get/
p855
VWhy is it common for victims of trauma to get retraumatized, sometimes many times?
p856
sVhttps://www.reddit.com/r/gameofthrones/comments/4ljxf8/s6_what_i_feel_this_season_lacks/
p857
V[S6] What I feel this season lacks
p858
sVhttps://www.reddit.com/r/ApplyingToCollege/comments/4jeje4/is_there_a_list_of_schools_that_look_at_intended/
p859
VIs there a list of schools that look at intended majors?
p860
sVhttps://www.reddit.com/r/hockeycards/comments/4b4qsa/sales_official_steals_and_deals_thread_31816/
p861
V[SALES] Official Steals and Deals Thread - 3/18/16 through 3/24/16
p862
sVhttps://www.reddit.com/r/vita/comments/2o4com/game_of_thrones_ep_1_apparently_releasing_on/
p863
VGame of Thrones EP 1 apparently releasing on December 2nd on Vita as well
p864
sVhttps://www.reddit.com/r/dayz/comments/2lq3tg/stuck_in_a_portapotty/
p865
VStuck in a porta-potty
p866
sVhttps://www.reddit.com/r/selfpublish/comments/48jg7y/launch_parties/
p867
VLaunch Parties
p868
sVhttps://www.reddit.com/r/wow/comments/364wec/garrison_question_can_you_outgear_missions/
p869
VGarrison question. Can you 'outgear' missions?
p870
sVhttps://www.reddit.com/r/applehelp/comments/27gooo/bootcamp_partition_shows_up_in_disk_utility_but/
p871
VBootcamp partition shows up in disk utility but when I try to boot using ALT key I only see my mac disk & recovery? Help please
p872
sVhttps://www.reddit.com/r/ripcity/comments/4ag8l7/nba_draft_2nd_round_where_can_we_buy_in_and_who/
p873
VNBA Draft 2nd Round: Where can we buy in, and who do we pick?
p874
sVhttps://www.reddit.com/r/uncharted/comments/4lhh88/uncharted_4_crushing_is_extremely_difficult/
p875
VUncharted 4 Crushing is extremely difficult.
p876
sVhttps://www.reddit.com/r/gaming/comments/qtwhv/my_personal_question_regarding_dlc_longwinded_so/
p877
VMy personal question regarding DLC (Long-winded, so it won't all fit in the title).
p878
sVhttps://www.reddit.com/r/worldnews/comments/2arhjv/uks_new_energy_environment_ministers_opposed/
p879
VUK's New Energy & Environment Ministers Opposed Green Energy - Energy minister, Matthew Hancock, signed letter calling for cuts to wind power subsidies & environment secretary, Liz Truss, claimed renewable power was damaging the economy
p880
sVhttps://www.reddit.com/r/relationships/comments/3j063c/me_16_m_with_my_friend_17_f_gets_awkward_i_dont/
p881
VMe [16 M] with my friend [17 /F], gets awkward, I don't know what to do.
p882
sVhttps://www.reddit.com/r/AskReddit/comments/1y9lal/men_of_reddit_which_would_you_prefer_two_6s_at/
p883
VMen of reddit, which would you prefer: Two 6's at the same time or one 10?
p884
sVhttps://www.reddit.com/r/askcarsales/comments/38nvli/bought_cpo_now_potentially_facing_a_400_repair/
p885
VBought CPO - now potentially facing a $400 repair?!
p886
sVhttps://www.reddit.com/r/tmobile/comments/39j0qb/psa_motos_51_update_to_the_2015_moto_e_disables/
p887
VPSA - Moto's 5.1 Update to the 2015 Moto E Disables Band 12
p888
sVhttps://www.reddit.com/r/wrestlingisreddit/comments/2f1gqj/what_youve_waited_all_week_for_im_jack_anchor_amaa/
p889
VWhat you've waited all week for! I'm Jack Anchor, AMAA
p890
sVhttps://www.reddit.com/r/sgsflair/comments/24xggi/flair_profile_umanmana/
p891
V[Flair Profile] /u/manmana
p892
sVhttps://www.reddit.com/r/ableton/comments/1hu9ki/whos_a_pro_here/
p893
VWho's a pro here?
p894
sVhttps://www.reddit.com/r/circlejerk/comments/si27x/i_am_a_21_year_old_white_atheist_american_male/
p895
VI am a 21 year old white Atheist American male. AMA about how other countries should be run
p896
sVhttps://www.reddit.com/r/woodworking/comments/22omh9/how_difficult_is_it_to_make_a_half_decent/
p897
Vhow difficult is it to make a half decent handplane at home out of wood using an old saw blade for a steel?
p898
sVhttps://www.reddit.com/r/MonsterHunter/comments/2h4i3m/i_just_got_to_high_rank_what_should_i_do_now/
p899
VI just got to high rank what should I do now?
p900
sVhttps://www.reddit.com/r/MigrantFleet/comments/3dme4r/waits_in_the_mess_hall_of_the_avius/
p901
V*Waits in the mess hall of the Avius*
p902
sVhttps://www.reddit.com/r/eindhoven/comments/4bu1x1/got_fined_in_stratumseind_but_never_received_the/
p903
VGot fined in Stratumseind but never received the ticket
p904
sVhttps://www.reddit.com/r/Civcraft/comments/21qdrr/krosh_griefing_a_day_after_he_was_released_50d/
p905
VKrosh_ griefing a day after he was released. 50d bounty.
p906
sVhttps://www.reddit.com/r/taiwan/comments/36hmli/i_will_be_representing_taiwan_at_an_mun/
p907
VI will be representing Taiwan at an MUN Conference. Any points or problems you'd like me to share/implement?
p908
sVhttps://www.reddit.com/r/urbanfarming/comments/2lbpoy/what_is_the_term_used_for_people_who_plant/
p909
VWhat is the term used for people who plant gardens in public places without permission?
p910
sVhttps://www.reddit.com/r/Khador/comments/3eejcy/komrades_i_request_advice_in_dealing_with_skorne/
p911
VKomrades, I request advice in dealing with Skorne.
p912
sVhttps://www.reddit.com/r/picrequests/comments/1ffatw/request_just_put_a_scumbag_steve_hat_on_this_guy/
p913
V[Request] Just put a scumbag steve hat on this guy
p914
sVhttps://www.reddit.com/r/buildapc/comments/3vv8bw/so_i_randomly_decided_to_set_up_a_nas/
p915
VSo I randomly decided to set up a NAS.
p916
sVhttps://www.reddit.com/r/StardewValley/comments/4ahr4u/suggestion_make_kegs_etc_stackable_please/
p917
V[Suggestion] Make kegs etc. stackable please
p918
sVhttps://www.reddit.com/r/Smite/comments/2r6j90/its_casuals_so_we_can_do_whatever_we_want_rant/
p919
V"It's casuals, so we can do whatever we want!" rant.
p920
sVhttps://www.reddit.com/r/techsupport/comments/35n4ds/hdd_is_dead_on_pc_with_preinstalled_w8_how_would/
p921
VHDD is dead on PC with preinstalled W8, how would I go about replacing it?
p922
sVhttps://www.reddit.com/r/MotoX/comments/2939av/not_a_huge_fan_of_google_play_music/
p923
VNot a huge fan of Google Play Music
p924
sVhttps://www.reddit.com/r/SquaredCircle/comments/4l491f/meltzer_on_shawn_michaelsaj_styles_comparison/
p925
VMeltzer on Shawn Michaels/AJ Styles comparison
p926
sVhttps://www.reddit.com/r/wow/comments/32jid7/is_hellfire_citadel_the_final_raid/
p927
VIs Hellfire Citadel the final raid?
p928
sVhttps://www.reddit.com/r/fweddit/comments/uezxo/fweddit_fleet_info_for_rookies/
p929
VFweddit Fleet info for Rookies?
p930
sVhttps://www.reddit.com/r/HondaCB/comments/29cfeq/are_cls_welcome_here_as_well/
p931
VAre CL's welcome here as well?
p932
sVhttps://www.reddit.com/r/atheism/comments/4bgz9f/how_to_stop_a_forced_first_communion/
p933
VHow to stop a forced first communion
p934
sVhttps://www.reddit.com/r/oculus/comments/3gikpv/new_nvidiaamd_graphics_cards/
p935
VNew Nvidia/AMD graphics cards?
p936
sVhttps://www.reddit.com/r/Audi/comments/19zkyo/anyone_know_how_much_it_would_cost_to_replace_a/
p937
VAnyone know how much it would cost to replace a '97 A4's transmission?
p938
sVhttps://www.reddit.com/r/naut/comments/4gj0dp/how_to_change_submit_your_post_to_reddit_to/
p939
VHow to change "Submit your post to Reddit" to "Submit your post to r/ArtisanGifts" ?
p940
sVhttps://www.reddit.com/r/tmobile/comments/3irzlb/going_international_are_the_roaming_features_as/
p941
VGoing international. Are the roaming features as good as they sound?
p942
sVhttps://www.reddit.com/r/thedivision/comments/4bp1qz/players_who_bought_new_york_collapse_what_are/
p943
VPlayers who bought New York Collapse, what are your opinions, and how did you tackle reading it?
p944
sVhttps://www.reddit.com/r/arduino/comments/4dcbwl/serialread_only_receives_data_if_i_use_serialprint/
p945
VSerial.read() only receives data if I use serial.print() ?
p946
sVhttps://www.reddit.com/r/IronThronePowers/comments/3e1px7/lorerp_time/
p947
V[Lore/RP] Time
p948
sVhttps://www.reddit.com/r/feedthebeast/comments/417p4b/are_thermalilies_bugged_in_infinity_evolved/
p949
VAre Thermalilies bugged in infinity evolved expert mode 2.3.5?
p950
sVhttps://www.reddit.com/r/ffxiv/comments/1cexp2/a_few_questions_that_may_or_may_not_have_an_answer/
p951
VA few questions that may or may not have an answer...
p952
sVhttps://www.reddit.com/r/trees/comments/4bug3a/reaching_a_10_with_a_high_tolerance/
p953
Vreaching a 10 with a high tolerance
p954
sVhttps://www.reddit.com/r/asktrp/comments/39tknw/can_you_have_too_much_self_confidence/
p955
VCan you have too much self confidence?
p956
sVhttps://www.reddit.com/r/splatoon/comments/46o55h/renewed_my_love_of_games/
p957
VRenewed my love of games
p958
sVhttps://www.reddit.com/r/tails/comments/1z04p9/upgraded_to_tails_0221_but_recently_cant_open/
p959
VUpgraded to tails 0.22.1 but recently can't open persistent volume
p960
sVhttps://www.reddit.com/r/mylittlepony/comments/3d7yff/i_feel_so_at_home_here_from_rsquaredcircle/
p961
VI feel so at home here (From r/SquaredCircle)
p962
sVhttps://www.reddit.com/r/admincraft/comments/q79zg/my_host_provider_lost_all_of_my_data/
p963
VMy Host Provider Lost ALL of my Data
p964
sVhttps://www.reddit.com/r/teenagers/comments/4dnq3i/hi_rteenagers_today_ill_teach_you_how_to_accept/
p965
VHi, /r/Teenagers, today I'll teach you how to accept an opinion
p966
sVhttps://www.reddit.com/r/learnprogramming/comments/4d1etw/cc_program_memory_easily_the_most_helpful_book/
p967
VC/C++ Program Memory - Easily the most helpful book I've ever read.
p968
sVhttps://www.reddit.com/r/RWBY/comments/2jhml5/photoshop_challenge/
p969
VPhotoshop Challenge?
p970
sVhttps://www.reddit.com/r/paydaytheheist/comments/1nis2f/loco_shell_rack/
p971
VLoco Shell Rack
p972
sVhttps://www.reddit.com/r/blackops3/comments/3isd0y/black_hat_this_is_the_coolest_tactical_to_me/
p973
VBlack hat - this is the coolest tactical to me.
p974
sVhttps://www.reddit.com/r/opiates/comments/1l1egz/my_fellow_choppers/
p975
Vmy fellow choppers
p976
sVhttps://www.reddit.com/r/BitcoinMining/comments/iqxd6/ati_driver_problems_damned_if_i_do_damned_if_i/
p977
VATI driver problems (Damned if I do, Damned if I don't)
p978
sVhttps://www.reddit.com/r/econhw/comments/4je20w/how_is_wage_ratio_different_from_log_wage/
p979
VHow is wage ratio different from log wage
p980
sVhttps://www.reddit.com/r/UTSA/comments/48diyy/transfer_admission/
p981
VTransfer Admission
p982
sVhttps://www.reddit.com/r/flyfishing/comments/1zgp4q/looking_for_a_suggestion_for_a_chest_pack/
p983
VLooking for a suggestion for a chest pack.
p984
sVhttps://www.reddit.com/r/buildapc/comments/3gc0ni/build_help_have_a_build_in_mind_need_some/
p985
V[Build Help] Have a build in mind, need some suggestions and tips on cooling with my case.
p986
sVhttps://www.reddit.com/r/bloodborne/comments/3y7vsw/ive_just_noticed_something_about_the_riflespear/
p987
VI've just noticed something about the riflespear
p988
sVhttps://www.reddit.com/r/BlackwellAcademy/comments/3bbxkl/the_great_outdoors/
p989
VThe Great Outdoors
p990
sVhttps://www.reddit.com/r/techsupport/comments/1vmr1t/i_have_been_noticing_frequent_internet_failures/
p991
VI have been noticing frequent internet failures over the past few months and now I can't even watch Youtube videos above 240p quality what is going on?
p992
sVhttps://www.reddit.com/r/swordartonline/comments/4i7qzu/voice_actors_of_sao/
p993
VVoice Actors of SAO
p994
sVhttps://www.reddit.com/r/languagelearning/comments/1d7u4b/assimil_help_please/
p995
VAssimil help please?
p996
sVhttps://www.reddit.com/r/starcraft/comments/e918g/does_anybody_else_miss_lurkers/
p997
VDoes anybody else miss Lurkers? 
p998
sVhttps://www.reddit.com/r/guitarpedals/comments/3z5um2/offered_a_deluxe_memory_man_need_some_help/
p999
VOffered a deluxe memory man, need some help deciphering which model it is.
p1000
sVhttps://www.reddit.com/r/gtaonline/comments/38ov4i/seriously_a_ufo/
p1001
VSeriously, a UFO?
p1002
sVhttps://www.reddit.com/r/AskReddit/comments/h1amt/for_all_reddit_reptile_lovers_how_does_one_become/
p1003
VFor all Reddit Reptile lovers, how does one become a herpetologist? 
p1004
sVhttps://www.reddit.com/r/lacrossewi/comments/r4q2v/grandads_bluff/
p1005
VGrandads bluff
p1006
sVhttps://www.reddit.com/r/techsupport/comments/3g9n6g/overvolting_asus_gtx_970_safety_guidelines/
p1007
VOvervolting ASUS GTX 970 safety guidelines?
p1008
sVhttps://www.reddit.com/r/exjw/comments/3f0suf/letter_about_child_abuse/
p1009
VLetter about child abuse?
p1010
sVhttps://www.reddit.com/r/oculus/comments/4gklm0/playing_steam_games_with_oculus/
p1011
VPlaying steam games with oculus
p1012
sVhttps://www.reddit.com/r/RESissues/comments/119c3d/bug_imgur_album_previews_dont_correctly_handle/
p1013
V[bug] Imgur album previews don't correctly handle special characters such as apostrophes
p1014
sVhttps://www.reddit.com/r/buildapcforme/comments/1hoe1p/1400_gamingreddit_machine/
p1015
V$1400 Gaming/Reddit Machine
p1016
sVhttps://www.reddit.com/r/feedthebeast/comments/2uz5qk/blood_magic_questions/
p1017
VBlood Magic questions
p1018
sVhttps://www.reddit.com/r/bloodborne/comments/30gpqm/need_help_with_a_certain_boss_spoilers/
p1019
VNeed help with a certain boss! (Spoilers)
p1020
sVhttps://www.reddit.com/r/gardening/comments/3gtx5g/help_with_growing_my_roses/
p1021
Vhelp with growing my Roses
p1022
sVhttps://www.reddit.com/r/todayilearned/comments/45ny8m/til_nhl_goalies_are_not_allowed_to_be_named/
p1023
VTIL: NHL goalies are not allowed to be named official team captains, known as the Durnan rule
p1024
sVhttps://www.reddit.com/r/Motocross/comments/1recbs/toy_hauler_and_my_odd_friend/
p1025
VToy hauler, and my odd friend
p1026
sVhttps://www.reddit.com/r/feedthebeast/comments/40jol8/may_someone_answer_these_questions_about/
p1027
VMay someone answer these questions about Thaumcraft 5?
p1028
sVhttps://www.reddit.com/r/hometheater/comments/498ui1/newbie_wanting_to_gradually_upgrade/
p1029
VNewbie wanting to gradually upgrade
p1030
sVhttps://www.reddit.com/r/stopsmoking/comments/lfgd2/24_hours_without_a_cigarette/
p1031
V24 hours without a cigarette.
p1032
sVhttps://www.reddit.com/r/pokemon/comments/1nxqoi/looking_for_fellow_pokemon_trainers_for_x_and_y/
p1033
VLooking for fellow Pokemon Trainers for X and Y.
p1034
sVhttps://www.reddit.com/r/runescape/comments/nybu0/ask_me_anything_runescape_related/
p1035
VAsk me anything RuneScape related!
p1036
sVhttps://www.reddit.com/r/Fantasy/comments/1947m0/all_three_mongoliad_books_on_sale_for_299_now/
p1037
VAll three Mongoliad books on sale for $2.99 now. (probably US only)
p1038
sVhttps://www.reddit.com/r/fifthworldproblems/comments/24nmxj/long_lost_half_brother_zalthor_speaks_ama/
p1039
VLONG LOST HALF BROTHER ZALTHOR SPEAKS AMA
p1040
sVhttps://www.reddit.com/r/whowouldwin/comments/1b5ocp/the_presence_vs_the_oneaboveall/
p1041
VThe Presence vs The One-Above-All
p1042
sVhttps://www.reddit.com/r/gaymers/comments/npwnf/told_my_mom_im_bisexual_and_it_went_splendidlynow/
p1043
VTold my mom I'm bisexual, and it went splendidly....now for some Portal 2.
p1044
sVhttps://www.reddit.com/r/engineering/comments/4475r4/looking_for_control_systems_text_book/
p1045
VLooking for control systems text book
p1046
sVhttps://www.reddit.com/r/learnprogramming/comments/315d08/finding_the_mode_of_a_double_array_java/
p1047
Vfinding the mode of a double[] array [java]
p1048
sVhttps://www.reddit.com/r/electronic_cigarette/comments/1c2od5/universal_passthrough/
p1049
VUniversal Passthrough
p1050
sVhttps://www.reddit.com/r/smallbusiness/comments/184zks/if_a_business_doesnt_turn_a_profit_does_not/
p1051
VIf a business doesn't turn a profit, does not taking a paycheck send up a flag with the IRS?
p1052
sVhttps://www.reddit.com/r/guns/comments/dd9us/what_do_you_do_with_defective_ammo/
p1053
VWhat do you do with defective ammo?
p1054
sVhttps://www.reddit.com/r/DotA2/comments/2oph3u/nonenglish_speakers_abusing_us_english_queue/
p1055
VNon-English Speakers abusing US English Queue
p1056
sVhttps://www.reddit.com/r/ClickerHeroes/comments/2mnejq/so_i_am_at_the_point_of_my_first_heroes_easily/
p1057
VSo I am at the point of my first heroes easily reaching Level 1000 ... how do I continue?
p1058
sVhttps://www.reddit.com/r/wheeloftimerp/comments/3fqrmp/children_in_mindea/
p1059
VChildren in Mindea
p1060
sVhttps://www.reddit.com/r/doctorwho/comments/3aywbh/doctor_who_a_companions_perspective/
p1061
VDoctor Who: A Companion's Perspective
p1062
sVhttps://www.reddit.com/r/politics/comments/nzce4/somebody_understands_debt/
p1063
VSomebody understands debt
p1064
sVhttps://www.reddit.com/r/askphilosophy/comments/376njf/which_school_of_philosophy_do_you_think_you/
p1065
VWhich school of philosophy do you think you belong to?
p1066
sVhttps://www.reddit.com/r/wow/comments/4e3rl6/just_got_to_panda_with_my_dk_whats_the_most_asian/
p1067
VJust got to panda with my DK. What's the most asian looking x-mog set I can get?
p1068
sVhttps://www.reddit.com/r/YamakuHighSchool/comments/2pcxvh/on_the_school_roof_alone_crying/
p1069
VOn the school roof alone crying
p1070
sVhttps://www.reddit.com/r/techsupport/comments/3c2tl6/new_ssd_wont_act_as_a_boot_drive/
p1071
VNew SSD won't act as a boot drive.
p1072
sVhttps://www.reddit.com/r/Dublin/comments/1d8bk1/places_to_go_on_a_saturday_night_alone/
p1073
VPlaces to go on a Saturday night.... Alone
p1074
sVhttps://www.reddit.com/r/SteamTradingCards/comments/1l249y/question_can_someone_explain_foil_cards_for_me/
p1075
V[Question] Can someone explain foil cards for me.
p1076
sVhttps://www.reddit.com/r/explainlikeimfive/comments/1rsvyx/eli5_how_would_a_gun_fire_in_space/
p1077
VELI5: How would a gun fire in space?
p1078
sVhttps://www.reddit.com/r/tf2/comments/4a748r/things_tf2_players_say_animation/
p1079
VThings TF2 players say ANIMATION
p1080
sVhttps://www.reddit.com/r/SuggestALaptop/comments/2vxnhp/do_i_need_a_discrete_graphics_card_if_i_dont_play/
p1081
VDo I need a discrete graphics card if I don't play any games?
p1082
sVhttps://www.reddit.com/r/silenthill/comments/2dyjiu/interactions_with_lisa/
p1083
VInteractions with Lisa...
p1084
sVhttps://www.reddit.com/r/snakes/comments/144ca0/het_pied_female_ball_ate_her_first_mouse_after/
p1085
VHet Pied Female Ball ate her first mouse after refusing for months
p1086
sVhttps://www.reddit.com/r/snakes/comments/10qvst/dry_scales/
p1087
VDry scales 
p1088
sVhttps://www.reddit.com/r/jailbreak/comments/2r5m8x/helpquestionios_811_batterylife_caused_safe_mode/
p1089
V[Help/Question][iOS 8.1.1] Batterylife caused safe mode.
p1090
sVhttps://www.reddit.com/r/legaladvice/comments/1uks9e/ga_lawyer_misspelled_my_mothers_name_for_a_power/
p1091
V[GA] lawyer misspelled my mother's name for a power of attorney to sign the closing for my new apartment. Now we will lose the apartment. What an be done?
p1092
sVhttps://www.reddit.com/r/legaladvice/comments/1l7v8q/someone_put_my_family_in_serious_danger_but_it/
p1093
Vsomeone put my family in serious danger but it was legal (bringing a long lost abusive dad back into the picture for no reason). how, and how badly can legally ruin his life, and his business in Pennsylvainia? remember, please only legal ways please. thanks!
p1094
sVhttps://www.reddit.com/r/AskTrumpSupporters/comments/4lt2ye/how_much_do_you_think_the_wall_would_cost_us/
p1095
VHow much do you think the wall would cost us?
p1096
sVhttps://www.reddit.com/r/photography/comments/bz4iz/trying_to_find_a_gps_logger_to_geoencode_photos/
p1097
VTrying to find a GPS logger to geoencode photos...
p1098
sVhttps://www.reddit.com/r/ecigclassifieds/comments/4bf09g/wtb_dr_crimmys_banana_pudding_3mg_clone/
p1099
Vwtb Dr. Crimmys Banana Pudding 3mg clone
p1100
sVhttps://www.reddit.com/r/depression/comments/22b9x9/i_dont_know_how_to_deal_with_this/
p1101
VI don't know how to deal with this
p1102
sVhttps://www.reddit.com/r/breakingbad/comments/1l6ghy/i_need_the_ricin_explained/
p1103
VI need the ricin explained.
p1104
sVhttps://www.reddit.com/r/AskMen/comments/12cyac/askmen_i_need_your_help/
p1105
VAskMen, I need your help!
p1106
sVhttps://www.reddit.com/r/learnmath/comments/3anfse/college_calc_1_the_derivative_of_fxx/
p1107
V[College Calc 1] The derivative of f(x)=x.
p1108
sVhttps://www.reddit.com/r/gaming/comments/15jcpa/my_buddy_also_a_redditor_just_walked_in_and_gave/
p1109
VMy buddy, also a redditor, just walked in and gave me this. Thank you, MrRhymestyle!
p1110
sVhttps://www.reddit.com/r/learnprogramming/comments/2u79ui/i_dont_know_what_language_i_should_use/
p1111
VI don't know what language I should use?
p1112
sVhttps://www.reddit.com/r/BabyBumps/comments/2syo4a/god_help_me_my_husband_is_out_of_prozac/
p1113
VGod help me. My husband is out of Prozac.
p1114
sVhttps://www.reddit.com/r/techsupport/comments/38f1jk/which_monitor_is_better/
p1115
VWhich monitor is better?
p1116
sVhttps://www.reddit.com/r/amiibo/comments/38dfzc/for_those_that_ordered_from_zavvi_and_it_still/
p1117
VFor those that ordered from Zavvi and it still says "awaiting stock pick"
p1118
sVhttps://www.reddit.com/r/blackdesertonline/comments/47vvn1/launcher_doesnt_recognize_gpu/
p1119
VLAUNCHER DOESN'T RECOGNIZE GPU
p1120
sVhttps://www.reddit.com/r/leagueoflegends/comments/maaj3/what_the_hell_happened_to_jiji/
p1121
VWhat the hell happened to jiji?
p1122
sVhttps://www.reddit.com/r/atheism/comments/x4tgk/a_thought_that_has_occurred_to_me_about/
p1123
VA thought that has occurred to me about Christians and the Co. shooting...
p1124
sVhttps://www.reddit.com/r/playark/comments/3abtzw/suggestionright_mouseclick_on_certain_mountable/
p1125
V[Suggestion]Right mouseclick on certain mountable creatures uses a special attack
p1126
sVhttps://www.reddit.com/r/tf2/comments/1tkkfc/can_i_get_some_advice_on_a_trade/
p1127
VCan I get some advice on a trade?
p1128
sVhttps://www.reddit.com/r/penpals/comments/2q1zba/24faus_for_penpalsemail_need_to_practice_spanish/
p1129
V24/F/Aus for penpals/email- Need to practice Spanish.
p1130
sVhttps://www.reddit.com/r/letsplay/comments/3itasy/i_got_a_mcn_invite_for_the_music_nations_network/
p1131
VI got a MCN invite for the . . . Music Nations Network? "AN INVITATION FOR THE YTs"
p1132
sVhttps://www.reddit.com/r/emulation/comments/1jgcsd/a_question_about_using_an_external_hard_drive/
p1133
VA question about using an external hard drive with a softmodded Wii.
p1134
sVhttps://www.reddit.com/r/pcmasterrace/comments/2loi4l/pcmr_1st_world_problemas/
p1135
VPCMR 1st World Problemas
p1136
sVhttps://www.reddit.com/r/evedreddit/comments/lvlgx/ya_know_i_love_eve_and_dreddittest_but_damn_it_is/
p1137
VYa know, I love EVE and Dreddit/TEST, but damn, it is HARD for me to find the patience (and monies)
p1138
sVhttps://www.reddit.com/r/fakeid/comments/2ikjy9/need_bank_statement_template_boachasewf/
p1139
VNeed bank statement template (BOA/Chase/WF)
p1140
sVhttps://www.reddit.com/r/DnD/comments/4h1veh/barbarian_backstory_help/
p1141
VBarbarian backstory help.
p1142
sVhttps://www.reddit.com/r/changemyview/comments/2d1cqq/cmv_the_opposite_opinion_on_the_eternal_fat_vs/
p1143
VCMV: The opposite opinion on the eternal "fat vs. skinny" battle: why are people hating on skinny girls now?
p1144
sVhttps://www.reddit.com/r/webdev/comments/1zqv4n/newbie_looking_at_setting_up_a_web_server/
p1145
VNewbie looking at setting up a web server
p1146
sVhttps://www.reddit.com/r/techsupport/comments/p7zkj/pc_audio_problems_even_after_driver_reinstall/
p1147
VPC audio problems even after driver reinstall
p1148
sVhttps://www.reddit.com/r/DarkSouls3JPN/comments/4ck4jh/yuria_quest/
p1149
VYuria quest?
p1150
sVhttps://www.reddit.com/r/web_design/comments/32skhj/a_website_that_shows_use_of_color_in_movies/
p1151
VA website that shows use of color in movies
p1152
sVhttps://www.reddit.com/r/Earwolf/comments/1p4383/comedy_bang_bang_episode_251_the_bed_spoiler_with/
p1153
VComedy Bang Bang episode 251 "The Bed Spoiler" with Amber Tamblyn and Todd Glass
p1154
sVhttps://www.reddit.com/r/soccer/comments/25ygby/long_post_a_review_of_phil_mcnultys_louis_van/
p1155
VLong Post - A review of Phil McNulty's Louis van Gaal article, which appeared on the BBC website today
p1156
sVhttps://www.reddit.com/r/answers/comments/1fbhox/does_the_vibration_rate_of_a_particle_correspond/
p1157
VDoes the vibration rate of a particle correspond to the strength of its bond? If yes, how so?
p1158
sVhttps://www.reddit.com/r/malefashionadvice/comments/38vqnl/university_backpack_recommendations/
p1159
VUniversity Backpack Recommendations
p1160
sVhttps://www.reddit.com/r/AskReddit/comments/3fq9y8/can_you_spread_your_toes/
p1161
VCan you spread your toes ?
p1162
sVhttps://www.reddit.com/r/syriancivilwar/comments/1xqgcz/i_just_returned_from_a_syrian_town_controlled_by/
p1163
VI just returned from a Syrian town controlled by ISIS -- jihadists so radical, even Al-Qaeda distanced itself from them. (An AMA going on right now in /r/IAma
p1164
sVhttps://www.reddit.com/r/weightlifting/comments/33y41a/some_nice_prs_and_a_few_questionstips_wanted_62kg/
p1165
VSome nice PRs, and a few questions/tips wanted. @62kg
p1166
sVhttps://www.reddit.com/r/blackops3/comments/48y1em/anyone_else_constantly_have_their_character_fail/
p1167
VAnyone else *constantly* have their character fail to mantle into the big window at bottom mid on Evac?
p1168
sVhttps://www.reddit.com/r/dayz/comments/1tfqrl/the_mods_soundtrack/
p1169
VThe mod's soundtrack.
p1170
sVhttps://www.reddit.com/r/Aquariums/comments/p6052/puffers_barbs_and_stocking/
p1171
VPuffers, Barbs, and stocking!
p1172
sVhttps://www.reddit.com/r/oblivion/comments/ifvsp/question_regarding_hotkeys_please_help/
p1173
VQuestion regarding hotkeys (please help)
p1174
sVhttps://www.reddit.com/r/sex/comments/35elrf/advice_numbness_when_im_with_my_girlfriend_please/
p1175
V[Advice] Numbness when I'm with my girlfriend. Please help!
p1176
sVhttps://www.reddit.com/r/Nootropics/comments/3iyzwo/why_doesnt_memantine_work_for_me_and_is_there/
p1177
VWhy doesn't Memantine work for me, and is there anything I can do about it?
p1178
sVhttps://www.reddit.com/r/cosplay/comments/1k815j/help_hal_octacon_emmerich_cosplay/
p1179
V[Help] Hal "Octacon" Emmerich cosplay.
p1180
sVhttps://www.reddit.com/r/pumparum/comments/4gxe2e/ps46_w_hornet_ring_h_bloodlust/
p1181
V[PS4][+6] W: Hornet Ring H: Bloodlust
p1182
sVhttps://www.reddit.com/r/batman/comments/2k88bq/just_finished_reading_the_long_halloween_for_the/
p1183
VJust finished reading the long halloween for the first time!
p1184
sVhttps://www.reddit.com/r/homechemistry/comments/3apfyf/precautions_for_low_flash_point_liquids/
p1185
VPrecautions for low flash point liquids
p1186
sVhttps://www.reddit.com/r/crochet/comments/29dtve/i_was_at_work_earlier_and_couldnt_wait_to_get/
p1187
VI was at work earlier and couldn't wait to get home and crochet....
p1188
sVhttps://www.reddit.com/r/pharmacy/comments/37av93/how_to_work_as_a_clinical_pharmacist_in_the/
p1189
Vhow to work as a clinical pharmacist in the states after getting a degree from egypt ?
p1190
sVhttps://www.reddit.com/r/askscience/comments/1q387f/how_do_orbitals_intersect_each_other/
p1191
VHow do orbitals intersect each other?
p1192
sVhttps://www.reddit.com/r/atheism/comments/3fa0he/convert_to_islam_google_ad_on_imgur_that_i_keep/
p1193
V"Convert to Islam" Google ad on Imgur that I keep seeing.
p1194
sVhttps://www.reddit.com/r/pcgaming/comments/288lx8/noob_here_can_i_upgrade_integrated_graphics/
p1195
VNoob here: Can I upgrade integrated graphics?
p1196
sVhttps://www.reddit.com/r/deftones/comments/33s6sc/going_to_my_first_deftones_concert_always_been_a/
p1197
VGoing to my first Deftones concert, always been a casual fan, but need some advice.
p1198
sVhttps://www.reddit.com/r/depression/comments/1h4yhr/anything_to_help_me_get_started_each_day/
p1199
VAnything to help me get started each day?
p1200
sVhttps://www.reddit.com/r/Instagram/comments/3zigdk/is_it_easier_to_gain_followers_the_more_followers/
p1201
VIs it easier to gain followers the more followers you have?
p1202
sVhttps://www.reddit.com/r/askscience/comments/4ko9n6/are_there_any_pathogenic_to_humans_archaea/
p1203
VAre there any pathogenic (to humans) archaea?
p1204
sVhttps://www.reddit.com/r/hotlinemiamimaps/comments/4cm5iq/destructible_doors_mod_test_map/
p1205
VDestructible Doors Mod Test Map
p1206
sVhttps://www.reddit.com/r/offmychest/comments/1d4cmk/this_is_my_life/
p1207
VThis is MY life.
p1208
sVhttps://www.reddit.com/r/Showerthoughts/comments/1lddvq/what_if_everything_i_do_is_predetermined_and_i/
p1209
VWhat if everything I do is predetermined and I have no control over it.
p1210
sVhttps://www.reddit.com/r/radiohead/comments/4eadwl/deep_inside_the_mind_of_thom_yorke/
p1211
VDeep inside the mind of Thom Yorke
p1212
sVhttps://www.reddit.com/r/adventuretime/comments/447f0u/season_7_vs_season_6/
p1213
VSeason 7 vs. Season 6
p1214
sVhttps://www.reddit.com/r/legaladvice/comments/1ck8zm/insurance_reimbursement_check/
p1215
Vinsurance reimbursement check
p1216
sVhttps://www.reddit.com/r/whowouldwin/comments/3cnnx4/feudal_japan_vs_any_feudal_western_european/
p1217
VFeudal Japan vs any feudal western European country of your choice
p1218
sVhttps://www.reddit.com/r/oculus/comments/2dzyzk/world_scale_way_off_in_most_demosgames/
p1219
VWorld scale way off in most demos/games?
p1220
sVhttps://www.reddit.com/r/beyondthebump/comments/250yu7/finally/
p1221
VFinally!
p1222
sVhttps://www.reddit.com/r/techsupport/comments/2rc17g/broken_external_hard_drive_how_can_i_get_the/
p1223
Vbroken external hard drive, how can i get the information off of it?
p1224
sVhttps://www.reddit.com/r/magicTCG/comments/3xvo0f/why_is_everyone_siding_with_the_suspended_judges/
p1225
VWhy is everyone siding with the suspended judges?
p1226
sVhttps://www.reddit.com/r/trans/comments/3dlxe2/very_new_to_the_transgender_scene/
p1227
VVery new to the transgender scene
p1228
sVhttps://www.reddit.com/r/fittings/comments/454j8i/r_solo_pvp_hurricane_fleet_issue/
p1229
V[R] solo pvp Hurricane Fleet Issue
p1230
sVhttps://www.reddit.com/r/dogemining/comments/1yof42/3x_hd_7750s_or_2x_r9_290xs_in_crossfire/
p1231
V3x HD 7750's or 2x R9 290x's? (in crossfire)
p1232
sVhttps://www.reddit.com/r/Scapecraft/comments/2p7flr/help_with_installing_mod/
p1233
VHelp with installing mod
p1234
sVhttps://www.reddit.com/r/leagueoflegends/comments/11amyn/clgeu_has_such_a_positive_attitude/
p1235
VCLG.EU Has Such A Positive Attitude
p1236
sVhttps://www.reddit.com/r/synthesizers/comments/4g9pei/recording_yamaha_dx21_too_quiet/
p1237
VRecording Yamaha DX21 - too quiet?
p1238
sVhttps://www.reddit.com/r/DebateReligion/comments/4137aj/simple_questions_0115/
p1239
VSimple Questions 01/15
p1240
sVhttps://www.reddit.com/r/personalfinance/comments/17c07i/looking_for_some_advice_on_how_to_raise_my_credit/
p1241
VLooking for some advice on how to raise my credit score.
p1242
sVhttps://www.reddit.com/r/bodyweightfitness/comments/ubxth/two_personal_firsts_today/
p1243
VTwo personal firsts today!
p1244
sVhttps://www.reddit.com/r/makeupexchange/comments/2aa5o0/sell_bobbi_brown_eye_smudge_brush/
p1245
V[Sell] Bobbi Brown Eye Smudge Brush
p1246
sVhttps://www.reddit.com/r/2007scape/comments/2x3amn/can_i_use_this_ahk_script/
p1247
VCan I use this AHK script?
p1248
sVhttps://www.reddit.com/r/hockey/comments/371k9d/can_someone_explain_gretzkys_dominance_people/
p1249
VCan someone explain Gretzky's dominance people born to late to see it person?
p1250
sVhttps://www.reddit.com/r/fountainpens/comments/3ykb05/twsbi_580_leaking/
p1251
VTWSBI 580 Leaking?
p1252
sVhttps://www.reddit.com/r/torrents/comments/1d8m8i/is_there_an_aggregated_list_of_allowed_clients/
p1253
VIs there an aggregated list of allowed clients?
p1254
sVhttps://www.reddit.com/r/pathofexile/comments/1tli7d/so_apparently_i_found_a_good_item_and_now_i_cant/
p1255
VSo apparently I found a good item and now I can't sell it coz I'm noob and scared of getting scammed ;(
p1256
sVhttps://www.reddit.com/r/coins/comments/3cek5z/very_faint_o_in_monticello/
p1257
VVery faint "o" in Monticello
p1258
sVhttps://www.reddit.com/r/MaxMSP/comments/3ihbbn/smoothing_jumps_in_sensor_data_stream/
p1259
VSmoothing jumps in sensor data stream.
p1260
sVhttps://www.reddit.com/r/pcmasterrace/comments/3xkj6p/possible_click_bait_news_about_hackers/
p1261
VPossible click bait news about hackers threatening to bring steam down during Christmas, would like some reliable information.
p1262
sVhttps://www.reddit.com/r/trees/comments/edn57/for_you_fellow_ents_choose_a_print_and_its_on_me/
p1263
VFor you, fellow Ents.  Choose a print, and it's on me.  Shipping too.
p1264
sVhttps://www.reddit.com/r/odroid_c2/comments/4l91pq/c2_kodi_media_centre/
p1265
VC2 Kodi Media Centre
p1266
sVhttps://www.reddit.com/r/sales/comments/3j4anv/how_to_deal_with_multiple_decision_makers/
p1267
VHow to deal with multiple decision makers?
p1268
sVhttps://www.reddit.com/r/muacirclejerk/comments/2g334s/what_do_temptalia_and_other_wellknown_beauty/
p1269
VWHAT DO TEMPTALIA AND OTHER WELL-KNOWN BEAUTY BLOGGERS DO WITH ALL THEIR "FOR YOUR CONSIDERATION"/FREE MAKEUP?!!!
p1270
sVhttps://www.reddit.com/r/WTF/comments/26vxej/this_is_what_happens_when_hundreds_of_people/
p1271
VThis is what happens when hundreds of people bring colored smoke grenades to a football stadium.
p1272
sVhttps://www.reddit.com/r/bitcoinxt/comments/3glad4/mike_hearns_plans_for_bitcoin_xt_this_upcoming/
p1273
VMike Hearn's plans for Bitcoin XT this upcoming week. (To keep you all informed on what's happening)
p1274
sVhttps://www.reddit.com/r/freefolk/comments/36j394/episode_6_unbowed_unbent_unbroken_game_of_face/
p1275
VEpisode 6 "Unbowed Unbent Unbroken" Game of Face scene Jaqen and Arya
p1276
sVhttps://www.reddit.com/r/talesfromcallcenters/comments/28kfio/just_call_center_things/
p1277
VJust call center things
p1278
sVhttps://www.reddit.com/r/swtor/comments/rs88o/twilek_hoods_12/
p1279
Vtwi'lek hoods 1.2
p1280
sVhttps://www.reddit.com/r/guns/comments/422ccv/what_would_happen_if_you_necked_down_a_50_bmg_to/
p1281
VWhat would happen if you necked down a .50 bmg to a .223 or .22?
p1282
sVhttps://www.reddit.com/r/bicycling/comments/8tdp0/so_i_recently_added_3_extra_miles_to_my_daily/
p1283
VSo i recently added 3 extra miles to my daily commute (now 15 miles), and a few more hills a day but I'm begining to feel some pain on the lateral side of my knee. I ride with a 25.4lbs pack on my back, but I sit through the ride. Is it the increase in distance, maybe my form?
p1284
sVhttps://www.reddit.com/r/beadsprites/comments/1psvdk/question_for_the_folks_who_make_keychains/
p1285
VQuestion for the folks who make keychains, ornaments or wall mounts...
p1286
sVhttps://www.reddit.com/r/AskReddit/comments/8rjdx/reddit_ill_be_leaving_home_and_living_with_some/
p1287
VReddit: I'll be leaving home and living with some friends while attending university here in the next few months. Any advice?
p1288
sVhttps://www.reddit.com/r/Mariners/comments/1scgdu/mariners_transactions/
p1289
VMariners transactions?
p1290
sVhttps://www.reddit.com/r/archlinux/comments/467dxd/when_upgrading_unresolvable_package_conflicts/
p1291
VWhen upgrading "unresolvable package conflicts detected"
p1292
sVhttps://www.reddit.com/r/Pathfinder_RPG/comments/24xyel/ridingrodeo_enemies/
p1293
VRiding/Rodeo enemies
p1294
sVhttps://www.reddit.com/r/AskReddit/comments/2inzso/what_would_be_the_best_example_of_competence/
p1295
VWhat would be the best example of "competence equals deviance"?
p1296
sVhttps://www.reddit.com/r/darksouls/comments/3z1ybp/sens_fortress_pc/
p1297
VSen's Fortress (PC)
p1298
sVhttps://www.reddit.com/r/Repsneakers/comments/2wfsdf/thats_just_too_expensive_for_a_pair_of_ua_yeezy/
p1299
VThat's just too expensive for a pair of UA YEEZY BOOST
p1300
sVhttps://www.reddit.com/r/trees/comments/29lvyw/does_smoking_weed_effect_appearance_in_the_long/
p1301
VDoes smoking weed effect appearance in the long run?
p1302
sVhttps://www.reddit.com/r/darksouls3/comments/4f6d50/someone_help_i_think_i_messed_up_a_quest_line/
p1303
VSomeone help, I think I messed up a quest line [SPOILERS]
p1304
sVhttps://www.reddit.com/r/tamrielscholarsguild/comments/1eqi10/20th_of_second_seed_morning_in_the_mountains/
p1305
V[20th of Second Seed] Morning in the Mountains
p1306
sVhttps://www.reddit.com/r/gaming/comments/gbt5u/anyone_else_think_it_a_bit_odd_that_the_3ds_comes/
p1307
VAnyone else think it a bit odd that the 3DS comes out in March and then has absolutely no game releases in April?
p1308
sVhttps://www.reddit.com/r/learndota2/comments/380nzo/whats_the_easiest_way_to_become_a_better/
p1309
VWhat's the easiest way to become a better teamplayer in solo ranked?
p1310
sVhttps://www.reddit.com/r/buildapc/comments/3gcax8/build_ready_1st_gaming_rig_any_suggestions/
p1311
V[Build Ready] 1st gaming rig, any suggestions?
p1312
sVhttps://www.reddit.com/r/bleach/comments/21tdjs/something_that_has_been_bugging_me_a_little/
p1313
VSomething that has been bugging me a little.
p1314
sVhttps://www.reddit.com/r/exchangeserver/comments/21fqpx/exchange_mailbox_server_move_and_outlook_users/
p1315
VExchange Mailbox Server Move and Outlook Users
p1316
sVhttps://www.reddit.com/r/explainlikeimfive/comments/1z1vey/eli5_why_in_some_animal_species_is_the_female/
p1317
VELI5: Why in some animal species is the female bigger than the male?
p1318
sVhttps://www.reddit.com/r/Gamecocks/comments/2hoxv2/time_to_play_backup_qb/
p1319
VTime to play backup QB.
p1320
sVhttps://www.reddit.com/r/C_Programming/comments/1yx7gh/help_plz_array_of_mixed_type/
p1321
VHelp plz: Array of mixed type
p1322
sVhttps://www.reddit.com/r/buildapc/comments/1hppqe/troubleshooting_starts_for_a_split_second_and/
p1323
V[Troubleshooting] starts for a split second and shuts down
p1324
sVhttps://www.reddit.com/r/storyofseasons/comments/31xmtm/looking_for_5_turnip_seeds/
p1325
VLooking For 5 Turnip Seeds
p1326
sVhttps://www.reddit.com/r/reddit.com/comments/crx6e/tried_allien_swarm_try_it_then_hit_me_up_so_i/
p1327
Vtried allien swarm? try it... then hit me up so i have some people to play with. haaaahaaaha.. no really.
p1328
sVhttps://www.reddit.com/r/DIY/comments/gdaup/weekend_project_update/
p1329
VWeekend Project Update 
p1330
sVhttps://www.reddit.com/r/freefolk/comments/359m6s/question_about_arya_becoming_a_faceless_man/
p1331
VQuestion about Arya becoming a Faceless Man
p1332
sVhttps://www.reddit.com/r/gaming/comments/2m5coi/does_anybody_else_remember_when_cheapassgamer_had/
p1333
VDoes anybody else remember when Cheapassgamer had a great breakdown on what GameStop was actually giving on game trade ins?
p1334
sVhttps://www.reddit.com/r/slashdiablo/comments/3i9kr5/iso_pally_stuff/
p1335
VISO PALLY STUFF
p1336
sVhttps://www.reddit.com/r/techsupport/comments/38jdyv/awful_980_performance/
p1337
VAwful 980 performance
p1338
sVhttps://www.reddit.com/r/heroesofthestorm/comments/24adpz/looking_for_a_logo_designer_for_my_new_yt_channel/
p1339
VLooking for a logo designer for my new YT channel
p1340
sVhttps://www.reddit.com/r/ffxiv/comments/1mam9i/level_questions/
p1341
VLevel questions...
p1342
sVhttps://www.reddit.com/r/DebateAChristian/comments/2pekcg/the_gotcha_questions_and_trap_questions_seem_to/
p1343
VThe "gotcha questions" and "trap questions" seem to highlight evidential contradictions and incongruities between ideology and reality. Why dismiss them?
p1344
sVhttps://www.reddit.com/r/whisky/comments/3ve955/whisky_library_what_to_choose/
p1345
VWhisky Library: What to choose?
p1346
sVhttps://www.reddit.com/r/worldbuilding/comments/1l6k7f/terraforming_time/
p1347
VTerraforming Time
p1348
sVhttps://www.reddit.com/r/amazon/comments/3drijc/order_still_hasnt_shipped/
p1349
VOrder still hasn't shipped
p1350
sVhttps://www.reddit.com/r/india/comments/ehq59/india_ama_i_was_molested_as_a_child_once/
p1351
VIndia AMA: I was molested as a child once.
p1352
sVhttps://www.reddit.com/r/Boxing/comments/1obcg3/any_legitimate_fighting_online_channels/
p1353
VAny legitimate Fighting Online channels?
p1354
sVhttps://www.reddit.com/r/design_critiques/comments/1y9887/looking_for_feedback_on_freelance/
p1355
VLooking for Feedback on Freelance Business/Portfolio Site
p1356
sVhttps://www.reddit.com/r/running/comments/v1nh2/last_workout_left_me_hellasore_all_over_whats_the/
p1357
VLast workout left me hella-sore all over. What's the best ways to get over soreness?
p1358
sVhttps://www.reddit.com/r/TwoXChromosomes/comments/2p2uf3/hi_twox_i_need_advice_on_a_complicated/
p1359
VHi TwoX, I need advice on a complicated relationship.
p1360
sVhttps://www.reddit.com/r/paintball/comments/18n50a/bob_long_defiant_2_maybe/
p1361
VBob Long Defiant? 2 maybe?
p1362
sVhttps://www.reddit.com/r/AskReddit/comments/1e275t/post_here_the_funniest_stories_of_your_ap_classes/
p1363
VPost here the funniest stories of your AP classes. Question mark.
p1364
sVhttps://www.reddit.com/r/navy/comments/yvawj/navy_advice/
p1365
VNavy advice ?
p1366
sVhttps://www.reddit.com/r/buildapcforme/comments/1o9zkt/something_messed_up_and_set_me_back_a_couple_of/
p1367
VSomething messed up and set me back a couple of days. Looking for a $500-$600 gaming PC (again)
p1368
sVhttps://www.reddit.com/r/techsupport/comments/m5gsh/bios_in_toshiba_laptop_doesnt_detect_hdd/
p1369
VBIOS In Toshiba laptop doesn't detect HDD.
p1370
sVhttps://www.reddit.com/r/jailbreak/comments/4bafx5/discussion_march_21st_event_megathread/
p1371
V[Discussion] March 21st Event Megathread
p1372
sVhttps://www.reddit.com/r/photography/comments/4ihwan/how_to_clean_mirror_less_camera_sensor/
p1373
VHow to clean Mirror less camera sensor?
p1374
sVhttps://www.reddit.com/r/yugioh/comments/13vhc3/xyz_monster_returning_to_extra_deck_the_xyz/
p1375
VXYZ monster returning to extra deck, the XYZ materials go to grave right?
p1376
sVhttps://www.reddit.com/r/ftm/comments/4le9t5/double_design_air_max_binder_review_hint_its/
p1377
VDouble Design Air Max binder review (hint: it's awesome)
p1378
sVhttps://www.reddit.com/r/buildapc/comments/tiqqc/help_blue_spinning_ring_of_death/
p1379
VHelp! Blue spinning ring of death!
p1380
sVhttps://www.reddit.com/r/swtor/comments/143bq3/thinking_of_ways_for_f2p_to_get_around_the_credit/
p1381
VThinking of ways for F2P to get around the credit cap.
p1382
sVhttps://www.reddit.com/r/Pathfinder_RPG/comments/395p36/how_would_you_handle_this_situation/
p1383
VHow would you handle this situation?
p1384
sVhttps://www.reddit.com/r/exalted/comments/4lpa0a/help_with_my_1st_chronicle_how_to_recover_a_soul/
p1385
VHelp with my 1st chronicle - How to recover a soul consumed by the Raksha
p1386
sVhttps://www.reddit.com/r/skyrim/comments/1hlmz8/ive_just_discovered_an_interesting_secret_dark/
p1387
VI've just discovered an interesting secret [dark brotherhood spoilers]
p1388
sVhttps://www.reddit.com/r/offmychest/comments/17j1h7/holy_head_desk_batman_never_try_to_offer_a_i_use/
p1389
VHoly head desk batman, never try to offer a ''I use pot for medical use'' a discussion. They are incapable of it, and it results in butthurt. 
p1390
sVhttps://www.reddit.com/r/AskReddit/comments/2xmeqy/serious_reddit_if_you_inherited_15_million/
p1391
V(Serious) Reddit, if you inherited 1.5 million dollars, what would you do with it?
p1392
sVhttps://www.reddit.com/r/Libertarian/comments/3y0m9v/what_is_the_libertarian_response_to_statists_who/
p1393
VWhat is the libertarian response to statists who cite that an unreigned free market led to exploitative child labor and other awful working conditions during the early 1900s?
p1394
sVhttps://www.reddit.com/r/photography/comments/1y7nl6/speed_booster_comparison_ef_lenses_on_panasonic/
p1395
VSpeed Booster comparison. EF lenses on Panasonic GM1 + 5dmk2
p1396
sVhttps://www.reddit.com/r/tf2/comments/107x2h/unboxed_the_pyro_pack_and_the_spy_hat_then_i/
p1397
VUnboxed the pyro pack and the spy hat, then I started calling them...
p1398
sVhttps://www.reddit.com/r/trees/comments/lyoaq/abuse/
p1399
VAbuse
p1400
sVhttps://www.reddit.com/r/mflb/comments/ritov/best_batteries_to_use/
p1401
VBest batteries to use?..
p1402
sVhttps://www.reddit.com/r/collapse/comments/1jnf61/hello_rcollapse_id_like_to_inform_my_family_of/
p1403
VHello r/collapse! I'd like to inform my family of the coming dollar collapse, but I doubt they'll listen to me. Suggestions?
p1404
sVhttps://www.reddit.com/r/starcraft/comments/1e3k01/hasuobs_wins_eps_over_socke_31/
p1405
VHasuObs wins EPS over Socke 3-1!
p1406
sVhttps://www.reddit.com/r/buildapc/comments/35e723/build_help_cant_decide_if_i_want_to_crossfire/
p1407
V[Build Help] Can't decide if I want to crossfire 290s or not
p1408
sVhttps://www.reddit.com/r/conspiro/comments/1njasm/many_japanese_people_suffering_from_recurring/
p1409
VMany Japanese people suffering from recurring nosebleeds and not allowed to be told it's radiation sickness.
p1410
sVhttps://www.reddit.com/r/Terraria/comments/2kbxue/mimic_farm/
p1411
VMimic farm?
p1412
sVhttps://www.reddit.com/r/jailbreak/comments/2nn3dv/is_anyone_working_on_a_bluetooth_fix_for_ios_81/
p1413
VIs anyone working on a bluetooth fix for iOS 8.1?
p1414
sVhttps://www.reddit.com/r/MechanicAdvice/comments/33lkql/08_cobalt_it_cranks_but_doesnt_start/
p1415
V08 Cobalt, it cranks but doesn't start
p1416
sVhttps://www.reddit.com/r/zenfone2/comments/4flbb6/my_screen_went_black/
p1417
VMy screen went black
p1418
sVhttps://www.reddit.com/r/sportsbook/comments/2pcsf7/bitcoins_influence_on_online_gambling_and_why/
p1419
VBITCOIN\u2019S INFLUENCE ON ONLINE GAMBLING AND WHY OPERATORS SHOULD USE IT
p1420
sVhttps://www.reddit.com/r/buildapc/comments/44txvy/troubleshooting_new_pc_isnt_making_use_of_full/
p1421
V[Troubleshooting] New PC isn't making use of full bandwidth.
p1422
sVhttps://www.reddit.com/r/bloodborne/comments/4c03vs/3_endings_3_playthroughs_1_platinum/
p1423
V3 endings, 3 playthroughs, 1 platinum
p1424
sVhttps://www.reddit.com/r/guns/comments/14y644/i_picked_a_terrible_time_to_get_into_guns/
p1425
VI picked a terrible time to get into guns.
p1426
sVhttps://www.reddit.com/r/buffy/comments/199fzg/is_it_reasonable_to_think_that_cordelia_in_buffy/
p1427
VIs it reasonable to think that Cordelia in Buffy parallels the Cordelia in King Lear?
p1428
sVhttps://www.reddit.com/r/wma/comments/278ptr/a_new_and_better_definition_of_indes/
p1429
VA new (and better) definition of Indes
p1430
sVhttps://www.reddit.com/r/askseddit/comments/17aost/advice_on_postokc_exchange_on_fb_her_recent/
p1431
VAdvice on post-OkC exchange on FB? Her recent message inside.
p1432
sVhttps://www.reddit.com/r/hockeycirclejerk/comments/1i42ia/kovalchuk_signs_8_year_extension_with_devils/
p1433
VKovalchuk signs 8 year extension with Devils.
p1434
sVhttps://www.reddit.com/r/Warthunder/comments/4hpcuk/best_currency_to_get_eagles/
p1435
VBest currency to get Eagles?
p1436
sVhttps://www.reddit.com/r/startrek/comments/23wnmk/does_anyone_know_why_tng_changed_command_uniform/
p1437
VDoes anyone know why TNG changed command uniform colours from the original?
p1438
sVhttps://www.reddit.com/r/DIYBeauty/comments/4cm2md/lets_talk_ingredients_is_there_one_magical/
p1439
VLet's talk ingredients! Is there one magical ingredient you put in everything? Is there a stubborn ingredient you want to love but just can't figure out?
p1440
sVhttps://www.reddit.com/r/mac/comments/20z4xo/is_it_just_me_or_is_my_rmbp_15_2013_really_slow/
p1441
VIs it just me or is my rMBP 15" 2013 really slow at video editing?
p1442
sVhttps://www.reddit.com/r/teslore/comments/q54bg/do_daedric_prince_have_genders/
p1443
VDo daedric prince have genders?
p1444
sVhttps://www.reddit.com/r/cheatatmathhomework/comments/3dsrs9/local_extrema_calculus/
p1445
VLocal Extrema [Calculus]
p1446
sVhttps://www.reddit.com/r/bjj/comments/40xuzt/tutorial_thursday_stepover_kneebars_from_the/
p1447
VTutorial Thursday: Stepover kneebars from the bottom of half guard
p1448
sVhttps://www.reddit.com/r/electronic_cigarette/comments/4h5vg6/shout_out_to_bx_vapor_really_impressed/
p1449
VShout out to B-X Vapor, really impressed!
p1450
sVhttps://www.reddit.com/r/MensRights/comments/xlu54/what_brought_you_to_the_mrm/
p1451
VWhat brought you to the MRM?
p1452
sVhttps://www.reddit.com/r/doctorwho/comments/49nhn8/opinion_steven_moffat_he_cant_kill_characters/
p1453
V(Opinion) Steven Moffat: he can't kill characters.
p1454
sVhttps://www.reddit.com/r/CoDCompetitive/comments/30826t/do_gunnar_glasses_or_similar_glasses_work/
p1455
VDo Gunnar glasses or similar glasses work?
p1456
sVhttps://www.reddit.com/r/theydidthemath/comments/32gm58/request_if_every_multistory_building_in_the_world/
p1457
V[Request] If every multi-story building in the world was smushed into its equivalent 1 story footprint, how much usable land would we still have left on Earth?
p1458
sVhttps://www.reddit.com/r/pathofexile/comments/39y9m2/awakeningelemental_windripper_magic_find_what/
p1459
V[Awakening][Elemental Windripper Magic find] What would be the best starting point?
p1460
sVhttps://www.reddit.com/r/AskReddit/comments/40ycv4/what_are_the_best_gilded_posts_in_reddit_nsfw/
p1461
VWhat are the best gilded posts in Reddit? Nsfw
p1462
sVhttps://www.reddit.com/r/manga/comments/1gr9a6/looking_for_info_on_highschool_of_the_dead/
p1463
VLooking for info on Highschool of the Dead.
p1464
sVhttps://www.reddit.com/r/heroesofthestorm/comments/365w0g/blizzard_please_dont_just_flatout_kill_the_li_li/
p1465
VBlizzard, please don't just flat-out kill the Li Li bug
p1466
sVhttps://www.reddit.com/r/eagles/comments/4ap0m2/would_you_take_a_risk_on_jaylon_smith/
p1467
VWould you take a risk on Jaylon Smith?
p1468
sVhttps://www.reddit.com/r/drums/comments/1fy2nw/i_dont_want_to_be_clueless_on_drum_specs/
p1469
VI don't want to be clueless on drum specs
p1470
sVhttps://www.reddit.com/r/bangtan/comments/4g35ds/rapmons_twitter_video_what_color_is_his_hair/
p1471
VRapmon's twitter video (what color is his hair?)
p1472
sVhttps://www.reddit.com/r/iosgaming/comments/3gegj8/are_there_any_mmo_strategy_games_similar_to/
p1473
VAre there any MMO Strategy games similar to GoW/CoC that aren't P2W?
p1474
sVhttps://www.reddit.com/r/fountainpens/comments/357sp8/anyone_know_frequency_of_twsbi_580_diamond_stock/
p1475
VAnyone know frequency of twsbi 580 diamond stock at goulet?
p1476
sVhttps://www.reddit.com/r/araragi/comments/410by9/kizumonogatari_for_the_southeast/
p1477
VKizumonogatari for the Southeast.
p1478
sVhttps://www.reddit.com/r/starwarscollecting/comments/4d3ikb/started_collecting_figurines/
p1479
VStarted Collecting Figurines
p1480
sVhttps://www.reddit.com/r/RocketLeague/comments/3crycf/is_it_a_huge_disadvantage_to_use_mousekeyboard/
p1481
VIs it a huge disadvantage to use mouse/keyboard over a controller?
p1482
sVhttps://www.reddit.com/r/photography/comments/q6jx4/hdr/
p1483
VHDR
p1484
sVhttps://www.reddit.com/r/hwatch/comments/3vu2u8/battery_problems_with_new_watch/
p1485
VBattery Problems With New Watch
p1486
sVhttps://www.reddit.com/r/Malazan/comments/3d8zh9/done/
p1487
VDone....
p1488
sVhttps://www.reddit.com/r/web_design/comments/1dd12c/other_than_htmlcss_what_else_is_necessary_for_a/
p1489
VOther than HTML/CSS, what else is necessary for a site to run?
p1490
sVhttps://www.reddit.com/r/kvariety/comments/10sh2l/where_are_you_afphreak_youre_our_only_mod_and_its/
p1491
VWhere are you afphreak? You're our only Mod and it's been 7 months since you've last posted here.
p1492
sVhttps://www.reddit.com/r/vintageaudio/comments/18uxw0/vintage_tube_amp_advice/
p1493
Vvintage tube amp advice
p1494
sVhttps://www.reddit.com/r/Drugs/comments/193lkh/25cnbome_life_of_pi_trip_report/
p1495
V25C-NBOMe, Life of Pi [Trip Report]
p1496
sVhttps://www.reddit.com/r/leagueoflegends/comments/2ilytz/i_hit_gold_in_solo_que_and_now_the_ranked_is/
p1497
VI hit gold in solo que and now the ranked is actually fun!
p1498
sVhttps://www.reddit.com/r/arduino/comments/2mw9qi/newb_question_arduino_coding_languages/
p1499
V[Newb Question] Arduino Coding Languages
p1500
sVhttps://www.reddit.com/r/asktransgender/comments/1sq372/dysphoria_possibly_triggering/
p1501
VDysphoria (possibly triggering)
p1502
sVhttps://www.reddit.com/r/hearthstone/comments/3bv2m1/was_playing_the_brawl_as_a_priest/
p1503
VWas playing the Brawl as a priest ...
p1504
sVhttps://www.reddit.com/r/tf2/comments/1kqmps/if_you_spend_money_lets_say_10_dollarseuros_on/
p1505
VIf you spend money (let's say 10 dollars/euros) on tf2, what are some of the better options?
p1506
sVhttps://www.reddit.com/r/firefox/comments/4jbs82/defaulting_to_an_old_profile_in_firefox_developer/
p1507
VDefaulting to an old profile in Firefox Developer Edition
p1508
sVhttps://www.reddit.com/r/AskReddit/comments/3v510m/what_is_the_strangest_or_most_amusing_reason/
p1509
VWhat is the strangest or most amusing reason you've ever been fired from a job?
p1510
sVhttps://www.reddit.com/r/Pokemongiveaway/comments/3yo0p7/lf_ha_chikorita_and_pachirisu/
p1511
VLF HA CHIKORITA AND PACHIRISU
p1512
sVhttps://www.reddit.com/r/schizoaffective/comments/4e3je2/hospitalization/
p1513
VHospitalization
p1514
sVhttps://www.reddit.com/r/buildapc/comments/lxm3y/first_build_making_a_midrange_pc_for_a_non_gamer/
p1515
VFirst build, making a mid-range PC for a non gamer. Is this bare bones kit a decent build? 
p1516
sVhttps://www.reddit.com/r/rpg/comments/f1woc/pathfinder_help_needed_building_a_character_that/
p1517
VPathfinder help needed building a character that wont stink!
p1518
sVhttps://www.reddit.com/r/linux/comments/femwk/modifying_linux_default_sort_order_to_honor/
p1519
VModifying Linux default sort order to honor leading punctuation?
p1520
sVhttps://www.reddit.com/r/SWORDS/comments/28i632/i_want_to_learn_more/
p1521
VI want to learn more.
p1522
sVhttps://www.reddit.com/r/SuicideWatch/comments/1x0opf/i_fucked_up/
p1523
VI fucked up
p1524
sVhttps://www.reddit.com/r/Mabinogi/comments/3hsky2/which_would_be_a_better_solo_mage_alchemist_human/
p1525
VWhich would be a better solo Mage & Alchemist? Human or Elf?
p1526
sVhttps://www.reddit.com/r/fixit/comments/4k5hqg/how_can_i_remove_the_debris_off_my_pool_cover/
p1527
VHow can I remove the debris off my pool cover?
p1528
sVhttps://www.reddit.com/r/askscience/comments/1dk37g/is_spacetime_discrete_or_continuous/
p1529
VIs spacetime discrete or continuous?
p1530
sVhttps://www.reddit.com/r/speedrun/comments/3fr12j/sgdq_2015_save_vs_kill_the_animals_by_the_numbers/
p1531
VSGDQ 2015: Save vs. Kill the Animals by the Numbers
p1532
sVhttps://www.reddit.com/r/AskReddit/comments/22hvqh/urban_explorers_what_is_the_coolestcreepiestmost/
p1533
VUrban Explorers; what is the coolest/creepiest/most beautiful place you've explored?
p1534
sVhttps://www.reddit.com/r/geology/comments/1tkbyx/looking_through_great_uncles_rock_collection_and/
p1535
VLooking through Great Uncle's rock collection and need some help identifying!
p1536
sVhttps://www.reddit.com/r/recipes/comments/p02hw/chinatown_baked_bao_dough/
p1537
VChinatown Baked Bao Dough?
p1538
sVhttps://www.reddit.com/r/DarkSouls2/comments/20m9of/question_magic_hands_d_possible_item_spoilers/
p1539
V(Question) Magic hands! :D (Possible item spoilers)
p1540
sVhttps://www.reddit.com/r/techsupport/comments/1bxeoc/looking_for_allinone_that_does_not_suck_for_small/
p1541
VLooking for All-in-one that does not suck for small bus.
p1542
sVhttps://www.reddit.com/r/FeMRADebates/comments/2p57z0/concerning_male_empathy_and_torture_if_guantanamo/
p1543
VConcerning Male Empathy and Torture: If Guantanamo Bay was filled with female prisoners instead of male prisoners, and the currently exposed torture and humiliation was done on them, would the facility be closed by now?
p1544
sVhttps://www.reddit.com/r/tampa/comments/2rczbm/bubba_is_back_bitches_6am_on_987_fm_anyone_care/
p1545
VBubba is back bitches. 6am on 98.7 FM. Anyone care?
p1546
sVhttps://www.reddit.com/r/SkincareAddiction/comments/2g8a3o/how_do_i_get_rid_of_these_skin_colored_bumps/
p1547
VHow do I get rid of these skin colored bumps?
p1548
sVhttps://www.reddit.com/r/vapor/comments/2p9tee/burnt_juice_in_drip_tip/
p1549
Vburnt juice in drip tip
p1550
sVhttps://www.reddit.com/r/whowouldwin/comments/2yglcu/sentry_vs_swamp_thing/
p1551
VSentry vs. Swamp Thing
p1552
sVhttps://www.reddit.com/r/leagueoflegends/comments/1oqqxb/drops_in_fps/
p1553
VDrops in FPS
p1554
sVhttps://www.reddit.com/r/startups/comments/3g1icn/doing_business_in_puerto_rico/
p1555
VDoing business in Puerto Rico
p1556
sVhttps://www.reddit.com/r/wow/comments/2u0bto/help_me_figure_out_why_i_keep_disconnecting_from/
p1557
VHelp me figure out why I keep disconnecting from WoW and Mumble...
p1558
sVhttps://www.reddit.com/r/DotA2/comments/3z6ska/now_that_kappa_crusaders_took_their_first_victory/
p1559
VNow that Kappa Crusaders took their first victory, can we have our flair now?
p1560
sVhttps://www.reddit.com/r/androidapps/comments/2kzq7v/help_with_emojiswiftkey_app_specifically_no/
p1561
VHelp with emoji/swiftkey app? Specifically, no emojis other than GOSMS?
p1562
sVhttps://www.reddit.com/r/energy_work/comments/16hk05/is_this_my_energy_killing_the_electronics_or/
p1563
VIs this my energy killing the electronics? Or what's happening?? 
p1564
sVhttps://www.reddit.com/r/apple/comments/9izr5/in_case_like_me_you_never_upgraded_your_ipod/
p1565
VIn case (like me) you never upgraded your iPod Touch to the 3.0 OS .. it's down to $4.95 to upgrade to 3.1 today
p1566
sVhttps://www.reddit.com/r/tressless/comments/431gxj/what_do_you_guys_think_am_i_thinning_on_top/
p1567
VWhat do you guys think am I thinning on top?
p1568
sVhttps://www.reddit.com/r/kodi/comments/4d6eep/multiple_files_for_a_single_title/
p1569
VMultiple files for a single title?
p1570
sVhttps://www.reddit.com/r/Standup/comments/1czcju/what_seems_to_be_an_effective_way_to_write/
p1571
VWhat seems to be an effective way to write?
p1572
sVhttps://www.reddit.com/r/eagles/comments/2qr3nz/based_on_the_schedule/
p1573
VBased on the Schedule
p1574
sVhttps://www.reddit.com/r/byu/comments/1wynv3/a_question_from_the_bunyion/
p1575
VA question from The BunYion...
p1576
sVhttps://www.reddit.com/r/Crouton/comments/3d4qdo/comprehensive_guide_to_linux_on_acer_c720_for/
p1577
VComprehensive guide to linux on acer c720 for software development
p1578
sVhttps://www.reddit.com/r/electricians/comments/3hiowz/lighthing_fixture/
p1579
VLighthing fixture.
p1580
sVhttps://www.reddit.com/r/cats/comments/4idnth/i_see_a_orange_and_white_cat_roaming_through_my/
p1581
VI see a orange and white cat roaming through my backyard every once and awhile. It doesn't have a collar. What should I do?
p1582
sVhttps://www.reddit.com/r/AskReddit/comments/2zcqa6/what_is_something_that_is_relatively_simple_to/
p1583
VWhat is something that is relatively simple to cut out of your diet with positive effects? If you have done it yourself, how was your experience?
p1584
sVhttps://www.reddit.com/r/huntersbell/comments/3f2zs2/cddefiled130/
p1585
V[CD][Defiled][130]
p1586
sVhttps://www.reddit.com/r/pokemon/comments/3xz40u/need_help_creating_a_team_to_face_my_friend/
p1587
VNeed help creating a team to face my friend!
p1588
sVhttps://www.reddit.com/r/demonssouls/comments/1rio39/having_trouble_getting_plat_due_to_the_world/
p1589
VHaving trouble getting Plat due to the world tendency
p1590
sVhttps://www.reddit.com/r/singing/comments/4dnhub/how_to_get_volume_control/
p1591
VHow to get volume control?
p1592
sVhttps://www.reddit.com/r/lfg/comments/2hsjag/online_dd_2e_need_dm_or_player_for_ist_4_to_1130/
p1593
V[Online] D&D 2e need DM or player for ist 4 to 11:30 pm
p1594
sVhttps://www.reddit.com/r/smallbusiness/comments/29imxh/i_have_an_idea_for_a_niche_bookstore_and_i_have/
p1595
VI have an idea for a niche bookstore, and I have two months to get the ball rolling. How to begin?
p1596
sVhttps://www.reddit.com/r/discododgeball/comments/34wcmk/hoops_league_fridays_8pm_et/
p1597
VHoops league Fridays @ 8pm ET
p1598
sVhttps://www.reddit.com/r/AskReddit/comments/152xvo/where_can_i_find_really_good_porn_gifs/
p1599
VWhere can I find really good porn gifs?
p1600
sVhttps://www.reddit.com/r/oculus/comments/1jez77/mmorpg_addicts_a_future_rift_problem/
p1601
VMMORPG Addicts: A future Rift problem?
p1602
sVhttps://www.reddit.com/r/phoenix/comments/4elkew/rphoenix_daily_discussion_thread_april_13_2016/
p1603
V/r/Phoenix daily discussion thread - April 13, 2016
p1604
sVhttps://www.reddit.com/r/huntersbell/comments/326ure/ng135chalice_dungeonsskaloola/
p1605
V[NG][135][Chalice Dungeons][Skaloola]
p1606
sVhttps://www.reddit.com/r/techsupport/comments/zby2d/my_roku_device_suddenly_stopped_connecting_to_my/
p1607
VMy Roku device suddenly stopped connecting to my home network, and the support person told me I had to, "Call 2Wire and tell them to increase [my] bandwidth to 11".  \u0ca0_\u0ca0
p1608
sVhttps://www.reddit.com/r/ClickerHeroes/comments/2ehcw9/skillz_what_is_your_favorite_order_of_skills/
p1609
VSkillz. What is your favorite order of skills?
p1610
sVhttps://www.reddit.com/r/leagueoflegends/comments/2zy4ko/ability_to_break_an_item_and_sell_a_part_of_it/
p1611
VAbility to break an item and sell a part of it.
p1612
sVhttps://www.reddit.com/r/techsupport/comments/37vo6i/recording_games_produces_unreadable_avi_files/
p1613
VRecording games produces unreadable avi files.
p1614
sVhttps://www.reddit.com/r/diablo3/comments/2g45p4/finally_getting_d3_for_my_birthday_this_weekend/
p1615
VFinally getting D3 for my birthday this weekend.
p1616
sVhttps://www.reddit.com/r/csmapmakers/comments/2gk86c/ive_hit_a_wall_with_detailing_my_map_de_fruit/
p1617
VI've hit a wall with detailing my map De_Fruit.
p1618
sVhttps://www.reddit.com/r/Cleveland/comments/4hbbh2/goodtime_iii_vs_nautica_queen/
p1619
VGoodtime III vs Nautica Queen
p1620
sVhttps://www.reddit.com/r/rpg/comments/3b7zgn/ludology_are_there_relevant_fundamental_texts/
p1621
VLudology - Are there relevant fundamental texts?
p1622
sVhttps://www.reddit.com/r/evedreddit/comments/195f7z/im_looking_to_join_but_i_want_to_be_prepared/
p1623
VI'm looking to join, but I want to be prepared
p1624
sVhttps://www.reddit.com/r/40kLore/comments/3au23g/a_human_in_taus_clothing/
p1625
VA human in Tau's clothing
p1626
sVhttps://www.reddit.com/r/guns/comments/4aklyx/shiloh_sharps_1874_inherited_it_from_my/
p1627
VShiloh Sharps 1874, inherited it from my grandfather.
p1628
sVhttps://www.reddit.com/r/BurningMan/comments/2e30uw/yet_another_will_call_question_not_answered/
p1629
VYet another will Call question (not answered before I don\u2019t think)
p1630
sVhttps://www.reddit.com/r/Warframe/comments/4c5que/best_endgame_warframe/
p1631
VBest endgame warframe?
p1632
sVhttps://www.reddit.com/r/rocksmith/comments/2z9q4r/rocksmith_really_works_heres_where_im_at_after_a/
p1633
VRocksmith really works! Here's where I'm at after a month of playing.
p1634
sVhttps://www.reddit.com/r/oaklandraiders/comments/311ftm/what_do_you_guys_think_about_good_guys_new_look/
p1635
VWhat do you guys think about "Good guys" new look Raiders?
p1636
sVhttps://www.reddit.com/r/dayz/comments/1vp8b6/should_i_get_the_dayz_sa_or_buy_arma_ii_and_get/
p1637
VShould I get the DayZ SA or Buy Arma II and get DayZ mod? (Steam)
p1638
sVhttps://www.reddit.com/r/WTF/comments/1f5j6q/found_this_on_the_windshield_of_ever_car_in_our/
p1639
VFound this on the windshield of ever car in our apartment complex this morning.
p1640
sVhttps://www.reddit.com/r/hockeyplayers/comments/1k4ksi/screening_the_goalie/
p1641
VScreening the goalie
p1642
sVhttps://www.reddit.com/r/Nexus5/comments/1uf55c/stuck_between_cases/
p1643
VStuck between cases
p1644
sVhttps://www.reddit.com/r/asheville/comments/2c748d/what_is_an_upper_echelon_consignment_store_in/
p1645
VWhat is an upper echelon consignment store in Asheville?
p1646
sVhttps://www.reddit.com/r/legaladvice/comments/1riqzr/bought_2000_worth_of_fake_gold/
p1647
VBought $2000 worth of Fake Gold
p1648
sVhttps://www.reddit.com/r/jobs/comments/23qq5y/do_interviewers_ask_for_references_if_they_arent/
p1649
VDo interviewers ask for references if they aren't interested in a candidate post-interview?
p1650
sVhttps://www.reddit.com/r/MinionHate/comments/3j4zip/it_finally_fucking_happened_to_me_god_damn_it/
p1651
VIt finally fucking happened to me. God damn it
p1652
sVhttps://www.reddit.com/r/zen/comments/2rjq21/science_and_human_beings/
p1653
VScience and Human Beings
p1654
sVhttps://www.reddit.com/r/batonrouge/comments/3bxcna/moving_to_br_soon_whats_the_area_like/
p1655
VMoving to BR soon, what's the area like?
p1656
sVhttps://www.reddit.com/r/androiddev/comments/34uehq/is_there_a_way_to_disable_the_subreddit_styles/
p1657
VIs there a way to disable the subreddit styles that have been added?
p1658
sVhttps://www.reddit.com/r/MHOL/comments/4c7az1/b211_education_for_underdeveloped_nations_bill/
p1659
VB211 Education for Underdeveloped Nations bill | 2nd Reading
p1660
sVhttps://www.reddit.com/r/electronic_cigarette/comments/171yzh/best_and_cheapest_place_to_buy_a_pair_of_18350/
p1661
Vbest and cheapest place to buy a pair of 18350 batteries and a charger?
p1662
sVhttps://www.reddit.com/r/smashbros/comments/32acgk/mang0_being_mang0/
p1663
VMang0 Being Mang0
p1664
sVhttps://www.reddit.com/r/buildapc/comments/3zxoya/troubleshooting_no_soundvisual_from_pc/
p1665
V[Troubleshooting] no sound/visual from PC
p1666
sVhttps://www.reddit.com/r/FFRecordKeeper/comments/421a31/no_end_of_the_month_bonuses/
p1667
VNo end of the month bonuses :(
p1668
sVhttps://www.reddit.com/r/taiko/comments/21gxkc/any_ideassuggestions_for_cool_taiko_tshirts/
p1669
VAny ideas/suggestions for cool Taiko t-shirts?
p1670
sVhttps://www.reddit.com/r/warframeclanrecruit/comments/2zs13p/napclfc_mincer558/
p1671
V[NA][PC][LFC] - Mincer558
p1672
sVhttps://www.reddit.com/r/marvelstudios/comments/4ej762/important_antman_movie_question/
p1673
VImportant "Ant-Man" movie question
p1674
sVhttps://www.reddit.com/r/zen/comments/4bqqeo/everything_is_black_and_white/
p1675
VEverything is black and white.
p1676
s.